
penguin.elf:     file format elf32-avr

Sections:
Idx Name          Size      VMA       LMA       File off  Algn
  0 .text         00001586  00000000  00000000  00000094  2**1
                  CONTENTS, ALLOC, LOAD, READONLY, CODE
  1 .data         000002b4  00802000  00001586  0000161a  2**0
                  CONTENTS, ALLOC, LOAD, DATA
  2 .bss          000004bd  008022b4  008022b4  000018ce  2**0
                  ALLOC
  3 .comment      00000030  00000000  00000000  000018ce  2**0
                  CONTENTS, READONLY
  4 .note.gnu.avr.deviceinfo 00000040  00000000  00000000  00001900  2**2
                  CONTENTS, READONLY
  5 .debug_aranges 00000740  00000000  00000000  00001940  2**0
                  CONTENTS, READONLY, DEBUGGING
  6 .debug_info   0000a849  00000000  00000000  00002080  2**0
                  CONTENTS, READONLY, DEBUGGING
  7 .debug_abbrev 00001c0e  00000000  00000000  0000c8c9  2**0
                  CONTENTS, READONLY, DEBUGGING
  8 .debug_line   00002c14  00000000  00000000  0000e4d7  2**0
                  CONTENTS, READONLY, DEBUGGING
  9 .debug_frame  00001620  00000000  00000000  000110ec  2**2
                  CONTENTS, READONLY, DEBUGGING
 10 .debug_str    00004426  00000000  00000000  0001270c  2**0
                  CONTENTS, READONLY, DEBUGGING
 11 .debug_loc    00005818  00000000  00000000  00016b32  2**0
                  CONTENTS, READONLY, DEBUGGING
 12 .debug_ranges 000007c0  00000000  00000000  0001c34a  2**0
                  CONTENTS, READONLY, DEBUGGING

Disassembly of section .text:

00000000 <__vectors>:
#if !defined(NO_DEVICE_REMOTE_WAKEUP)
bool    USB_Device_RemoteWakeupEnabled;
#endif

void USB_Device_ProcessControlRequest(void)
{
       0:	0c 94 fe 00 	jmp	0x1fc	; 0x1fc <__ctors_end>
       4:	0c 94 1f 01 	jmp	0x23e	; 0x23e <__bad_interrupt>
       8:	0c 94 1f 01 	jmp	0x23e	; 0x23e <__bad_interrupt>
       c:	0c 94 1f 01 	jmp	0x23e	; 0x23e <__bad_interrupt>
      10:	0c 94 1f 01 	jmp	0x23e	; 0x23e <__bad_interrupt>
      14:	0c 94 1f 01 	jmp	0x23e	; 0x23e <__bad_interrupt>
      18:	0c 94 1f 01 	jmp	0x23e	; 0x23e <__bad_interrupt>
      1c:	0c 94 1f 01 	jmp	0x23e	; 0x23e <__bad_interrupt>
      20:	0c 94 1f 01 	jmp	0x23e	; 0x23e <__bad_interrupt>
      24:	0c 94 1f 01 	jmp	0x23e	; 0x23e <__bad_interrupt>
	USB_ControlRequest.wLength       = Endpoint_Read_16_LE();
	#else
	uint8_t* RequestHeader = (uint8_t*)&USB_ControlRequest;

	for (uint8_t RequestHeaderByte = 0; RequestHeaderByte < sizeof(USB_Request_Header_t); RequestHeaderByte++)
	  *(RequestHeader++) = Endpoint_Read_8();
      28:	0c 94 28 0a 	jmp	0x1450	; 0x1450 <__vector_10>
      2c:	0c 94 63 0a 	jmp	0x14c6	; 0x14c6 <__vector_11>
	USB_ControlRequest.wIndex        = Endpoint_Read_16_LE();
	USB_ControlRequest.wLength       = Endpoint_Read_16_LE();
	#else
	uint8_t* RequestHeader = (uint8_t*)&USB_ControlRequest;

	for (uint8_t RequestHeaderByte = 0; RequestHeaderByte < sizeof(USB_Request_Header_t); RequestHeaderByte++)
      30:	0c 94 1f 01 	jmp	0x23e	; 0x23e <__bad_interrupt>
      34:	0c 94 1f 01 	jmp	0x23e	; 0x23e <__bad_interrupt>
	  *(RequestHeader++) = Endpoint_Read_8();
	#endif

	EVENT_USB_Device_ControlRequest();
      38:	0c 94 1f 01 	jmp	0x23e	; 0x23e <__bad_interrupt>

	if (Endpoint_IsSETUPReceived())
      3c:	0c 94 1f 01 	jmp	0x23e	; 0x23e <__bad_interrupt>
      40:	0c 94 1f 01 	jmp	0x23e	; 0x23e <__bad_interrupt>
	{
		uint8_t bmRequestType = USB_ControlRequest.bmRequestType;
      44:	0c 94 1f 01 	jmp	0x23e	; 0x23e <__bad_interrupt>
      48:	0c 94 1f 01 	jmp	0x23e	; 0x23e <__bad_interrupt>

		switch (USB_ControlRequest.bRequest)
      4c:	0c 94 1f 01 	jmp	0x23e	; 0x23e <__bad_interrupt>
      50:	0c 94 1f 01 	jmp	0x23e	; 0x23e <__bad_interrupt>
      54:	0c 94 1f 01 	jmp	0x23e	; 0x23e <__bad_interrupt>
      58:	0c 94 1f 01 	jmp	0x23e	; 0x23e <__bad_interrupt>
      5c:	0c 94 1f 01 	jmp	0x23e	; 0x23e <__bad_interrupt>
      60:	0c 94 1f 01 	jmp	0x23e	; 0x23e <__bad_interrupt>
      64:	0c 94 49 08 	jmp	0x1092	; 0x1092 <__vector_25>
		{
			case REQ_GetStatus:
				if ((bmRequestType == (REQDIR_DEVICETOHOST | REQTYPE_STANDARD | REQREC_DEVICE)) ||
      68:	0c 94 5d 08 	jmp	0x10ba	; 0x10ba <__vector_26>
      6c:	0c 94 53 08 	jmp	0x10a6	; 0x10a6 <__vector_27>
      70:	0c 94 67 08 	jmp	0x10ce	; 0x10ce <__vector_28>
	Endpoint_ClearOUT();
}

static void USB_Device_GetStatus(void)
{
	uint8_t CurrentStatus = 0;
      74:	0c 94 7b 08 	jmp	0x10f6	; 0x10f6 <__vector_29>
			if (USB_Device_CurrentlySelfPowered)
			  CurrentStatus |= FEATURE_SELFPOWERED_ENABLED;
			#endif

			#if !defined(NO_DEVICE_REMOTE_WAKEUP)
			if (USB_Device_RemoteWakeupEnabled)
      78:	0c 94 71 08 	jmp	0x10e2	; 0x10e2 <__vector_30>
      7c:	0c 94 1f 01 	jmp	0x23e	; 0x23e <__bad_interrupt>
			  CurrentStatus |= FEATURE_REMOTE_WAKEUP_ENABLED;
      80:	0c 94 1f 01 	jmp	0x23e	; 0x23e <__bad_interrupt>
			#endif
			break;
		case (REQDIR_DEVICETOHOST | REQTYPE_STANDARD | REQREC_ENDPOINT):
			#if !defined(CONTROL_ONLY_DEVICE)
			Endpoint_SelectEndpoint((uint8_t)USB_ControlRequest.wIndex & ENDPOINT_EPNUM_MASK);
      84:	0c 94 1f 01 	jmp	0x23e	; 0x23e <__bad_interrupt>
      88:	0c 94 1f 01 	jmp	0x23e	; 0x23e <__bad_interrupt>
			 *  \return Boolean \c true if the currently selected endpoint is stalled, \c false otherwise.
			 */
			static inline bool Endpoint_IsStalled(void) ATTR_WARN_UNUSED_RESULT ATTR_ALWAYS_INLINE;
			static inline bool Endpoint_IsStalled(void)
			{
				return ((USB_Endpoint_SelectedHandle->CTRL & USB_EP_STALL_bm) ? true : false);
      8c:	0c 94 1f 01 	jmp	0x23e	; 0x23e <__bad_interrupt>
      90:	0c 94 1f 01 	jmp	0x23e	; 0x23e <__bad_interrupt>
      94:	0c 94 1f 01 	jmp	0x23e	; 0x23e <__bad_interrupt>
      98:	0c 94 1f 01 	jmp	0x23e	; 0x23e <__bad_interrupt>

			CurrentStatus = Endpoint_IsStalled();

			Endpoint_SelectEndpoint(ENDPOINT_CONTROLEP);
      9c:	0c 94 1f 01 	jmp	0x23e	; 0x23e <__bad_interrupt>
      a0:	0c 94 1f 01 	jmp	0x23e	; 0x23e <__bad_interrupt>
			break;
		default:
			return;
	}

	Endpoint_ClearSETUP();
      a4:	0c 94 1f 01 	jmp	0x23e	; 0x23e <__bad_interrupt>
			 *  \param[in] Data  Data to write to the currently selected endpoint's FIFO buffer.
			 */
			static inline void Endpoint_Write_16_LE(const uint16_t Data) ATTR_ALWAYS_INLINE;
			static inline void Endpoint_Write_16_LE(const uint16_t Data)
			{
				Endpoint_Write_8(Data & 0xFF);
      a8:	0c 94 1f 01 	jmp	0x23e	; 0x23e <__bad_interrupt>
				Endpoint_Write_8(Data >> 8);
      ac:	0c 94 1f 01 	jmp	0x23e	; 0x23e <__bad_interrupt>
      b0:	0c 94 1f 01 	jmp	0x23e	; 0x23e <__bad_interrupt>

	Endpoint_Write_16_LE(CurrentStatus);
	Endpoint_ClearIN();
      b4:	0c 94 1f 01 	jmp	0x23e	; 0x23e <__bad_interrupt>

	Endpoint_ClearStatusStage();
      b8:	0c 94 1f 01 	jmp	0x23e	; 0x23e <__bad_interrupt>
				}

				break;
			case REQ_ClearFeature:
			case REQ_SetFeature:
				if ((bmRequestType == (REQDIR_HOSTTODEVICE | REQTYPE_STANDARD | REQREC_DEVICE)) ||
      bc:	0c 94 1f 01 	jmp	0x23e	; 0x23e <__bad_interrupt>
      c0:	0c 94 1f 01 	jmp	0x23e	; 0x23e <__bad_interrupt>
      c4:	0c 94 1f 01 	jmp	0x23e	; 0x23e <__bad_interrupt>
      c8:	0c 94 1f 01 	jmp	0x23e	; 0x23e <__bad_interrupt>
	switch (USB_ControlRequest.bmRequestType & CONTROL_REQTYPE_RECIPIENT)
	{
		#if !defined(NO_DEVICE_REMOTE_WAKEUP)
		case REQREC_DEVICE:
			if ((uint8_t)USB_ControlRequest.wValue == FEATURE_SEL_DeviceRemoteWakeup)
			  USB_Device_RemoteWakeupEnabled = (USB_ControlRequest.bRequest == REQ_SetFeature);
      cc:	0c 94 1f 01 	jmp	0x23e	; 0x23e <__bad_interrupt>
      d0:	0c 94 1f 01 	jmp	0x23e	; 0x23e <__bad_interrupt>
      d4:	0c 94 1f 01 	jmp	0x23e	; 0x23e <__bad_interrupt>
		#endif
		#if !defined(CONTROL_ONLY_DEVICE)
		case REQREC_ENDPOINT:
			if ((uint8_t)USB_ControlRequest.wValue == FEATURE_SEL_EndpointHalt)
			{
				uint8_t EndpointIndex = ((uint8_t)USB_ControlRequest.wIndex & ENDPOINT_EPNUM_MASK);
      d8:	0c 94 1f 01 	jmp	0x23e	; 0x23e <__bad_interrupt>
      dc:	0c 94 1f 01 	jmp	0x23e	; 0x23e <__bad_interrupt>

				if (EndpointIndex == ENDPOINT_CONTROLEP)
      e0:	0c 94 1f 01 	jmp	0x23e	; 0x23e <__bad_interrupt>
				  return;

				Endpoint_SelectEndpoint(EndpointIndex);
      e4:	0c 94 1f 01 	jmp	0x23e	; 0x23e <__bad_interrupt>
      e8:	0c 94 a3 08 	jmp	0x1146	; 0x1146 <__vector_58>

				if (Endpoint_IsEnabled())
				{
					if (USB_ControlRequest.bRequest == REQ_SetFeature)
      ec:	0c 94 b7 08 	jmp	0x116e	; 0x116e <__vector_59>
      f0:	0c 94 ad 08 	jmp	0x115a	; 0x115a <__vector_60>
					{
						Endpoint_StallTransaction();
      f4:	0c 94 1f 01 	jmp	0x23e	; 0x23e <__bad_interrupt>
			 *  \ingroup Group_EndpointPacketManagement_XMEGA
			 */
			static inline void Endpoint_ClearStall(void) ATTR_ALWAYS_INLINE;
			static inline void Endpoint_ClearStall(void)
			{
				USB_Endpoint_SelectedHandle->CTRL &= ~USB_EP_STALL_bm;
      f8:	0c 94 1f 01 	jmp	0x23e	; 0x23e <__bad_interrupt>
      fc:	0c 94 1f 01 	jmp	0x23e	; 0x23e <__bad_interrupt>
     100:	0c 94 1f 01 	jmp	0x23e	; 0x23e <__bad_interrupt>
     104:	0c 94 1f 01 	jmp	0x23e	; 0x23e <__bad_interrupt>
			static inline void Endpoint_ResetEndpoint(const uint8_t Address)
			{
				if (Address & ENDPOINT_DIR_IN)
				  USB_Endpoint_FIFOs[Address & ENDPOINT_EPNUM_MASK].IN.Position  = 0;
				else
				  USB_Endpoint_FIFOs[Address & ENDPOINT_EPNUM_MASK].OUT.Position = 0;
     108:	0c 94 1f 01 	jmp	0x23e	; 0x23e <__bad_interrupt>
     10c:	0c 94 1f 01 	jmp	0x23e	; 0x23e <__bad_interrupt>
     110:	0c 94 1f 01 	jmp	0x23e	; 0x23e <__bad_interrupt>

			/** Resets the data toggle of the currently selected endpoint. */
			static inline void Endpoint_ResetDataToggle(void) ATTR_ALWAYS_INLINE;
			static inline void Endpoint_ResetDataToggle(void)
			{
				USB_Endpoint_SelectedHandle->STATUS &= ~USB_EP_TOGGLE_bm;
     114:	0c 94 1f 01 	jmp	0x23e	; 0x23e <__bad_interrupt>
     118:	0c 94 1f 01 	jmp	0x23e	; 0x23e <__bad_interrupt>
     11c:	0c 94 1f 01 	jmp	0x23e	; 0x23e <__bad_interrupt>
     120:	0c 94 1f 01 	jmp	0x23e	; 0x23e <__bad_interrupt>
		#endif
		default:
			return;
	}

	Endpoint_SelectEndpoint(ENDPOINT_CONTROLEP);
     124:	0c 94 1f 01 	jmp	0x23e	; 0x23e <__bad_interrupt>

	Endpoint_ClearSETUP();
     128:	0c 94 1f 01 	jmp	0x23e	; 0x23e <__bad_interrupt>

	Endpoint_ClearStatusStage();
     12c:	0c 94 1f 01 	jmp	0x23e	; 0x23e <__bad_interrupt>
     130:	0c 94 1f 01 	jmp	0x23e	; 0x23e <__bad_interrupt>
					USB_Device_ClearSetFeature();
				}

				break;
			case REQ_SetAddress:
				if (bmRequestType == (REQDIR_HOSTTODEVICE | REQTYPE_STANDARD | REQREC_DEVICE))
     134:	0c 94 1f 01 	jmp	0x23e	; 0x23e <__bad_interrupt>
	}
}

static void USB_Device_SetAddress(void)
{
	uint8_t DeviceAddress = (USB_ControlRequest.wValue & 0x7F);
     138:	0c 94 1f 01 	jmp	0x23e	; 0x23e <__bad_interrupt>

	USB_Device_SetDeviceAddress(DeviceAddress);

	Endpoint_ClearSETUP();
     13c:	0c 94 1f 01 	jmp	0x23e	; 0x23e <__bad_interrupt>

	Endpoint_ClearStatusStage();
     140:	0c 94 1f 01 	jmp	0x23e	; 0x23e <__bad_interrupt>

	while (!(Endpoint_IsINReady()));
     144:	0c 94 1f 01 	jmp	0x23e	; 0x23e <__bad_interrupt>
     148:	0c 94 1f 01 	jmp	0x23e	; 0x23e <__bad_interrupt>
			}

			static inline void USB_Device_EnableDeviceAddress(const uint8_t Address) ATTR_ALWAYS_INLINE;
			static inline void USB_Device_EnableDeviceAddress(const uint8_t Address)
			{
				USB.ADDR = Address;
     14c:	0c 94 1f 01 	jmp	0x23e	; 0x23e <__bad_interrupt>

	USB_Device_EnableDeviceAddress(DeviceAddress);

	USB_DeviceState = (DeviceAddress) ? DEVICE_STATE_Addressed : DEVICE_STATE_Default;
     150:	0c 94 1f 01 	jmp	0x23e	; 0x23e <__bad_interrupt>
     154:	0c 94 1f 01 	jmp	0x23e	; 0x23e <__bad_interrupt>
     158:	0c 94 1f 01 	jmp	0x23e	; 0x23e <__bad_interrupt>
     15c:	0c 94 1f 01 	jmp	0x23e	; 0x23e <__bad_interrupt>
				if (bmRequestType == (REQDIR_HOSTTODEVICE | REQTYPE_STANDARD | REQREC_DEVICE))
				  USB_Device_SetAddress();

				break;
			case REQ_GetDescriptor:
				if ((bmRequestType == (REQDIR_DEVICETOHOST | REQTYPE_STANDARD | REQREC_DEVICE)) ||
     160:	0c 94 85 08 	jmp	0x110a	; 0x110a <__vector_88>
     164:	0c 94 99 08 	jmp	0x1132	; 0x1132 <__vector_89>
	    !(defined(USE_FLASH_DESCRIPTORS) || defined(USE_EEPROM_DESCRIPTORS) || defined(USE_RAM_DESCRIPTORS))
	uint8_t DescriptorAddressSpace;
	#endif

	#if !defined(NO_INTERNAL_SERIAL) && (USE_INTERNAL_SERIAL != NO_DESCRIPTOR)
	if (USB_ControlRequest.wValue == ((DTYPE_String << 8) | USE_INTERNAL_SERIAL))
     168:	0c 94 8f 08 	jmp	0x111e	; 0x111e <__vector_90>
     16c:	0c 94 1f 01 	jmp	0x23e	; 0x23e <__bad_interrupt>
     170:	0c 94 1f 01 	jmp	0x23e	; 0x23e <__bad_interrupt>
     174:	0c 94 1f 01 	jmp	0x23e	; 0x23e <__bad_interrupt>
	{
		USB_Descriptor_Header_t Header;
		uint16_t                UnicodeString[INTERNAL_SERIAL_LENGTH_BITS / 4];
	} SignatureDescriptor;

	SignatureDescriptor.Header.Type = DTYPE_String;
     178:	0c 94 1f 01 	jmp	0x23e	; 0x23e <__bad_interrupt>
	SignatureDescriptor.Header.Size = USB_STRING_LEN(INTERNAL_SERIAL_LENGTH_BITS / 4);
     17c:	0c 94 1f 01 	jmp	0x23e	; 0x23e <__bad_interrupt>
				#if (ARCH == ARCH_AVR8)
				return SREG;
				#elif (ARCH == ARCH_UC3)
				return __builtin_mfsr(AVR32_SR);
				#elif (ARCH == ARCH_XMEGA)
				return SREG;
     180:	0c 94 1f 01 	jmp	0x23e	; 0x23e <__bad_interrupt>
				__builtin_ssrf(AVR32_SR_GM_OFFSET);
				#elif (ARCH == ARCH_XMEGA)
				cli();
				#endif

				GCC_MEMORY_BARRIER();
     184:	0c 94 1f 01 	jmp	0x23e	; 0x23e <__bad_interrupt>
     188:	0c 94 1f 01 	jmp	0x23e	; 0x23e <__bad_interrupt>
			static inline void USB_Device_GetSerialString(uint16_t* const UnicodeString)
			{
				uint_reg_t CurrentGlobalInt = GetGlobalInterruptMask();
				GlobalInterruptDisable();

				uint8_t SigReadAddress = INTERNAL_SERIAL_START_ADDRESS;
     18c:	0c 94 1f 01 	jmp	0x23e	; 0x23e <__bad_interrupt>

				for (uint8_t SerialCharNum = 0; SerialCharNum < (INTERNAL_SERIAL_LENGTH_BITS / 4); SerialCharNum++)
				{
					uint8_t SerialByte;

					NVM.CMD    = NVM_CMD_READ_CALIB_ROW_gc;
     190:	0c 94 1f 01 	jmp	0x23e	; 0x23e <__bad_interrupt>
     194:	0c 94 1f 01 	jmp	0x23e	; 0x23e <__bad_interrupt>
     198:	0c 94 1f 01 	jmp	0x23e	; 0x23e <__bad_interrupt>
					SerialByte = pgm_read_byte(SigReadAddress);
     19c:	0c 94 1f 01 	jmp	0x23e	; 0x23e <__bad_interrupt>
					NVM.CMD    = 0;
     1a0:	0c 94 1f 01 	jmp	0x23e	; 0x23e <__bad_interrupt>
     1a4:	0c 94 1f 01 	jmp	0x23e	; 0x23e <__bad_interrupt>

					if (SerialCharNum & 0x01)
     1a8:	0c 94 1f 01 	jmp	0x23e	; 0x23e <__bad_interrupt>
					{
						SerialByte >>= 4;
     1ac:	0c 94 1f 01 	jmp	0x23e	; 0x23e <__bad_interrupt>
						SigReadAddress++;
					}

					SerialByte &= 0x0F;
     1b0:	0c 94 1f 01 	jmp	0x23e	; 0x23e <__bad_interrupt>

					UnicodeString[SerialCharNum] = cpu_to_le16((SerialByte >= 10) ?
     1b4:	0c 94 1f 01 	jmp	0x23e	; 0x23e <__bad_interrupt>
     1b8:	0c 94 1f 01 	jmp	0x23e	; 0x23e <__bad_interrupt>
     1bc:	0c 94 1f 01 	jmp	0x23e	; 0x23e <__bad_interrupt>
     1c0:	0c 94 1f 01 	jmp	0x23e	; 0x23e <__bad_interrupt>
     1c4:	0c 94 1f 01 	jmp	0x23e	; 0x23e <__bad_interrupt>
				uint_reg_t CurrentGlobalInt = GetGlobalInterruptMask();
				GlobalInterruptDisable();

				uint8_t SigReadAddress = INTERNAL_SERIAL_START_ADDRESS;

				for (uint8_t SerialCharNum = 0; SerialCharNum < (INTERNAL_SERIAL_LENGTH_BITS / 4); SerialCharNum++)
     1c8:	0c 94 1f 01 	jmp	0x23e	; 0x23e <__bad_interrupt>
     1cc:	0c 94 1f 01 	jmp	0x23e	; 0x23e <__bad_interrupt>

	USB_Device_GetSerialString(SignatureDescriptor.UnicodeString);

	Endpoint_ClearSETUP();
     1d0:	0c 94 1f 01 	jmp	0x23e	; 0x23e <__bad_interrupt>

	Endpoint_Write_Control_Stream_LE(&SignatureDescriptor, sizeof(SignatureDescriptor));
     1d4:	0c 94 1f 01 	jmp	0x23e	; 0x23e <__bad_interrupt>
     1d8:	0c 94 1f 01 	jmp	0x23e	; 0x23e <__bad_interrupt>
     1dc:	0c 94 1f 01 	jmp	0x23e	; 0x23e <__bad_interrupt>
	Endpoint_ClearOUT();
     1e0:	0c 94 1f 01 	jmp	0x23e	; 0x23e <__bad_interrupt>
     1e4:	0c 94 1f 01 	jmp	0x23e	; 0x23e <__bad_interrupt>
		USB_Device_GetInternalSerialDescriptor();
		return;
	}
	#endif

	if ((DescriptorSize = CALLBACK_USB_GetDescriptor(USB_ControlRequest.wValue, USB_ControlRequest.wIndex,
     1e8:	0c 94 1f 01 	jmp	0x23e	; 0x23e <__bad_interrupt>
     1ec:	0c 94 1f 01 	jmp	0x23e	; 0x23e <__bad_interrupt>
     1f0:	0c 94 1f 01 	jmp	0x23e	; 0x23e <__bad_interrupt>
     1f4:	0c 94 9c 09 	jmp	0x1338	; 0x1338 <__vector_125>
     1f8:	0c 94 1f 01 	jmp	0x23e	; 0x23e <__bad_interrupt>

000001fc <__ctors_end>:
													 )) == NO_DESCRIPTOR)
	{
		return;
	}

	Endpoint_ClearSETUP();
     1fc:	11 24       	eor	r1, r1
	#if defined(USE_RAM_DESCRIPTORS) || !defined(ARCH_HAS_MULTI_ADDRESS_SPACE)
	Endpoint_Write_Control_Stream_LE(DescriptorPointer, DescriptorSize);
	#elif defined(USE_EEPROM_DESCRIPTORS)
	Endpoint_Write_Control_EStream_LE(DescriptorPointer, DescriptorSize);
	#elif defined(USE_FLASH_DESCRIPTORS)
	Endpoint_Write_Control_PStream_LE(DescriptorPointer, DescriptorSize);
     1fe:	1f be       	out	0x3f, r1	; 63
     200:	cf ef       	ldi	r28, 0xFF	; 255
     202:	cd bf       	out	0x3d, r28	; 61
     204:	df e9       	ldi	r29, 0x9F	; 159
     206:	de bf       	out	0x3e, r29	; 62
	  Endpoint_Write_Control_EStream_LE(DescriptorPointer, DescriptorSize);
	else
	  Endpoint_Write_Control_Stream_LE(DescriptorPointer, DescriptorSize);
	#endif

	Endpoint_ClearOUT();
     208:	00 e0       	ldi	r16, 0x00	; 0
     20a:	0c bf       	out	0x3c, r16	; 60

0000020c <__do_copy_data>:
     20c:	12 e2       	ldi	r17, 0x22	; 34
					USB_Device_GetDescriptor();
				}

				break;
			case REQ_GetConfiguration:
				if (bmRequestType == (REQDIR_DEVICETOHOST | REQTYPE_STANDARD | REQREC_DEVICE))
     20e:	a0 e0       	ldi	r26, 0x00	; 0
     210:	b0 e2       	ldi	r27, 0x20	; 32
	EVENT_USB_Device_ConfigurationChanged();
}

static void USB_Device_GetConfiguration(void)
{
	Endpoint_ClearSETUP();
     212:	e6 e8       	ldi	r30, 0x86	; 134
     214:	f5 e1       	ldi	r31, 0x15	; 21

	Endpoint_Write_8(USB_Device_ConfigurationNumber);
     216:	00 e0       	ldi	r16, 0x00	; 0
     218:	0b bf       	out	0x3b, r16	; 59
     21a:	02 c0       	rjmp	.+4      	; 0x220 <__do_copy_data+0x14>
     21c:	07 90       	elpm	r0, Z+
	Endpoint_ClearIN();
     21e:	0d 92       	st	X+, r0
     220:	a4 3b       	cpi	r26, 0xB4	; 180

	Endpoint_ClearStatusStage();
     222:	b1 07       	cpc	r27, r17
     224:	d9 f7       	brne	.-10     	; 0x21c <__do_copy_data+0x10>

00000226 <__do_clear_bss>:
     226:	27 e2       	ldi	r18, 0x27	; 39
				if (bmRequestType == (REQDIR_DEVICETOHOST | REQTYPE_STANDARD | REQREC_DEVICE))
				  USB_Device_GetConfiguration();

				break;
			case REQ_SetConfiguration:
				if (bmRequestType == (REQDIR_HOSTTODEVICE | REQTYPE_STANDARD | REQREC_DEVICE))
     228:	a4 eb       	ldi	r26, 0xB4	; 180
     22a:	b2 e2       	ldi	r27, 0x22	; 34
}

static void USB_Device_SetConfiguration(void)
{
	#if defined(FIXED_NUM_CONFIGURATIONS)
	if ((uint8_t)USB_ControlRequest.wValue > FIXED_NUM_CONFIGURATIONS)
     22c:	01 c0       	rjmp	.+2      	; 0x230 <.do_clear_bss_start>

0000022e <.do_clear_bss_loop>:
     22e:	1d 92       	st	X+, r1

00000230 <.do_clear_bss_start>:
     230:	a1 37       	cpi	r26, 0x71	; 113
     232:	b2 07       	cpc	r27, r18
	if ((uint8_t)USB_ControlRequest.wValue > DevDescriptorPtr->NumberOfConfigurations)
	  return;
	#endif
	#endif

	Endpoint_ClearSETUP();
     234:	e1 f7       	brne	.-8      	; 0x22e <.do_clear_bss_loop>
     236:	0e 94 ea 06 	call	0xdd4	; 0xdd4 <main>

	USB_Device_ConfigurationNumber = (uint8_t)USB_ControlRequest.wValue;
     23a:	0c 94 c1 0a 	jmp	0x1582	; 0x1582 <_exit>

0000023e <__bad_interrupt>:
     23e:	0c 94 00 00 	jmp	0	; 0x0 <__vectors>

00000242 <arch_spi_master_transmit_byte_val>:
}


static uint8_t arch_spi_master_transmit_byte_val(uint8_t data)
{
	NRF24L01P_SPI.DATA = data;
     242:	80 93 c3 08 	sts	0x08C3, r24
	while(!(SPIC.STATUS &(1<<SPI_IF_bp)));
     246:	e0 ec       	ldi	r30, 0xC0	; 192
     248:	f8 e0       	ldi	r31, 0x08	; 8
     24a:	82 81       	ldd	r24, Z+2	; 0x02
     24c:	88 23       	and	r24, r24
     24e:	ec f7       	brge	.-6      	; 0x24a <arch_spi_master_transmit_byte_val+0x8>
	return SPIC.DATA;
     250:	80 91 c3 08 	lds	r24, 0x08C3
}
     254:	08 95       	ret

00000256 <arch_spi_master_transmit_byte_ref>:

static uint8_t arch_spi_master_transmit_byte_ref(uint8_t *data)
{
	NRF24L01P_SPI.DATA = *data;
     256:	fc 01       	movw	r30, r24
     258:	80 81       	ld	r24, Z
     25a:	80 93 c3 08 	sts	0x08C3, r24
	while(!(NRF24L01P_SPI.STATUS &(1<<SPI_IF_bp)));
     25e:	e0 ec       	ldi	r30, 0xC0	; 192
     260:	f8 e0       	ldi	r31, 0x08	; 8
     262:	82 81       	ldd	r24, Z+2	; 0x02
     264:	88 23       	and	r24, r24
     266:	ec f7       	brge	.-6      	; 0x262 <arch_spi_master_transmit_byte_ref+0xc>
	return NRF24L01P_SPI.DATA;
     268:	80 91 c3 08 	lds	r24, 0x08C3
}
     26c:	08 95       	ret

0000026e <_nrf24l01p_ce_pin>:
 */ 

#include "nrf24l01p.h"


void _nrf24l01p_ce_pin(bool state){
     26e:	cf 93       	push	r28
     270:	c8 2f       	mov	r28, r24

static void arch_nrf24l01p_ce_pin(bool state){
	//if(state) NRF24L01P_CE_PIN_PORT.OUTSET = (1<<NRF24L01P_CE_PIN_BIT) ;
	//else NRF24L01P_CE_PIN_PORT.OUTCLR = (1<<NRF24L01P_CE_PIN_BIT);
	
	if(state) DigitalPin_SetValue(&nrf24l01p_ce_pin) ;
     272:	88 23       	and	r24, r24
     274:	29 f0       	breq	.+10     	; 0x280 <_nrf24l01p_ce_pin+0x12>
     276:	80 e0       	ldi	r24, 0x00	; 0
     278:	90 e2       	ldi	r25, 0x20	; 32
     27a:	0e 94 29 08 	call	0x1052	; 0x1052 <DigitalPin_SetValue>
     27e:	04 c0       	rjmp	.+8      	; 0x288 <_nrf24l01p_ce_pin+0x1a>
	else DigitalPin_ClearValue(&nrf24l01p_ce_pin);
     280:	80 e0       	ldi	r24, 0x00	; 0
     282:	90 e2       	ldi	r25, 0x20	; 32
     284:	0e 94 39 08 	call	0x1072	; 0x1072 <DigitalPin_ClearValue>
	arch_nrf24l01p_ce_pin(state);
	ce_value = state;
     288:	c0 93 c3 24 	sts	0x24C3, r28
}
     28c:	cf 91       	pop	r28
     28e:	08 95       	ret

00000290 <_nrf24l01p_csn_pin>:
void _nrf24l01p_csn_pin(bool state){
     290:	cf 93       	push	r28
     292:	c8 2f       	mov	r28, r24

static void arch_nrf24l01p_csn_pin(bool state){
// 	if(state) NRF24L01P_CSN_PIN_PORT.OUTSET = (1<<NRF24L01P_CSN_PIN_BIT) ;
// 	else NRF24L01P_CSN_PIN_PORT.OUTCLR = (1<<NRF24L01P_CSN_PIN_BIT);

	if(state) DigitalPin_SetValue(&nrf24l01p_csn_pin) ;
     294:	88 23       	and	r24, r24
     296:	29 f0       	breq	.+10     	; 0x2a2 <_nrf24l01p_csn_pin+0x12>
     298:	83 e0       	ldi	r24, 0x03	; 3
     29a:	90 e2       	ldi	r25, 0x20	; 32
     29c:	0e 94 29 08 	call	0x1052	; 0x1052 <DigitalPin_SetValue>
     2a0:	04 c0       	rjmp	.+8      	; 0x2aa <_nrf24l01p_csn_pin+0x1a>
	else DigitalPin_ClearValue(&nrf24l01p_csn_pin);
     2a2:	83 e0       	ldi	r24, 0x03	; 3
     2a4:	90 e2       	ldi	r25, 0x20	; 32
     2a6:	0e 94 39 08 	call	0x1072	; 0x1072 <DigitalPin_ClearValue>

	arch_nrf24l01p_csn_pin(state);
	csn_value = state;
     2aa:	c0 93 c2 24 	sts	0x24C2, r28
}
     2ae:	cf 91       	pop	r28
     2b0:	08 95       	ret

000002b2 <_nrf24l01p_read_register>:
	_nrf24l01p_startup();
	
}


void _nrf24l01p_read_register(uint8_t address, uint8_t *dataout, int len){
     2b2:	ef 92       	push	r14
     2b4:	ff 92       	push	r15
     2b6:	0f 93       	push	r16
     2b8:	1f 93       	push	r17
     2ba:	cf 93       	push	r28
     2bc:	df 93       	push	r29
     2be:	c8 2f       	mov	r28, r24
     2c0:	7b 01       	movw	r14, r22
     2c2:	8a 01       	movw	r16, r20
	_nrf24l01p_csn_pin(0);
     2c4:	80 e0       	ldi	r24, 0x00	; 0
     2c6:	0e 94 48 01 	call	0x290	; 0x290 <_nrf24l01p_csn_pin>
	arch_spi_master_transmit_byte_val(address&(_NRF24L01P_REG_ADDRESS_MASK));
     2ca:	8c 2f       	mov	r24, r28
     2cc:	8f 71       	andi	r24, 0x1F	; 31
     2ce:	0e 94 21 01 	call	0x242	; 0x242 <arch_spi_master_transmit_byte_val>
	for(int i=0;i<len;i++){
     2d2:	10 16       	cp	r1, r16
     2d4:	11 06       	cpc	r1, r17
     2d6:	94 f4       	brge	.+36     	; 0x2fc <_nrf24l01p_read_register+0x4a>
     2d8:	e7 01       	movw	r28, r14
     2da:	0e 0d       	add	r16, r14
     2dc:	1f 1d       	adc	r17, r15
}

static void arch_spi_master_receive_byte_ref(uint8_t *data){
	//transmit dummy byte
	arch_spi_master_transmit_byte_val(0xFF);
	*data = NRF24L01P_SPI.DATA;
     2de:	0f 2e       	mov	r0, r31
     2e0:	f0 ec       	ldi	r31, 0xC0	; 192
     2e2:	ef 2e       	mov	r14, r31
     2e4:	f8 e0       	ldi	r31, 0x08	; 8
     2e6:	ff 2e       	mov	r15, r31
     2e8:	f0 2d       	mov	r31, r0
	return NRF24L01P_SPI.DATA;
}

static void arch_spi_master_receive_byte_ref(uint8_t *data){
	//transmit dummy byte
	arch_spi_master_transmit_byte_val(0xFF);
     2ea:	8f ef       	ldi	r24, 0xFF	; 255
     2ec:	0e 94 21 01 	call	0x242	; 0x242 <arch_spi_master_transmit_byte_val>
	*data = NRF24L01P_SPI.DATA;
     2f0:	f7 01       	movw	r30, r14
     2f2:	83 81       	ldd	r24, Z+3	; 0x03
     2f4:	89 93       	st	Y+, r24
     2f6:	c0 17       	cp	r28, r16
     2f8:	d1 07       	cpc	r29, r17
     2fa:	b9 f7       	brne	.-18     	; 0x2ea <_nrf24l01p_read_register+0x38>
		arch_spi_master_receive_byte_ref(dataout+ i);
	}
	_nrf24l01p_csn_pin(1);
     2fc:	81 e0       	ldi	r24, 0x01	; 1
     2fe:	0e 94 48 01 	call	0x290	; 0x290 <_nrf24l01p_csn_pin>
}
     302:	df 91       	pop	r29
     304:	cf 91       	pop	r28
     306:	1f 91       	pop	r17
     308:	0f 91       	pop	r16
     30a:	ff 90       	pop	r15
     30c:	ef 90       	pop	r14
     30e:	08 95       	ret

00000310 <_nrf24l01p_write_register>:
// 	uint8_t temp =  arch_spi_master_transmit_byte_val(0xff);
// 	_nrf24l01p_csn_pin(1);

// 	return temp;
// }
void _nrf24l01p_write_register(uint8_t address, uint8_t *datain, int len){
     310:	ef 92       	push	r14
     312:	ff 92       	push	r15
     314:	0f 93       	push	r16
     316:	1f 93       	push	r17
     318:	cf 93       	push	r28
     31a:	df 93       	push	r29
     31c:	c8 2f       	mov	r28, r24
     31e:	7b 01       	movw	r14, r22
     320:	8a 01       	movw	r16, r20
	_nrf24l01p_csn_pin(0);
     322:	80 e0       	ldi	r24, 0x00	; 0
     324:	0e 94 48 01 	call	0x290	; 0x290 <_nrf24l01p_csn_pin>
	arch_spi_master_transmit_byte_val(( _NRF24L01P_SPI_CMD_WR_REG | (address&(_NRF24L01P_REG_ADDRESS_MASK))));
     328:	8c 2f       	mov	r24, r28
     32a:	8f 71       	andi	r24, 0x1F	; 31
     32c:	80 62       	ori	r24, 0x20	; 32
     32e:	0e 94 21 01 	call	0x242	; 0x242 <arch_spi_master_transmit_byte_val>
	for(int i=0;i<len;i++){
     332:	10 16       	cp	r1, r16
     334:	11 06       	cpc	r1, r17
     336:	54 f4       	brge	.+20     	; 0x34c <_nrf24l01p_write_register+0x3c>
     338:	e7 01       	movw	r28, r14
     33a:	0e 0d       	add	r16, r14
     33c:	1f 1d       	adc	r17, r15
		arch_spi_master_transmit_byte_ref(datain+i);
     33e:	ce 01       	movw	r24, r28
     340:	0e 94 2b 01 	call	0x256	; 0x256 <arch_spi_master_transmit_byte_ref>
     344:	21 96       	adiw	r28, 0x01	; 1
// 	return temp;
// }
void _nrf24l01p_write_register(uint8_t address, uint8_t *datain, int len){
	_nrf24l01p_csn_pin(0);
	arch_spi_master_transmit_byte_val(( _NRF24L01P_SPI_CMD_WR_REG | (address&(_NRF24L01P_REG_ADDRESS_MASK))));
	for(int i=0;i<len;i++){
     346:	c0 17       	cp	r28, r16
     348:	d1 07       	cpc	r29, r17
     34a:	c9 f7       	brne	.-14     	; 0x33e <_nrf24l01p_write_register+0x2e>
		arch_spi_master_transmit_byte_ref(datain+i);
	}
	_nrf24l01p_csn_pin(1);
     34c:	81 e0       	ldi	r24, 0x01	; 1
     34e:	0e 94 48 01 	call	0x290	; 0x290 <_nrf24l01p_csn_pin>
}
     352:	df 91       	pop	r29
     354:	cf 91       	pop	r28
     356:	1f 91       	pop	r17
     358:	0f 91       	pop	r16
     35a:	ff 90       	pop	r15
     35c:	ef 90       	pop	r14
     35e:	08 95       	ret

00000360 <_nrf24l01p_read_rx_payload>:
// 	arch_spi_master_transmit_byte_val(datain);
// 	_nrf24l01p_csn_pin(1);

// }

void _nrf24l01p_read_rx_payload(uint8_t *dataout, int pay_len){
     360:	ef 92       	push	r14
     362:	ff 92       	push	r15
     364:	0f 93       	push	r16
     366:	1f 93       	push	r17
     368:	cf 93       	push	r28
     36a:	df 93       	push	r29
     36c:	7c 01       	movw	r14, r24
     36e:	8b 01       	movw	r16, r22
	_nrf24l01p_csn_pin(0);
     370:	80 e0       	ldi	r24, 0x00	; 0
     372:	0e 94 48 01 	call	0x290	; 0x290 <_nrf24l01p_csn_pin>
	arch_spi_master_transmit_byte_val(_NRF24L01P_SPI_CMD_RD_RX_PAYLOAD);
     376:	81 e6       	ldi	r24, 0x61	; 97
     378:	0e 94 21 01 	call	0x242	; 0x242 <arch_spi_master_transmit_byte_val>
	for(int i=0;i<pay_len;i++){
     37c:	10 16       	cp	r1, r16
     37e:	11 06       	cpc	r1, r17
     380:	94 f4       	brge	.+36     	; 0x3a6 <_nrf24l01p_read_rx_payload+0x46>
     382:	e7 01       	movw	r28, r14
     384:	0e 0d       	add	r16, r14
     386:	1f 1d       	adc	r17, r15
     388:	0f 2e       	mov	r0, r31
     38a:	f0 ec       	ldi	r31, 0xC0	; 192
     38c:	ef 2e       	mov	r14, r31
     38e:	f8 e0       	ldi	r31, 0x08	; 8
     390:	ff 2e       	mov	r15, r31
     392:	f0 2d       	mov	r31, r0
	return NRF24L01P_SPI.DATA;
}

static void arch_spi_master_receive_byte_ref(uint8_t *data){
	//transmit dummy byte
	arch_spi_master_transmit_byte_val(0xFF);
     394:	8f ef       	ldi	r24, 0xFF	; 255
     396:	0e 94 21 01 	call	0x242	; 0x242 <arch_spi_master_transmit_byte_val>
	*data = NRF24L01P_SPI.DATA;
     39a:	f7 01       	movw	r30, r14
     39c:	93 81       	ldd	r25, Z+3	; 0x03
     39e:	99 93       	st	Y+, r25
     3a0:	c0 17       	cp	r28, r16
     3a2:	d1 07       	cpc	r29, r17
     3a4:	b9 f7       	brne	.-18     	; 0x394 <_nrf24l01p_read_rx_payload+0x34>
		arch_spi_master_receive_byte_ref(dataout+ i);
	}
	_nrf24l01p_csn_pin(1);
     3a6:	81 e0       	ldi	r24, 0x01	; 1
     3a8:	0e 94 48 01 	call	0x290	; 0x290 <_nrf24l01p_csn_pin>
}
     3ac:	df 91       	pop	r29
     3ae:	cf 91       	pop	r28
     3b0:	1f 91       	pop	r17
     3b2:	0f 91       	pop	r16
     3b4:	ff 90       	pop	r15
     3b6:	ef 90       	pop	r14
     3b8:	08 95       	ret

000003ba <_nrf24l01p_flush_rx>:
	_nrf24l01p_csn_pin(0);
	arch_spi_master_transmit_byte_val(_NRF24L01P_SPI_CMD_FLUSH_TX);
	_nrf24l01p_csn_pin(1);
}
void _nrf24l01p_flush_rx(){
	_nrf24l01p_csn_pin(0);
     3ba:	80 e0       	ldi	r24, 0x00	; 0
     3bc:	0e 94 48 01 	call	0x290	; 0x290 <_nrf24l01p_csn_pin>
	arch_spi_master_transmit_byte_val(_NRF24L01P_SPI_CMD_FLUSH_RX);
     3c0:	82 ee       	ldi	r24, 0xE2	; 226
     3c2:	0e 94 21 01 	call	0x242	; 0x242 <arch_spi_master_transmit_byte_val>
	_nrf24l01p_csn_pin(1);
     3c6:	81 e0       	ldi	r24, 0x01	; 1
     3c8:	0e 94 48 01 	call	0x290	; 0x290 <_nrf24l01p_csn_pin>
     3cc:	08 95       	ret

000003ce <_nrf24l01p_read_rx_payload_width>:
void _nrf24l01p_reuse_tx_payload(){
	_nrf24l01p_csn_pin(0);
	arch_spi_master_transmit_byte_val(_NRF24L01P_SPI_CMD_REUSE_TX_PL);
	_nrf24l01p_csn_pin(1);
}
int _nrf24l01p_read_rx_payload_width(){
     3ce:	cf 93       	push	r28
	_nrf24l01p_csn_pin(0);
     3d0:	80 e0       	ldi	r24, 0x00	; 0
     3d2:	0e 94 48 01 	call	0x290	; 0x290 <_nrf24l01p_csn_pin>
	arch_spi_master_transmit_byte_val(_NRF24L01P_SPI_CMD_R_RX_PL_WID);
     3d6:	80 e6       	ldi	r24, 0x60	; 96
     3d8:	0e 94 21 01 	call	0x242	; 0x242 <arch_spi_master_transmit_byte_val>
	uint8_t temp =  arch_spi_master_transmit_byte_val(0xFF);
     3dc:	8f ef       	ldi	r24, 0xFF	; 255
     3de:	0e 94 21 01 	call	0x242	; 0x242 <arch_spi_master_transmit_byte_val>
     3e2:	c8 2f       	mov	r28, r24
	_nrf24l01p_csn_pin(1);
     3e4:	81 e0       	ldi	r24, 0x01	; 1
     3e6:	0e 94 48 01 	call	0x290	; 0x290 <_nrf24l01p_csn_pin>
	return temp;
}
     3ea:	8c 2f       	mov	r24, r28
     3ec:	90 e0       	ldi	r25, 0x00	; 0
     3ee:	cf 91       	pop	r28
     3f0:	08 95       	ret

000003f2 <_nrf24l01p_get_status>:
		arch_spi_master_transmit_byte_ref(datain+i);
	}
	_nrf24l01p_csn_pin(1);
}

int _nrf24l01p_get_status(){
     3f2:	cf 93       	push	r28
	_nrf24l01p_csn_pin(0);
     3f4:	80 e0       	ldi	r24, 0x00	; 0
     3f6:	0e 94 48 01 	call	0x290	; 0x290 <_nrf24l01p_csn_pin>
	int temp = arch_spi_master_transmit_byte_val(_NRF24L01P_SPI_CMD_NOP);
     3fa:	8f ef       	ldi	r24, 0xFF	; 255
     3fc:	0e 94 21 01 	call	0x242	; 0x242 <arch_spi_master_transmit_byte_val>
     400:	c8 2f       	mov	r28, r24
	_nrf24l01p_csn_pin(1);
     402:	81 e0       	ldi	r24, 0x01	; 1
     404:	0e 94 48 01 	call	0x290	; 0x290 <_nrf24l01p_csn_pin>
	
	return temp;
}
     408:	8c 2f       	mov	r24, r28
     40a:	90 e0       	ldi	r25, 0x00	; 0
     40c:	cf 91       	pop	r28
     40e:	08 95       	ret

00000410 <_nrf24l01p_power_up>:

void _nrf24l01p_power_up(){
     410:	cf 93       	push	r28
     412:	df 93       	push	r29
     414:	1f 92       	push	r1
     416:	cd b7       	in	r28, 0x3d	; 61
     418:	de b7       	in	r29, 0x3e	; 62
	uint8_t temp;
	_nrf24l01p_read_register(_NRF24L01P_REG_CONFIG,&temp,sizeof(temp));
     41a:	41 e0       	ldi	r20, 0x01	; 1
     41c:	50 e0       	ldi	r21, 0x00	; 0
     41e:	be 01       	movw	r22, r28
     420:	6f 5f       	subi	r22, 0xFF	; 255
     422:	7f 4f       	sbci	r23, 0xFF	; 255
     424:	80 e0       	ldi	r24, 0x00	; 0
     426:	0e 94 59 01 	call	0x2b2	; 0x2b2 <_nrf24l01p_read_register>
	temp |= _NRF24L01P_CONFIG_PWR_UP;
     42a:	89 81       	ldd	r24, Y+1	; 0x01
     42c:	82 60       	ori	r24, 0x02	; 2
     42e:	89 83       	std	Y+1, r24	; 0x01
	_nrf24l01p_write_register(_NRF24L01P_REG_CONFIG,&temp,sizeof(temp));
     430:	41 e0       	ldi	r20, 0x01	; 1
     432:	50 e0       	ldi	r21, 0x00	; 0
     434:	be 01       	movw	r22, r28
     436:	6f 5f       	subi	r22, 0xFF	; 255
     438:	7f 4f       	sbci	r23, 0xFF	; 255
     43a:	80 e0       	ldi	r24, 0x00	; 0
     43c:	0e 94 88 01 	call	0x310	; 0x310 <_nrf24l01p_write_register>
	#else
		//round up by default
		__ticks_dc = (uint32_t)(ceil(fabs(__tmp)));
	#endif

	__builtin_avr_delay_cycles(__ticks_dc);
     440:	8f e9       	ldi	r24, 0x9F	; 159
     442:	9c e8       	ldi	r25, 0x8C	; 140
     444:	01 97       	sbiw	r24, 0x01	; 1
     446:	f1 f7       	brne	.-4      	; 0x444 <_nrf24l01p_power_up+0x34>
     448:	00 c0       	rjmp	.+0      	; 0x44a <_nrf24l01p_power_up+0x3a>
     44a:	00 00       	nop
	_nrf24l01p_delay_us(_NRF24L01P_TIMING_Tpd2stby_us);
	mode = _NRF24L01P_MODE_STANDBY;
     44c:	82 e0       	ldi	r24, 0x02	; 2
     44e:	80 93 c4 24 	sts	0x24C4, r24
}
     452:	0f 90       	pop	r0
     454:	df 91       	pop	r29
     456:	cf 91       	pop	r28
     458:	08 95       	ret

0000045a <_nrf24l01p_power_down>:
void _nrf24l01p_power_down(){
     45a:	cf 93       	push	r28
     45c:	df 93       	push	r29
     45e:	1f 92       	push	r1
     460:	cd b7       	in	r28, 0x3d	; 61
     462:	de b7       	in	r29, 0x3e	; 62
	uint8_t temp;
	_nrf24l01p_read_register(_NRF24L01P_REG_CONFIG,&temp,sizeof(temp));
     464:	41 e0       	ldi	r20, 0x01	; 1
     466:	50 e0       	ldi	r21, 0x00	; 0
     468:	be 01       	movw	r22, r28
     46a:	6f 5f       	subi	r22, 0xFF	; 255
     46c:	7f 4f       	sbci	r23, 0xFF	; 255
     46e:	80 e0       	ldi	r24, 0x00	; 0
     470:	0e 94 59 01 	call	0x2b2	; 0x2b2 <_nrf24l01p_read_register>
	temp &= ~_NRF24L01P_CONFIG_PWR_UP;
     474:	89 81       	ldd	r24, Y+1	; 0x01
     476:	8d 7f       	andi	r24, 0xFD	; 253
     478:	89 83       	std	Y+1, r24	; 0x01
	_nrf24l01p_write_register(_NRF24L01P_REG_CONFIG,&temp,sizeof(temp));
     47a:	41 e0       	ldi	r20, 0x01	; 1
     47c:	50 e0       	ldi	r21, 0x00	; 0
     47e:	be 01       	movw	r22, r28
     480:	6f 5f       	subi	r22, 0xFF	; 255
     482:	7f 4f       	sbci	r23, 0xFF	; 255
     484:	80 e0       	ldi	r24, 0x00	; 0
     486:	0e 94 88 01 	call	0x310	; 0x310 <_nrf24l01p_write_register>
	mode = _NRF24L01P_MODE_POWER_DOWN;
     48a:	81 e0       	ldi	r24, 0x01	; 1
     48c:	80 93 c4 24 	sts	0x24C4, r24
}
     490:	0f 90       	pop	r0
     492:	df 91       	pop	r29
     494:	cf 91       	pop	r28
     496:	08 95       	ret

00000498 <_nrf24l01p_rx_mode>:
void _nrf24l01p_rx_mode(){
     498:	cf 93       	push	r28
     49a:	df 93       	push	r29
     49c:	1f 92       	push	r1
     49e:	cd b7       	in	r28, 0x3d	; 61
     4a0:	de b7       	in	r29, 0x3e	; 62
	uint8_t temp;
	_nrf24l01p_read_register(_NRF24L01P_REG_CONFIG,&temp,sizeof(temp));
     4a2:	41 e0       	ldi	r20, 0x01	; 1
     4a4:	50 e0       	ldi	r21, 0x00	; 0
     4a6:	be 01       	movw	r22, r28
     4a8:	6f 5f       	subi	r22, 0xFF	; 255
     4aa:	7f 4f       	sbci	r23, 0xFF	; 255
     4ac:	80 e0       	ldi	r24, 0x00	; 0
     4ae:	0e 94 59 01 	call	0x2b2	; 0x2b2 <_nrf24l01p_read_register>
	temp |= _NRF24L01P_CONFIG_PRIM_RX;
     4b2:	89 81       	ldd	r24, Y+1	; 0x01
     4b4:	81 60       	ori	r24, 0x01	; 1
     4b6:	89 83       	std	Y+1, r24	; 0x01
	_nrf24l01p_write_register(_NRF24L01P_REG_CONFIG,&temp,sizeof(temp));
     4b8:	41 e0       	ldi	r20, 0x01	; 1
     4ba:	50 e0       	ldi	r21, 0x00	; 0
     4bc:	be 01       	movw	r22, r28
     4be:	6f 5f       	subi	r22, 0xFF	; 255
     4c0:	7f 4f       	sbci	r23, 0xFF	; 255
     4c2:	80 e0       	ldi	r24, 0x00	; 0
     4c4:	0e 94 88 01 	call	0x310	; 0x310 <_nrf24l01p_write_register>
	mode = _NRF24L01P_MODE_RX;
     4c8:	83 e0       	ldi	r24, 0x03	; 3
     4ca:	80 93 c4 24 	sts	0x24C4, r24
}
     4ce:	0f 90       	pop	r0
     4d0:	df 91       	pop	r29
     4d2:	cf 91       	pop	r28
     4d4:	08 95       	ret

000004d6 <_nrf24l01p_enable_auto_ack>:
	temp &= ~(_NRF24L01P_CONFIG_CRC_MASK);
	temp |= opt;
	_nrf24l01p_write_register(_NRF24L01P_REG_CONFIG,&temp,sizeof(temp));
}

void _nrf24l01p_enable_auto_ack(_nrf24l01p_pipe_t pipe){
     4d6:	1f 93       	push	r17
     4d8:	cf 93       	push	r28
     4da:	df 93       	push	r29
     4dc:	1f 92       	push	r1
     4de:	cd b7       	in	r28, 0x3d	; 61
     4e0:	de b7       	in	r29, 0x3e	; 62
     4e2:	18 2f       	mov	r17, r24
	uint8_t temp;
	_nrf24l01p_read_register(_NRF24L01P_REG_EN_AA,&temp,sizeof(temp));
     4e4:	41 e0       	ldi	r20, 0x01	; 1
     4e6:	50 e0       	ldi	r21, 0x00	; 0
     4e8:	be 01       	movw	r22, r28
     4ea:	6f 5f       	subi	r22, 0xFF	; 255
     4ec:	7f 4f       	sbci	r23, 0xFF	; 255
     4ee:	81 e0       	ldi	r24, 0x01	; 1
     4f0:	0e 94 59 01 	call	0x2b2	; 0x2b2 <_nrf24l01p_read_register>
	set_bit(temp,pipe);
     4f4:	21 e0       	ldi	r18, 0x01	; 1
     4f6:	30 e0       	ldi	r19, 0x00	; 0
     4f8:	c9 01       	movw	r24, r18
     4fa:	02 c0       	rjmp	.+4      	; 0x500 <_nrf24l01p_enable_auto_ack+0x2a>
     4fc:	88 0f       	add	r24, r24
     4fe:	99 1f       	adc	r25, r25
     500:	1a 95       	dec	r17
     502:	e2 f7       	brpl	.-8      	; 0x4fc <_nrf24l01p_enable_auto_ack+0x26>
     504:	99 81       	ldd	r25, Y+1	; 0x01
     506:	89 2b       	or	r24, r25
     508:	89 83       	std	Y+1, r24	; 0x01
	_nrf24l01p_write_register(_NRF24L01P_REG_EN_AA,&temp,sizeof(temp));
     50a:	41 e0       	ldi	r20, 0x01	; 1
     50c:	50 e0       	ldi	r21, 0x00	; 0
     50e:	be 01       	movw	r22, r28
     510:	6f 5f       	subi	r22, 0xFF	; 255
     512:	7f 4f       	sbci	r23, 0xFF	; 255
     514:	81 e0       	ldi	r24, 0x01	; 1
     516:	0e 94 88 01 	call	0x310	; 0x310 <_nrf24l01p_write_register>
}
     51a:	0f 90       	pop	r0
     51c:	df 91       	pop	r29
     51e:	cf 91       	pop	r28
     520:	1f 91       	pop	r17
     522:	08 95       	ret

00000524 <_nrf24l01p_disable_auto_ack_all_pipes>:
	uint8_t temp;
	_nrf24l01p_read_register(_NRF24L01P_REG_EN_AA,&temp,sizeof(temp));
	clr_bit(temp,pipe);
	_nrf24l01p_write_register(_NRF24L01P_REG_EN_AA,&temp,sizeof(temp));
}
void _nrf24l01p_disable_auto_ack_all_pipes(){
     524:	cf 93       	push	r28
     526:	df 93       	push	r29
     528:	1f 92       	push	r1
     52a:	cd b7       	in	r28, 0x3d	; 61
     52c:	de b7       	in	r29, 0x3e	; 62
	uint8_t temp = 0;
     52e:	19 82       	std	Y+1, r1	; 0x01
	_nrf24l01p_write_register(_NRF24L01P_REG_EN_AA,&temp,sizeof(temp));
     530:	41 e0       	ldi	r20, 0x01	; 1
     532:	50 e0       	ldi	r21, 0x00	; 0
     534:	be 01       	movw	r22, r28
     536:	6f 5f       	subi	r22, 0xFF	; 255
     538:	7f 4f       	sbci	r23, 0xFF	; 255
     53a:	81 e0       	ldi	r24, 0x01	; 1
     53c:	0e 94 88 01 	call	0x310	; 0x310 <_nrf24l01p_write_register>
}
     540:	0f 90       	pop	r0
     542:	df 91       	pop	r29
     544:	cf 91       	pop	r28
     546:	08 95       	ret

00000548 <_nrf24l01p_enable_rx_on_pipe>:

void _nrf24l01p_enable_rx_on_pipe(_nrf24l01p_pipe_t pipe){
     548:	1f 93       	push	r17
     54a:	cf 93       	push	r28
     54c:	df 93       	push	r29
     54e:	1f 92       	push	r1
     550:	cd b7       	in	r28, 0x3d	; 61
     552:	de b7       	in	r29, 0x3e	; 62
     554:	18 2f       	mov	r17, r24
	uint8_t temp;
	_nrf24l01p_read_register(_NRF24L01P_REG_EN_RXADDR,&temp,sizeof(temp));
     556:	41 e0       	ldi	r20, 0x01	; 1
     558:	50 e0       	ldi	r21, 0x00	; 0
     55a:	be 01       	movw	r22, r28
     55c:	6f 5f       	subi	r22, 0xFF	; 255
     55e:	7f 4f       	sbci	r23, 0xFF	; 255
     560:	82 e0       	ldi	r24, 0x02	; 2
     562:	0e 94 59 01 	call	0x2b2	; 0x2b2 <_nrf24l01p_read_register>
	set_bit(temp,pipe);
     566:	21 e0       	ldi	r18, 0x01	; 1
     568:	30 e0       	ldi	r19, 0x00	; 0
     56a:	c9 01       	movw	r24, r18
     56c:	02 c0       	rjmp	.+4      	; 0x572 <_nrf24l01p_enable_rx_on_pipe+0x2a>
     56e:	88 0f       	add	r24, r24
     570:	99 1f       	adc	r25, r25
     572:	1a 95       	dec	r17
     574:	e2 f7       	brpl	.-8      	; 0x56e <_nrf24l01p_enable_rx_on_pipe+0x26>
     576:	99 81       	ldd	r25, Y+1	; 0x01
     578:	89 2b       	or	r24, r25
     57a:	89 83       	std	Y+1, r24	; 0x01
	_nrf24l01p_write_register(_NRF24L01P_REG_EN_RXADDR,&temp,sizeof(temp));
     57c:	41 e0       	ldi	r20, 0x01	; 1
     57e:	50 e0       	ldi	r21, 0x00	; 0
     580:	be 01       	movw	r22, r28
     582:	6f 5f       	subi	r22, 0xFF	; 255
     584:	7f 4f       	sbci	r23, 0xFF	; 255
     586:	82 e0       	ldi	r24, 0x02	; 2
     588:	0e 94 88 01 	call	0x310	; 0x310 <_nrf24l01p_write_register>
}
     58c:	0f 90       	pop	r0
     58e:	df 91       	pop	r29
     590:	cf 91       	pop	r28
     592:	1f 91       	pop	r17
     594:	08 95       	ret

00000596 <_nrf24l01p_set_auto_retransmission_delay>:
uint8_t _nrf24l01p_read_auto_retransmission_count(){
	uint8_t temp;
	_nrf24l01p_read_register(_NRF24L01P_REG_SETUP_RETR,&temp,sizeof(temp));
	return temp & 0x0F;
}
void _nrf24l01p_set_auto_retransmission_delay(uint8_t times250us){
     596:	1f 93       	push	r17
     598:	cf 93       	push	r28
     59a:	df 93       	push	r29
     59c:	1f 92       	push	r1
     59e:	cd b7       	in	r28, 0x3d	; 61
     5a0:	de b7       	in	r29, 0x3e	; 62
     5a2:	18 2f       	mov	r17, r24
	uint8_t temp;
	_nrf24l01p_read_register(_NRF24L01P_REG_SETUP_RETR,&temp,sizeof(temp));
     5a4:	41 e0       	ldi	r20, 0x01	; 1
     5a6:	50 e0       	ldi	r21, 0x00	; 0
     5a8:	be 01       	movw	r22, r28
     5aa:	6f 5f       	subi	r22, 0xFF	; 255
     5ac:	7f 4f       	sbci	r23, 0xFF	; 255
     5ae:	84 e0       	ldi	r24, 0x04	; 4
     5b0:	0e 94 59 01 	call	0x2b2	; 0x2b2 <_nrf24l01p_read_register>
	temp &= ~(0xF0);
	temp |= (times250us<<4);
     5b4:	20 e1       	ldi	r18, 0x10	; 16
     5b6:	12 9f       	mul	r17, r18
     5b8:	c0 01       	movw	r24, r0
     5ba:	11 24       	eor	r1, r1
	return temp & 0x0F;
}
void _nrf24l01p_set_auto_retransmission_delay(uint8_t times250us){
	uint8_t temp;
	_nrf24l01p_read_register(_NRF24L01P_REG_SETUP_RETR,&temp,sizeof(temp));
	temp &= ~(0xF0);
     5bc:	99 81       	ldd	r25, Y+1	; 0x01
     5be:	9f 70       	andi	r25, 0x0F	; 15
	temp |= (times250us<<4);
     5c0:	89 2b       	or	r24, r25
     5c2:	89 83       	std	Y+1, r24	; 0x01
	_nrf24l01p_write_register(_NRF24L01P_REG_SETUP_RETR,&temp,sizeof(temp));
     5c4:	41 e0       	ldi	r20, 0x01	; 1
     5c6:	50 e0       	ldi	r21, 0x00	; 0
     5c8:	be 01       	movw	r22, r28
     5ca:	6f 5f       	subi	r22, 0xFF	; 255
     5cc:	7f 4f       	sbci	r23, 0xFF	; 255
     5ce:	84 e0       	ldi	r24, 0x04	; 4
     5d0:	0e 94 88 01 	call	0x310	; 0x310 <_nrf24l01p_write_register>
}
     5d4:	0f 90       	pop	r0
     5d6:	df 91       	pop	r29
     5d8:	cf 91       	pop	r28
     5da:	1f 91       	pop	r17
     5dc:	08 95       	ret

000005de <_nrf24l01p_clear_data_ready_flag>:
	if(_nrf24l01p_get_status()&_NRF24L01P_STATUS_RX_DR)flag = 1  ;
	else flag = 0;
	return flag;
}

void _nrf24l01p_clear_data_ready_flag(){
     5de:	cf 93       	push	r28
     5e0:	df 93       	push	r29
     5e2:	1f 92       	push	r1
     5e4:	cd b7       	in	r28, 0x3d	; 61
     5e6:	de b7       	in	r29, 0x3e	; 62
	uint8_t temp = _nrf24l01p_get_status();
     5e8:	0e 94 f9 01 	call	0x3f2	; 0x3f2 <_nrf24l01p_get_status>
	temp |= _NRF24L01P_STATUS_RX_DR;
     5ec:	80 64       	ori	r24, 0x40	; 64
     5ee:	89 83       	std	Y+1, r24	; 0x01
	_nrf24l01p_write_register(_NRF24L01P_REG_STATUS,&temp,sizeof(temp));
     5f0:	41 e0       	ldi	r20, 0x01	; 1
     5f2:	50 e0       	ldi	r21, 0x00	; 0
     5f4:	be 01       	movw	r22, r28
     5f6:	6f 5f       	subi	r22, 0xFF	; 255
     5f8:	7f 4f       	sbci	r23, 0xFF	; 255
     5fa:	87 e0       	ldi	r24, 0x07	; 7
     5fc:	0e 94 88 01 	call	0x310	; 0x310 <_nrf24l01p_write_register>
}
     600:	0f 90       	pop	r0
     602:	df 91       	pop	r29
     604:	cf 91       	pop	r28
     606:	08 95       	ret

00000608 <_nrf24l01p_set_RX_pipe_address>:
	else flag = 0;
	return flag;
}


void _nrf24l01p_set_RX_pipe_address(_nrf24l01p_pipe_t pipe,uint64_t address){
     608:	2f 92       	push	r2
     60a:	3f 92       	push	r3
     60c:	4f 92       	push	r4
     60e:	5f 92       	push	r5
     610:	6f 92       	push	r6
     612:	7f 92       	push	r7
     614:	8f 92       	push	r8
     616:	9f 92       	push	r9
     618:	af 92       	push	r10
     61a:	bf 92       	push	r11
     61c:	cf 92       	push	r12
     61e:	df 92       	push	r13
     620:	ef 92       	push	r14
     622:	ff 92       	push	r15
     624:	0f 93       	push	r16
     626:	1f 93       	push	r17
     628:	cf 93       	push	r28
     62a:	df 93       	push	r29
     62c:	cd b7       	in	r28, 0x3d	; 61
     62e:	de b7       	in	r29, 0x3e	; 62
     630:	25 97       	sbiw	r28, 0x05	; 5
     632:	cd bf       	out	0x3d, r28	; 61
     634:	de bf       	out	0x3e, r29	; 62
     636:	48 2e       	mov	r4, r24
     638:	b0 2e       	mov	r11, r16
     63a:	a2 2e       	mov	r10, r18
     63c:	93 2e       	mov	r9, r19
     63e:	84 2e       	mov	r8, r20
     640:	75 2e       	mov	r7, r21
     642:	66 2e       	mov	r6, r22
     644:	57 2e       	mov	r5, r23
	int max_pipe_addr_width = 0;
	if(pipe == 0) max_pipe_addr_width = 5;
     646:	21 e0       	ldi	r18, 0x01	; 1
     648:	28 17       	cp	r18, r24
     64a:	98 f5       	brcc	.+102    	; 0x6b2 <_nrf24l01p_set_RX_pipe_address+0xaa>
	else if (pipe == 1) max_pipe_addr_width = 5;
	else if (pipe == 2) max_pipe_addr_width = 1;
     64c:	8e ef       	ldi	r24, 0xFE	; 254
     64e:	84 0d       	add	r24, r4
     650:	83 30       	cpi	r24, 0x03	; 3
     652:	a8 f1       	brcs	.+106    	; 0x6be <_nrf24l01p_set_RX_pipe_address+0xb6>
	else if (pipe == 3) max_pipe_addr_width = 1;
	else if (pipe == 4) max_pipe_addr_width = 1;
	else if (pipe == 5) max_pipe_addr_width = 1;
     654:	91 e0       	ldi	r25, 0x01	; 1
     656:	80 e0       	ldi	r24, 0x00	; 0
     658:	a5 e0       	ldi	r26, 0x05	; 5
     65a:	4a 12       	cpse	r4, r26
     65c:	90 e0       	ldi	r25, 0x00	; 0
}


void _nrf24l01p_set_RX_pipe_address(_nrf24l01p_pipe_t pipe,uint64_t address){
	int max_pipe_addr_width = 0;
	if(pipe == 0) max_pipe_addr_width = 5;
     65e:	c9 2e       	mov	r12, r25
     660:	d8 2e       	mov	r13, r24
	else if (pipe == 4) max_pipe_addr_width = 1;
	else if (pipe == 5) max_pipe_addr_width = 1;
	
	
	uint8_t temp[5];
	for(int i=0;i<max_pipe_addr_width;i++){
     662:	1c 14       	cp	r1, r12
     664:	1d 04       	cpc	r1, r13
     666:	e4 f4       	brge	.+56     	; 0x6a0 <_nrf24l01p_set_RX_pipe_address+0x98>
     668:	ce 01       	movw	r24, r28
     66a:	01 96       	adiw	r24, 0x01	; 1
     66c:	7c 01       	movw	r14, r24
	else flag = 0;
	return flag;
}


void _nrf24l01p_set_RX_pipe_address(_nrf24l01p_pipe_t pipe,uint64_t address){
     66e:	21 2c       	mov	r2, r1
     670:	31 2c       	mov	r3, r1
     672:	e0 e0       	ldi	r30, 0x00	; 0
     674:	f0 e0       	ldi	r31, 0x00	; 0
	else if (pipe == 5) max_pipe_addr_width = 1;
	
	
	uint8_t temp[5];
	for(int i=0;i<max_pipe_addr_width;i++){
		temp[i] = (address>>(8*i))&0xFF;
     676:	2b 2d       	mov	r18, r11
     678:	31 2f       	mov	r19, r17
     67a:	4a 2d       	mov	r20, r10
     67c:	59 2d       	mov	r21, r9
     67e:	68 2d       	mov	r22, r8
     680:	77 2d       	mov	r23, r7
     682:	86 2d       	mov	r24, r6
     684:	95 2d       	mov	r25, r5
     686:	02 2d       	mov	r16, r2
     688:	0e 94 a5 0a 	call	0x154a	; 0x154a <__lshrdi3>
     68c:	d7 01       	movw	r26, r14
     68e:	2d 93       	st	X+, r18
     690:	7d 01       	movw	r14, r26
	else if (pipe == 4) max_pipe_addr_width = 1;
	else if (pipe == 5) max_pipe_addr_width = 1;
	
	
	uint8_t temp[5];
	for(int i=0;i<max_pipe_addr_width;i++){
     692:	31 96       	adiw	r30, 0x01	; 1
     694:	b8 e0       	ldi	r27, 0x08	; 8
     696:	2b 0e       	add	r2, r27
     698:	31 1c       	adc	r3, r1
     69a:	ec 15       	cp	r30, r12
     69c:	fd 05       	cpc	r31, r13
     69e:	5c f3       	brlt	.-42     	; 0x676 <_nrf24l01p_set_RX_pipe_address+0x6e>
		temp[i] = (address>>(8*i))&0xFF;
	}
	_nrf24l01p_write_register(_NRF24L01P_REG_RX_ADDR_P0 + pipe,temp,max_pipe_addr_width);
     6a0:	a6 01       	movw	r20, r12
     6a2:	be 01       	movw	r22, r28
     6a4:	6f 5f       	subi	r22, 0xFF	; 255
     6a6:	7f 4f       	sbci	r23, 0xFF	; 255
     6a8:	8a e0       	ldi	r24, 0x0A	; 10
     6aa:	84 0d       	add	r24, r4
     6ac:	0e 94 88 01 	call	0x310	; 0x310 <_nrf24l01p_write_register>
     6b0:	0a c0       	rjmp	.+20     	; 0x6c6 <_nrf24l01p_set_RX_pipe_address+0xbe>
}


void _nrf24l01p_set_RX_pipe_address(_nrf24l01p_pipe_t pipe,uint64_t address){
	int max_pipe_addr_width = 0;
	if(pipe == 0) max_pipe_addr_width = 5;
     6b2:	0f 2e       	mov	r0, r31
     6b4:	f5 e0       	ldi	r31, 0x05	; 5
     6b6:	cf 2e       	mov	r12, r31
     6b8:	d1 2c       	mov	r13, r1
     6ba:	f0 2d       	mov	r31, r0
     6bc:	d5 cf       	rjmp	.-86     	; 0x668 <_nrf24l01p_set_RX_pipe_address+0x60>
	else if (pipe == 1) max_pipe_addr_width = 5;
	else if (pipe == 2) max_pipe_addr_width = 1;
     6be:	cc 24       	eor	r12, r12
     6c0:	c3 94       	inc	r12
     6c2:	d1 2c       	mov	r13, r1
     6c4:	d1 cf       	rjmp	.-94     	; 0x668 <_nrf24l01p_set_RX_pipe_address+0x60>
	for(int i=0;i<max_pipe_addr_width;i++){
		temp[i] = (address>>(8*i))&0xFF;
	}
	_nrf24l01p_write_register(_NRF24L01P_REG_RX_ADDR_P0 + pipe,temp,max_pipe_addr_width);
	
}
     6c6:	25 96       	adiw	r28, 0x05	; 5
     6c8:	cd bf       	out	0x3d, r28	; 61
     6ca:	de bf       	out	0x3e, r29	; 62
     6cc:	df 91       	pop	r29
     6ce:	cf 91       	pop	r28
     6d0:	1f 91       	pop	r17
     6d2:	0f 91       	pop	r16
     6d4:	ff 90       	pop	r15
     6d6:	ef 90       	pop	r14
     6d8:	df 90       	pop	r13
     6da:	cf 90       	pop	r12
     6dc:	bf 90       	pop	r11
     6de:	af 90       	pop	r10
     6e0:	9f 90       	pop	r9
     6e2:	8f 90       	pop	r8
     6e4:	7f 90       	pop	r7
     6e6:	6f 90       	pop	r6
     6e8:	5f 90       	pop	r5
     6ea:	4f 90       	pop	r4
     6ec:	3f 90       	pop	r3
     6ee:	2f 90       	pop	r2
     6f0:	08 95       	ret

000006f2 <_nrf24l01p_get_RX_pipe_address>:
uint64_t _nrf24l01p_get_RX_pipe_address(_nrf24l01p_pipe_t pipe){
     6f2:	0f 93       	push	r16
     6f4:	1f 93       	push	r17
     6f6:	cf 93       	push	r28
     6f8:	df 93       	push	r29
     6fa:	cd b7       	in	r28, 0x3d	; 61
     6fc:	de b7       	in	r29, 0x3e	; 62
     6fe:	2d 97       	sbiw	r28, 0x0d	; 13
     700:	cd bf       	out	0x3d, r28	; 61
     702:	de bf       	out	0x3e, r29	; 62
	
	int max_pipe_addr_width = 0;
	if(pipe == 0) max_pipe_addr_width = 5;
     704:	82 30       	cpi	r24, 0x02	; 2
     706:	a0 f1       	brcs	.+104    	; 0x770 <_nrf24l01p_get_RX_pipe_address+0x7e>
	else if (pipe == 1) max_pipe_addr_width = 5;
	else if (pipe == 2) max_pipe_addr_width = 1;
     708:	9e ef       	ldi	r25, 0xFE	; 254
     70a:	98 0f       	add	r25, r24
     70c:	93 30       	cpi	r25, 0x03	; 3
     70e:	98 f1       	brcs	.+102    	; 0x776 <_nrf24l01p_get_RX_pipe_address+0x84>
	else if (pipe == 3) max_pipe_addr_width = 1;
	else if (pipe == 4) max_pipe_addr_width = 1;
	else if (pipe == 5) max_pipe_addr_width = 1;
     710:	41 e0       	ldi	r20, 0x01	; 1
     712:	50 e0       	ldi	r21, 0x00	; 0
     714:	85 30       	cpi	r24, 0x05	; 5
     716:	09 f0       	breq	.+2      	; 0x71a <_nrf24l01p_get_RX_pipe_address+0x28>
     718:	40 e0       	ldi	r20, 0x00	; 0
	
}
uint64_t _nrf24l01p_get_RX_pipe_address(_nrf24l01p_pipe_t pipe){
	
	int max_pipe_addr_width = 0;
	if(pipe == 0) max_pipe_addr_width = 5;
     71a:	04 2f       	mov	r16, r20
     71c:	15 2f       	mov	r17, r21
	else if (pipe == 4) max_pipe_addr_width = 1;
	else if (pipe == 5) max_pipe_addr_width = 1;
	
	
	uint8_t temp[5];
	_nrf24l01p_read_register(_NRF24L01P_REG_RX_ADDR_P0 + pipe,temp,max_pipe_addr_width);
     71e:	be 01       	movw	r22, r28
     720:	6f 5f       	subi	r22, 0xFF	; 255
     722:	7f 4f       	sbci	r23, 0xFF	; 255
     724:	86 5f       	subi	r24, 0xF6	; 246
     726:	0e 94 59 01 	call	0x2b2	; 0x2b2 <_nrf24l01p_read_register>
	
	uint64_t temp_addr = 0;
     72a:	1e 82       	std	Y+6, r1	; 0x06
     72c:	1f 82       	std	Y+7, r1	; 0x07
     72e:	18 86       	std	Y+8, r1	; 0x08
     730:	19 86       	std	Y+9, r1	; 0x09
     732:	1a 86       	std	Y+10, r1	; 0x0a
     734:	1b 86       	std	Y+11, r1	; 0x0b
     736:	1c 86       	std	Y+12, r1	; 0x0c
     738:	1d 86       	std	Y+13, r1	; 0x0d
	uint8_t *temp_addr_ptr = (uint8_t*) &temp_addr;
	for(int i=0;i<max_pipe_addr_width;i++){
     73a:	10 16       	cp	r1, r16
     73c:	11 06       	cpc	r1, r17
     73e:	7c f4       	brge	.+30     	; 0x75e <_nrf24l01p_get_RX_pipe_address+0x6c>
     740:	de 01       	movw	r26, r28
     742:	11 96       	adiw	r26, 0x01	; 1
     744:	fe 01       	movw	r30, r28
     746:	36 96       	adiw	r30, 0x06	; 6
		temp[i] = (address>>(8*i))&0xFF;
	}
	_nrf24l01p_write_register(_NRF24L01P_REG_RX_ADDR_P0 + pipe,temp,max_pipe_addr_width);
	
}
uint64_t _nrf24l01p_get_RX_pipe_address(_nrf24l01p_pipe_t pipe){
     748:	20 e0       	ldi	r18, 0x00	; 0
     74a:	30 e0       	ldi	r19, 0x00	; 0
	_nrf24l01p_read_register(_NRF24L01P_REG_RX_ADDR_P0 + pipe,temp,max_pipe_addr_width);
	
	uint64_t temp_addr = 0;
	uint8_t *temp_addr_ptr = (uint8_t*) &temp_addr;
	for(int i=0;i<max_pipe_addr_width;i++){
		*(temp_addr_ptr+i)|= (temp[i]);
     74c:	8d 91       	ld	r24, X+
     74e:	90 81       	ld	r25, Z
     750:	89 2b       	or	r24, r25
     752:	81 93       	st	Z+, r24
	uint8_t temp[5];
	_nrf24l01p_read_register(_NRF24L01P_REG_RX_ADDR_P0 + pipe,temp,max_pipe_addr_width);
	
	uint64_t temp_addr = 0;
	uint8_t *temp_addr_ptr = (uint8_t*) &temp_addr;
	for(int i=0;i<max_pipe_addr_width;i++){
     754:	2f 5f       	subi	r18, 0xFF	; 255
     756:	3f 4f       	sbci	r19, 0xFF	; 255
     758:	20 17       	cp	r18, r16
     75a:	31 07       	cpc	r19, r17
     75c:	bc f3       	brlt	.-18     	; 0x74c <_nrf24l01p_get_RX_pipe_address+0x5a>
		*(temp_addr_ptr+i)|= (temp[i]);
	}
	
	return temp_addr;	
     75e:	2e 81       	ldd	r18, Y+6	; 0x06
     760:	3f 81       	ldd	r19, Y+7	; 0x07
     762:	48 85       	ldd	r20, Y+8	; 0x08
     764:	59 85       	ldd	r21, Y+9	; 0x09
     766:	6a 85       	ldd	r22, Y+10	; 0x0a
     768:	7b 85       	ldd	r23, Y+11	; 0x0b
     76a:	8c 85       	ldd	r24, Y+12	; 0x0c
     76c:	9d 85       	ldd	r25, Y+13	; 0x0d
     76e:	15 c0       	rjmp	.+42     	; 0x79a <_nrf24l01p_get_RX_pipe_address+0xa8>
	
}
uint64_t _nrf24l01p_get_RX_pipe_address(_nrf24l01p_pipe_t pipe){
	
	int max_pipe_addr_width = 0;
	if(pipe == 0) max_pipe_addr_width = 5;
     770:	05 e0       	ldi	r16, 0x05	; 5
     772:	10 e0       	ldi	r17, 0x00	; 0
     774:	02 c0       	rjmp	.+4      	; 0x77a <_nrf24l01p_get_RX_pipe_address+0x88>
	else if (pipe == 1) max_pipe_addr_width = 5;
	else if (pipe == 2) max_pipe_addr_width = 1;
     776:	01 e0       	ldi	r16, 0x01	; 1
     778:	10 e0       	ldi	r17, 0x00	; 0
	else if (pipe == 4) max_pipe_addr_width = 1;
	else if (pipe == 5) max_pipe_addr_width = 1;
	
	
	uint8_t temp[5];
	_nrf24l01p_read_register(_NRF24L01P_REG_RX_ADDR_P0 + pipe,temp,max_pipe_addr_width);
     77a:	a8 01       	movw	r20, r16
     77c:	be 01       	movw	r22, r28
     77e:	6f 5f       	subi	r22, 0xFF	; 255
     780:	7f 4f       	sbci	r23, 0xFF	; 255
     782:	86 5f       	subi	r24, 0xF6	; 246
     784:	0e 94 59 01 	call	0x2b2	; 0x2b2 <_nrf24l01p_read_register>
	
	uint64_t temp_addr = 0;
     788:	1e 82       	std	Y+6, r1	; 0x06
     78a:	1f 82       	std	Y+7, r1	; 0x07
     78c:	18 86       	std	Y+8, r1	; 0x08
     78e:	19 86       	std	Y+9, r1	; 0x09
     790:	1a 86       	std	Y+10, r1	; 0x0a
     792:	1b 86       	std	Y+11, r1	; 0x0b
     794:	1c 86       	std	Y+12, r1	; 0x0c
     796:	1d 86       	std	Y+13, r1	; 0x0d
     798:	d3 cf       	rjmp	.-90     	; 0x740 <_nrf24l01p_get_RX_pipe_address+0x4e>
	for(int i=0;i<max_pipe_addr_width;i++){
		*(temp_addr_ptr+i)|= (temp[i]);
	}
	
	return temp_addr;	
}
     79a:	2d 96       	adiw	r28, 0x0d	; 13
     79c:	cd bf       	out	0x3d, r28	; 61
     79e:	de bf       	out	0x3e, r29	; 62
     7a0:	df 91       	pop	r29
     7a2:	cf 91       	pop	r28
     7a4:	1f 91       	pop	r17
     7a6:	0f 91       	pop	r16
     7a8:	08 95       	ret

000007aa <_nrf24l01p_set_TX_pipe_address>:

void _nrf24l01p_set_TX_pipe_address(uint64_t address){
     7aa:	9f 92       	push	r9
     7ac:	af 92       	push	r10
     7ae:	bf 92       	push	r11
     7b0:	cf 92       	push	r12
     7b2:	df 92       	push	r13
     7b4:	ef 92       	push	r14
     7b6:	ff 92       	push	r15
     7b8:	0f 93       	push	r16
     7ba:	1f 93       	push	r17
     7bc:	cf 93       	push	r28
     7be:	df 93       	push	r29
     7c0:	cd b7       	in	r28, 0x3d	; 61
     7c2:	de b7       	in	r29, 0x3e	; 62
     7c4:	25 97       	sbiw	r28, 0x05	; 5
     7c6:	cd bf       	out	0x3d, r28	; 61
     7c8:	de bf       	out	0x3e, r29	; 62
     7ca:	92 2e       	mov	r9, r18
     7cc:	a3 2e       	mov	r10, r19
     7ce:	b4 2e       	mov	r11, r20
     7d0:	c5 2e       	mov	r12, r21
     7d2:	d6 2e       	mov	r13, r22
     7d4:	e7 2e       	mov	r14, r23
     7d6:	f8 2e       	mov	r15, r24
     7d8:	19 2f       	mov	r17, r25
     7da:	de 01       	movw	r26, r28
     7dc:	11 96       	adiw	r26, 0x01	; 1
     7de:	e0 e0       	ldi	r30, 0x00	; 0
     7e0:	f0 e0       	ldi	r31, 0x00	; 0
	uint8_t temp[5];
	
	for(int i=0;i<5;i++){
		temp[i] = (address>>(8*i))&0xFF;
     7e2:	29 2d       	mov	r18, r9
     7e4:	3a 2d       	mov	r19, r10
     7e6:	4b 2d       	mov	r20, r11
     7e8:	5c 2d       	mov	r21, r12
     7ea:	6d 2d       	mov	r22, r13
     7ec:	7e 2d       	mov	r23, r14
     7ee:	8f 2d       	mov	r24, r15
     7f0:	91 2f       	mov	r25, r17
     7f2:	0e 2f       	mov	r16, r30
     7f4:	0e 94 a5 0a 	call	0x154a	; 0x154a <__lshrdi3>
     7f8:	2d 93       	st	X+, r18
     7fa:	38 96       	adiw	r30, 0x08	; 8
}

void _nrf24l01p_set_TX_pipe_address(uint64_t address){
	uint8_t temp[5];
	
	for(int i=0;i<5;i++){
     7fc:	e8 32       	cpi	r30, 0x28	; 40
     7fe:	f1 05       	cpc	r31, r1
     800:	81 f7       	brne	.-32     	; 0x7e2 <_nrf24l01p_set_TX_pipe_address+0x38>
		temp[i] = (address>>(8*i))&0xFF;
	}
	_nrf24l01p_write_register(_NRF24L01P_REG_TX_ADDR,temp,5);
     802:	45 e0       	ldi	r20, 0x05	; 5
     804:	50 e0       	ldi	r21, 0x00	; 0
     806:	be 01       	movw	r22, r28
     808:	6f 5f       	subi	r22, 0xFF	; 255
     80a:	7f 4f       	sbci	r23, 0xFF	; 255
     80c:	80 e1       	ldi	r24, 0x10	; 16
     80e:	0e 94 88 01 	call	0x310	; 0x310 <_nrf24l01p_write_register>
}
     812:	25 96       	adiw	r28, 0x05	; 5
     814:	cd bf       	out	0x3d, r28	; 61
     816:	de bf       	out	0x3e, r29	; 62
     818:	df 91       	pop	r29
     81a:	cf 91       	pop	r28
     81c:	1f 91       	pop	r17
     81e:	0f 91       	pop	r16
     820:	ff 90       	pop	r15
     822:	ef 90       	pop	r14
     824:	df 90       	pop	r13
     826:	cf 90       	pop	r12
     828:	bf 90       	pop	r11
     82a:	af 90       	pop	r10
     82c:	9f 90       	pop	r9
     82e:	08 95       	ret

00000830 <_nrf24l01p_get_fifo_flag_rx_empty>:
uint8_t _nrf24l01p_get_RX_pipe_width(_nrf24l01p_pipe_t pipe){
	uint8_t temp;
	_nrf24l01p_read_register((_NRF24L01P_REG_RX_PW_P0+pipe),&temp,sizeof(temp));
	return (temp&(0x3F));
}
bool _nrf24l01p_get_fifo_flag_rx_empty(){
     830:	cf 93       	push	r28
     832:	df 93       	push	r29
     834:	1f 92       	push	r1
     836:	cd b7       	in	r28, 0x3d	; 61
     838:	de b7       	in	r29, 0x3e	; 62
	uint8_t temp;
	bool flag;
	_nrf24l01p_read_register(_NRF24L01P_REG_FIFO_STATUS,&temp,sizeof(temp));
     83a:	41 e0       	ldi	r20, 0x01	; 1
     83c:	50 e0       	ldi	r21, 0x00	; 0
     83e:	be 01       	movw	r22, r28
     840:	6f 5f       	subi	r22, 0xFF	; 255
     842:	7f 4f       	sbci	r23, 0xFF	; 255
     844:	87 e1       	ldi	r24, 0x17	; 23
     846:	0e 94 59 01 	call	0x2b2	; 0x2b2 <_nrf24l01p_read_register>
	if(temp&_NRF24L01P_FIFO_STATUS_RX_EMPTY) flag = 1 ;
     84a:	89 81       	ldd	r24, Y+1	; 0x01
	else flag = 0;
	return flag;
	
}
     84c:	81 70       	andi	r24, 0x01	; 1
     84e:	0f 90       	pop	r0
     850:	df 91       	pop	r29
     852:	cf 91       	pop	r28
     854:	08 95       	ret

00000856 <_nrf24l01p_enable_dynamic_payload_pipe>:
	if(temp&_NRF24L01P_FIFO_STATUS_RX_REUSE) flag = 1 ;
	else flag = 0;
	return flag;
}

void _nrf24l01p_enable_dynamic_payload_pipe(_nrf24l01p_pipe_t pipe){
     856:	1f 93       	push	r17
     858:	cf 93       	push	r28
     85a:	df 93       	push	r29
     85c:	1f 92       	push	r1
     85e:	cd b7       	in	r28, 0x3d	; 61
     860:	de b7       	in	r29, 0x3e	; 62
     862:	18 2f       	mov	r17, r24
	uint8_t temp;
	_nrf24l01p_read_register(_NRF24L01P_REG_DYNPD,&temp,sizeof(temp));
     864:	41 e0       	ldi	r20, 0x01	; 1
     866:	50 e0       	ldi	r21, 0x00	; 0
     868:	be 01       	movw	r22, r28
     86a:	6f 5f       	subi	r22, 0xFF	; 255
     86c:	7f 4f       	sbci	r23, 0xFF	; 255
     86e:	8c e1       	ldi	r24, 0x1C	; 28
     870:	0e 94 59 01 	call	0x2b2	; 0x2b2 <_nrf24l01p_read_register>
	temp |= (1<<pipe);
     874:	21 e0       	ldi	r18, 0x01	; 1
     876:	30 e0       	ldi	r19, 0x00	; 0
     878:	c9 01       	movw	r24, r18
     87a:	02 c0       	rjmp	.+4      	; 0x880 <_nrf24l01p_enable_dynamic_payload_pipe+0x2a>
     87c:	88 0f       	add	r24, r24
     87e:	99 1f       	adc	r25, r25
     880:	1a 95       	dec	r17
     882:	e2 f7       	brpl	.-8      	; 0x87c <_nrf24l01p_enable_dynamic_payload_pipe+0x26>
     884:	99 81       	ldd	r25, Y+1	; 0x01
     886:	89 2b       	or	r24, r25
     888:	89 83       	std	Y+1, r24	; 0x01
	_nrf24l01p_write_register(_NRF24L01P_REG_DYNPD,&temp,sizeof(temp));
     88a:	41 e0       	ldi	r20, 0x01	; 1
     88c:	50 e0       	ldi	r21, 0x00	; 0
     88e:	be 01       	movw	r22, r28
     890:	6f 5f       	subi	r22, 0xFF	; 255
     892:	7f 4f       	sbci	r23, 0xFF	; 255
     894:	8c e1       	ldi	r24, 0x1C	; 28
     896:	0e 94 88 01 	call	0x310	; 0x310 <_nrf24l01p_write_register>
}
     89a:	0f 90       	pop	r0
     89c:	df 91       	pop	r29
     89e:	cf 91       	pop	r28
     8a0:	1f 91       	pop	r17
     8a2:	08 95       	ret

000008a4 <_nrf24l01p_disable_dynamic_payload_all_pipe>:
	uint8_t temp;
	_nrf24l01p_read_register(_NRF24L01P_REG_DYNPD,&temp,sizeof(temp));
	temp &= ~(1<<pipe);
	_nrf24l01p_write_register(_NRF24L01P_REG_DYNPD,&temp,sizeof(temp));
}
void _nrf24l01p_disable_dynamic_payload_all_pipe(){
     8a4:	cf 93       	push	r28
     8a6:	df 93       	push	r29
     8a8:	1f 92       	push	r1
     8aa:	cd b7       	in	r28, 0x3d	; 61
     8ac:	de b7       	in	r29, 0x3e	; 62
	uint8_t temp = 0x00;
     8ae:	19 82       	std	Y+1, r1	; 0x01
	_nrf24l01p_write_register(_NRF24L01P_REG_DYNPD,&temp,sizeof(temp));	
     8b0:	41 e0       	ldi	r20, 0x01	; 1
     8b2:	50 e0       	ldi	r21, 0x00	; 0
     8b4:	be 01       	movw	r22, r28
     8b6:	6f 5f       	subi	r22, 0xFF	; 255
     8b8:	7f 4f       	sbci	r23, 0xFF	; 255
     8ba:	8c e1       	ldi	r24, 0x1C	; 28
     8bc:	0e 94 88 01 	call	0x310	; 0x310 <_nrf24l01p_write_register>
}
     8c0:	0f 90       	pop	r0
     8c2:	df 91       	pop	r29
     8c4:	cf 91       	pop	r28
     8c6:	08 95       	ret

000008c8 <_nrf24l01p_enable_dynamic_payload>:
void _nrf24l01p_enable_dynamic_payload(){
     8c8:	cf 93       	push	r28
     8ca:	df 93       	push	r29
     8cc:	1f 92       	push	r1
     8ce:	cd b7       	in	r28, 0x3d	; 61
     8d0:	de b7       	in	r29, 0x3e	; 62
	uint8_t temp;
	_nrf24l01p_read_register(_NRF24L01P_REG_FEATURE,&temp,sizeof(temp));
     8d2:	41 e0       	ldi	r20, 0x01	; 1
     8d4:	50 e0       	ldi	r21, 0x00	; 0
     8d6:	be 01       	movw	r22, r28
     8d8:	6f 5f       	subi	r22, 0xFF	; 255
     8da:	7f 4f       	sbci	r23, 0xFF	; 255
     8dc:	8d e1       	ldi	r24, 0x1D	; 29
     8de:	0e 94 59 01 	call	0x2b2	; 0x2b2 <_nrf24l01p_read_register>
	temp |= _NRF24L01_FEATURE_EN_DPL;
     8e2:	89 81       	ldd	r24, Y+1	; 0x01
     8e4:	84 60       	ori	r24, 0x04	; 4
     8e6:	89 83       	std	Y+1, r24	; 0x01
	_nrf24l01p_write_register(_NRF24L01P_REG_FEATURE,&temp,sizeof(temp));
     8e8:	41 e0       	ldi	r20, 0x01	; 1
     8ea:	50 e0       	ldi	r21, 0x00	; 0
     8ec:	be 01       	movw	r22, r28
     8ee:	6f 5f       	subi	r22, 0xFF	; 255
     8f0:	7f 4f       	sbci	r23, 0xFF	; 255
     8f2:	8d e1       	ldi	r24, 0x1D	; 29
     8f4:	0e 94 88 01 	call	0x310	; 0x310 <_nrf24l01p_write_register>
}
     8f8:	0f 90       	pop	r0
     8fa:	df 91       	pop	r29
     8fc:	cf 91       	pop	r28
     8fe:	08 95       	ret

00000900 <_nrf24l01p_enable_payload_with_ack>:
	uint8_t temp;
	_nrf24l01p_read_register(_NRF24L01P_REG_FEATURE,&temp,sizeof(temp));
	temp &= ~_NRF24L01_FEATURE_EN_DPL;
	_nrf24l01p_write_register(_NRF24L01P_REG_FEATURE,&temp,sizeof(temp));
}
void _nrf24l01p_enable_payload_with_ack(){
     900:	cf 93       	push	r28
     902:	df 93       	push	r29
     904:	1f 92       	push	r1
     906:	cd b7       	in	r28, 0x3d	; 61
     908:	de b7       	in	r29, 0x3e	; 62
	uint8_t temp;
	_nrf24l01p_read_register(_NRF24L01P_REG_FEATURE,&temp,sizeof(temp));
     90a:	41 e0       	ldi	r20, 0x01	; 1
     90c:	50 e0       	ldi	r21, 0x00	; 0
     90e:	be 01       	movw	r22, r28
     910:	6f 5f       	subi	r22, 0xFF	; 255
     912:	7f 4f       	sbci	r23, 0xFF	; 255
     914:	8d e1       	ldi	r24, 0x1D	; 29
     916:	0e 94 59 01 	call	0x2b2	; 0x2b2 <_nrf24l01p_read_register>
	temp |= _NRF24L01_FEATURE_EN_ACK_PAY;
     91a:	89 81       	ldd	r24, Y+1	; 0x01
     91c:	82 60       	ori	r24, 0x02	; 2
     91e:	89 83       	std	Y+1, r24	; 0x01
	_nrf24l01p_write_register(_NRF24L01P_REG_FEATURE,&temp,sizeof(temp));
     920:	41 e0       	ldi	r20, 0x01	; 1
     922:	50 e0       	ldi	r21, 0x00	; 0
     924:	be 01       	movw	r22, r28
     926:	6f 5f       	subi	r22, 0xFF	; 255
     928:	7f 4f       	sbci	r23, 0xFF	; 255
     92a:	8d e1       	ldi	r24, 0x1D	; 29
     92c:	0e 94 88 01 	call	0x310	; 0x310 <_nrf24l01p_write_register>
}
     930:	0f 90       	pop	r0
     932:	df 91       	pop	r29
     934:	cf 91       	pop	r28
     936:	08 95       	ret

00000938 <_nrf24l01p_startup>:
// 	printf("fifo status : %x\r\n",read_register(_NRF24L01P_REG_FIFO_STATUS));
}


//////////////////////////////////////////////////////////////////////////
void _nrf24l01p_startup(){
     938:	cf 93       	push	r28
     93a:	df 93       	push	r29
     93c:	1f 92       	push	r1
     93e:	cd b7       	in	r28, 0x3d	; 61
     940:	de b7       	in	r29, 0x3e	; 62
	#define TRANSFER_SIZE 1
	//nrf24l01p_write_rf_setup(0b00000111);
	uint8_t temp = 0b00000111;
     942:	87 e0       	ldi	r24, 0x07	; 7
     944:	89 83       	std	Y+1, r24	; 0x01
	_nrf24l01p_write_register(_NRF24L01P_REG_RF_SETUP,&temp, sizeof(temp));
     946:	41 e0       	ldi	r20, 0x01	; 1
     948:	50 e0       	ldi	r21, 0x00	; 0
     94a:	be 01       	movw	r22, r28
     94c:	6f 5f       	subi	r22, 0xFF	; 255
     94e:	7f 4f       	sbci	r23, 0xFF	; 255
     950:	86 e0       	ldi	r24, 0x06	; 6
     952:	0e 94 88 01 	call	0x310	; 0x310 <_nrf24l01p_write_register>
	//
	// 	nrf24l01p_write_en_aa(0);
	temp = 0;
     956:	19 82       	std	Y+1, r1	; 0x01
	_nrf24l01p_write_register(_NRF24L01P_REG_EN_AA,&temp,sizeof(uint8_t));
     958:	41 e0       	ldi	r20, 0x01	; 1
     95a:	50 e0       	ldi	r21, 0x00	; 0
     95c:	be 01       	movw	r22, r28
     95e:	6f 5f       	subi	r22, 0xFF	; 255
     960:	7f 4f       	sbci	r23, 0xFF	; 255
     962:	81 e0       	ldi	r24, 0x01	; 1
     964:	0e 94 88 01 	call	0x310	; 0x310 <_nrf24l01p_write_register>
	//
	// 	nrf24l01p_write_rx_pw(0, TRANSFER_SIZE);
	temp = TRANSFER_SIZE;
     968:	81 e0       	ldi	r24, 0x01	; 1
     96a:	89 83       	std	Y+1, r24	; 0x01
	_nrf24l01p_write_register(_NRF24L01P_REG_RF_SETUP,&temp, sizeof(temp));
     96c:	41 e0       	ldi	r20, 0x01	; 1
     96e:	50 e0       	ldi	r21, 0x00	; 0
     970:	be 01       	movw	r22, r28
     972:	6f 5f       	subi	r22, 0xFF	; 255
     974:	7f 4f       	sbci	r23, 0xFF	; 255
     976:	86 e0       	ldi	r24, 0x06	; 6
     978:	0e 94 88 01 	call	0x310	; 0x310 <_nrf24l01p_write_register>
	_nrf24l01p_power_up();
     97c:	0e 94 08 02 	call	0x410	; 0x410 <_nrf24l01p_power_up>
     980:	8f e9       	ldi	r24, 0x9F	; 159
     982:	9c e8       	ldi	r25, 0x8C	; 140
     984:	01 97       	sbiw	r24, 0x01	; 1
     986:	f1 f7       	brne	.-4      	; 0x984 <_nrf24l01p_startup+0x4c>
     988:	00 c0       	rjmp	.+0      	; 0x98a <_nrf24l01p_startup+0x52>
     98a:	00 00       	nop
	_nrf24l01p_delay_us(_NRF24L01P_TIMING_Tpd2stby_us);
	//
	_nrf24l01p_rx_mode();
     98c:	0e 94 4c 02 	call	0x498	; 0x498 <_nrf24l01p_rx_mode>
	_nrf24l01p_ce_pin(1);
     990:	81 e0       	ldi	r24, 0x01	; 1
     992:	0e 94 37 01 	call	0x26e	; 0x26e <_nrf24l01p_ce_pin>

}
     996:	0f 90       	pop	r0
     998:	df 91       	pop	r29
     99a:	cf 91       	pop	r28
     99c:	08 95       	ret

0000099e <_nrf24l01p_init>:

	arch_nrf24l01p_csn_pin(state);
	csn_value = state;
}

void _nrf24l01p_init(){
     99e:	cf 93       	push	r28
     9a0:	df 93       	push	r29
     9a2:	1f 92       	push	r1
     9a4:	1f 92       	push	r1
     9a6:	cd b7       	in	r28, 0x3d	; 61
     9a8:	de b7       	in	r29, 0x3e	; 62
	if(state) DigitalPin_SetValue(&nrf24l01p_csn_pin) ;
	else DigitalPin_ClearValue(&nrf24l01p_csn_pin);
}

static void arch_nrf24l01p_initialize(){
	NRF24L01P_SPI_PORT.DIRSET = (1<<5) | (1<<4) | (1<<7);
     9aa:	e0 e4       	ldi	r30, 0x40	; 64
     9ac:	f6 e0       	ldi	r31, 0x06	; 6
     9ae:	80 eb       	ldi	r24, 0xB0	; 176
     9b0:	81 83       	std	Z+1, r24	; 0x01
	NRF24L01P_SPI.CTRL = (1<<SPI_ENABLE_bp) | (1<<SPI_MASTER_bp);
     9b2:	80 e5       	ldi	r24, 0x50	; 80
     9b4:	80 93 c0 08 	sts	0x08C0, r24
	NRF24L01P_CSN_PIN_PORT.DIRSET = (1<<NRF24L01P_CSN_PIN_BIT);
     9b8:	80 e1       	ldi	r24, 0x10	; 16
     9ba:	81 83       	std	Z+1, r24	; 0x01
	NRF24L01P_CE_PIN_PORT.DIRSET = (1<<NRF24L01P_CE_PIN_BIT);
     9bc:	82 e0       	ldi	r24, 0x02	; 2
     9be:	81 83       	std	Z+1, r24	; 0x01
	arch_nrf24l01p_initialize();
	
	_nrf24l01p_ce_pin(0);
     9c0:	80 e0       	ldi	r24, 0x00	; 0
     9c2:	0e 94 37 01 	call	0x26e	; 0x26e <_nrf24l01p_ce_pin>
	_nrf24l01p_csn_pin(1);
     9c6:	81 e0       	ldi	r24, 0x01	; 1
     9c8:	0e 94 48 01 	call	0x290	; 0x290 <_nrf24l01p_csn_pin>
	
	
	_nrf24l01p_flush_rx();
     9cc:	0e 94 dd 01 	call	0x3ba	; 0x3ba <_nrf24l01p_flush_rx>
	_nrf24l01p_power_down();
     9d0:	0e 94 2d 02 	call	0x45a	; 0x45a <_nrf24l01p_power_down>
	uint8_t status_rst_val = 0x0e;//reset status
     9d4:	8e e0       	ldi	r24, 0x0E	; 14
     9d6:	89 83       	std	Y+1, r24	; 0x01
	_nrf24l01p_write_register(_NRF24L01P_REG_STATUS, &status_rst_val,1);
     9d8:	41 e0       	ldi	r20, 0x01	; 1
     9da:	50 e0       	ldi	r21, 0x00	; 0
     9dc:	be 01       	movw	r22, r28
     9de:	6f 5f       	subi	r22, 0xFF	; 255
     9e0:	7f 4f       	sbci	r23, 0xFF	; 255
     9e2:	87 e0       	ldi	r24, 0x07	; 7
     9e4:	0e 94 88 01 	call	0x310	; 0x310 <_nrf24l01p_write_register>
	uint8_t config_rst_val = 0x0b;//reset config
     9e8:	8b e0       	ldi	r24, 0x0B	; 11
     9ea:	8a 83       	std	Y+2, r24	; 0x02
	_nrf24l01p_write_register(_NRF24L01P_REG_CONFIG, &config_rst_val,1);
     9ec:	41 e0       	ldi	r20, 0x01	; 1
     9ee:	50 e0       	ldi	r21, 0x00	; 0
     9f0:	be 01       	movw	r22, r28
     9f2:	6e 5f       	subi	r22, 0xFE	; 254
     9f4:	7f 4f       	sbci	r23, 0xFF	; 255
     9f6:	80 e0       	ldi	r24, 0x00	; 0
     9f8:	0e 94 88 01 	call	0x310	; 0x310 <_nrf24l01p_write_register>
	_nrf24l01p_disable_auto_ack_all_pipes();
     9fc:	0e 94 92 02 	call	0x524	; 0x524 <_nrf24l01p_disable_auto_ack_all_pipes>
	_nrf24l01p_disable_dynamic_payload_all_pipe();/////////ALSO CREEATE FOR DISABLE AUTO ACK FOR ALL PIPE
     a00:	0e 94 52 04 	call	0x8a4	; 0x8a4 <_nrf24l01p_disable_dynamic_payload_all_pipe>
	_nrf24l01p_startup();
     a04:	0e 94 9c 04 	call	0x938	; 0x938 <_nrf24l01p_startup>
	
}
     a08:	0f 90       	pop	r0
     a0a:	0f 90       	pop	r0
     a0c:	df 91       	pop	r29
     a0e:	cf 91       	pop	r28
     a10:	08 95       	ret

00000a12 <_nrf24l01p_readable>:
	_nrf24l01p_ce_pin(1);

}


bool _nrf24l01p_readable(_nrf24l01p_pipe_t pipe){
     a12:	cf 93       	push	r28
	bool flag = 0;
	if((pipe >=0)   && (pipe <=5)){
     a14:	86 30       	cpi	r24, 0x06	; 6
     a16:	b0 f4       	brcc	.+44     	; 0xa44 <_nrf24l01p_readable+0x32>
     a18:	c8 2f       	mov	r28, r24
		//flag = (_nrf24l01p_get_data_ready_flag()/* && (_nrf24l01p_get_rx_payload_pipe() == pipe)*/ );
		//OCD.OCDR0 = (_nrf24l01p_get_rx_payload_pipe());
		int status = _nrf24l01p_get_status();
     a1a:	0e 94 f9 01 	call	0x3f2	; 0x3f2 <_nrf24l01p_get_status>
		//OCD.OCDR0 = status;
		
		if(   (status&_NRF24L01P_STATUS_RX_DR)  && ((status&_NRF24L01P_STATUS_RX_P_NO)>>1)==pipe){
     a1e:	86 ff       	sbrs	r24, 6
     a20:	13 c0       	rjmp	.+38     	; 0xa48 <_nrf24l01p_readable+0x36>
     a22:	ac 01       	movw	r20, r24
     a24:	4e 70       	andi	r20, 0x0E	; 14
     a26:	55 27       	eor	r21, r21
     a28:	55 95       	asr	r21
     a2a:	47 95       	ror	r20
     a2c:	2c 2f       	mov	r18, r28
     a2e:	30 e0       	ldi	r19, 0x00	; 0
     a30:	42 17       	cp	r20, r18
     a32:	53 07       	cpc	r21, r19
     a34:	59 f4       	brne	.+22     	; 0xa4c <_nrf24l01p_readable+0x3a>
			flag = 1;
			OCD.OCDR0 = (status&0x0F)>>1;
     a36:	8f 70       	andi	r24, 0x0F	; 15
     a38:	99 27       	eor	r25, r25
     a3a:	95 95       	asr	r25
     a3c:	87 95       	ror	r24
     a3e:	8e bd       	out	0x2e, r24	; 46
		//OCD.OCDR0 = (_nrf24l01p_get_rx_payload_pipe());
		int status = _nrf24l01p_get_status();
		//OCD.OCDR0 = status;
		
		if(   (status&_NRF24L01P_STATUS_RX_DR)  && ((status&_NRF24L01P_STATUS_RX_P_NO)>>1)==pipe){
			flag = 1;
     a40:	81 e0       	ldi	r24, 0x01	; 1
			OCD.OCDR0 = (status&0x0F)>>1;
     a42:	05 c0       	rjmp	.+10     	; 0xa4e <_nrf24l01p_readable+0x3c>

}


bool _nrf24l01p_readable(_nrf24l01p_pipe_t pipe){
	bool flag = 0;
     a44:	80 e0       	ldi	r24, 0x00	; 0
     a46:	03 c0       	rjmp	.+6      	; 0xa4e <_nrf24l01p_readable+0x3c>
			flag = 1;
			OCD.OCDR0 = (status&0x0F)>>1;
			
		}
		else{
			flag = 0;
     a48:	80 e0       	ldi	r24, 0x00	; 0
     a4a:	01 c0       	rjmp	.+2      	; 0xa4e <_nrf24l01p_readable+0x3c>
     a4c:	80 e0       	ldi	r24, 0x00	; 0
// 
// 		return flag;
		
	}
	return flag;
}
     a4e:	cf 91       	pop	r28
     a50:	08 95       	ret

00000a52 <_nrf24l01p_read_dyn_pld>:
	else {//if pipe not readable
		return 0;
	}
	return 0;
}
int _nrf24l01p_read_dyn_pld(_nrf24l01p_pipe_t pipe, uint8_t *data){
     a52:	0f 93       	push	r16
     a54:	1f 93       	push	r17
     a56:	cf 93       	push	r28
     a58:	df 93       	push	r29
	if ( ( pipe < 0 ) || ( pipe > 5 ) ) {
     a5a:	86 30       	cpi	r24, 0x06	; 6
     a5c:	f0 f4       	brcc	.+60     	; 0xa9a <_nrf24l01p_read_dyn_pld+0x48>
     a5e:	eb 01       	movw	r28, r22
		return -1;
	}
	//int x;
	if (_nrf24l01p_readable(pipe) ) {
     a60:	0e 94 09 05 	call	0xa12	; 0xa12 <_nrf24l01p_readable>
     a64:	88 23       	and	r24, r24
     a66:	e1 f0       	breq	.+56     	; 0xaa0 <_nrf24l01p_read_dyn_pld+0x4e>
		asm("nop");
     a68:	00 00       	nop
		int rxPayloadWidth = _nrf24l01p_read_rx_payload_width();
     a6a:	0e 94 e7 01 	call	0x3ce	; 0x3ce <_nrf24l01p_read_rx_payload_width>
     a6e:	8c 01       	movw	r16, r24
		if ( ( rxPayloadWidth < 0 ) || ( rxPayloadWidth > _NRF24L01P_RX_FIFO_SIZE ) ) {
     a70:	81 32       	cpi	r24, 0x21	; 33
     a72:	91 05       	cpc	r25, r1
     a74:	28 f0       	brcs	.+10     	; 0xa80 <_nrf24l01p_read_dyn_pld+0x2e>
			_nrf24l01p_flush_rx();
     a76:	0e 94 dd 01 	call	0x3ba	; 0x3ba <_nrf24l01p_flush_rx>
	}
	}
	else {//if pipe not readable
		return 0;
	}
	return 0;
     a7a:	80 e0       	ldi	r24, 0x00	; 0
     a7c:	90 e0       	ldi	r25, 0x00	; 0
     a7e:	15 c0       	rjmp	.+42     	; 0xaaa <_nrf24l01p_read_dyn_pld+0x58>
		int rxPayloadWidth = _nrf24l01p_read_rx_payload_width();
		if ( ( rxPayloadWidth < 0 ) || ( rxPayloadWidth > _NRF24L01P_RX_FIFO_SIZE ) ) {
			_nrf24l01p_flush_rx();
		}
	else {
		_nrf24l01p_read_rx_payload(data,rxPayloadWidth);
     a80:	bc 01       	movw	r22, r24
     a82:	ce 01       	movw	r24, r28
     a84:	0e 94 b0 01 	call	0x360	; 0x360 <_nrf24l01p_read_rx_payload>
		if(_nrf24l01p_get_fifo_flag_rx_empty()) {
     a88:	0e 94 18 04 	call	0x830	; 0x830 <_nrf24l01p_get_fifo_flag_rx_empty>
     a8c:	88 23       	and	r24, r24
     a8e:	59 f0       	breq	.+22     	; 0xaa6 <_nrf24l01p_read_dyn_pld+0x54>
			_nrf24l01p_clear_data_ready_flag();
     a90:	0e 94 ef 02 	call	0x5de	; 0x5de <_nrf24l01p_clear_data_ready_flag>
		}
		return rxPayloadWidth;
     a94:	80 2f       	mov	r24, r16
     a96:	91 2f       	mov	r25, r17
     a98:	08 c0       	rjmp	.+16     	; 0xaaa <_nrf24l01p_read_dyn_pld+0x58>
	}
	return 0;
}
int _nrf24l01p_read_dyn_pld(_nrf24l01p_pipe_t pipe, uint8_t *data){
	if ( ( pipe < 0 ) || ( pipe > 5 ) ) {
		return -1;
     a9a:	8f ef       	ldi	r24, 0xFF	; 255
     a9c:	9f ef       	ldi	r25, 0xFF	; 255
     a9e:	05 c0       	rjmp	.+10     	; 0xaaa <_nrf24l01p_read_dyn_pld+0x58>
		}
		return rxPayloadWidth;
	}
	}
	else {//if pipe not readable
		return 0;
     aa0:	80 e0       	ldi	r24, 0x00	; 0
     aa2:	90 e0       	ldi	r25, 0x00	; 0
     aa4:	02 c0       	rjmp	.+4      	; 0xaaa <_nrf24l01p_read_dyn_pld+0x58>
	else {
		_nrf24l01p_read_rx_payload(data,rxPayloadWidth);
		if(_nrf24l01p_get_fifo_flag_rx_empty()) {
			_nrf24l01p_clear_data_ready_flag();
		}
		return rxPayloadWidth;
     aa6:	80 2f       	mov	r24, r16
     aa8:	91 2f       	mov	r25, r17
	}
	else {//if pipe not readable
		return 0;
	}
	return 0;
}
     aaa:	df 91       	pop	r29
     aac:	cf 91       	pop	r28
     aae:	1f 91       	pop	r17
     ab0:	0f 91       	pop	r16
     ab2:	08 95       	ret

00000ab4 <usart_spi_transmit_receive>:
 *
 * @param usart
 * @param txdata
 * @return data received from slave
 */
uint8_t usart_spi_transmit_receive(USART_t * usart,uint8_t txdata){
     ab4:	fc 01       	movw	r30, r24
	
	while ((usart->STATUS & USART_DREIF_bm) == 0);
     ab6:	81 81       	ldd	r24, Z+1	; 0x01
     ab8:	85 ff       	sbrs	r24, 5
     aba:	fd cf       	rjmp	.-6      	; 0xab6 <usart_spi_transmit_receive+0x2>
	usart->DATA = txdata;
     abc:	60 83       	st	Z, r22
	while((usart->STATUS & USART_TXCIF_bm) == 0);
     abe:	81 81       	ldd	r24, Z+1	; 0x01
     ac0:	86 ff       	sbrs	r24, 6
     ac2:	fd cf       	rjmp	.-6      	; 0xabe <usart_spi_transmit_receive+0xa>
	(usart)->STATUS = USART_TXCIF_bm;
     ac4:	80 e4       	ldi	r24, 0x40	; 64
     ac6:	81 83       	std	Z+1, r24	; 0x01
	return (usart)->DATA;
     ac8:	80 81       	ld	r24, Z
}
     aca:	08 95       	ret

00000acc <ssd1306_write_command>:
 * data write function is called based on the selected interface.
 *
 * \param command the command to write
 */
static void ssd1306_write_command(uint8_t command)
{
     acc:	1f 93       	push	r17
     ace:	cf 93       	push	r28
     ad0:	df 93       	push	r29
	port_out_value_clear_mask(&PORTF,(1<<3));//select device
     ad2:	c0 ea       	ldi	r28, 0xA0	; 160
     ad4:	d6 e0       	ldi	r29, 0x06	; 6
     ad6:	18 e0       	ldi	r17, 0x08	; 8
     ad8:	1e 83       	std	Y+6, r17	; 0x06
	port_out_value_clear_mask(&PORTD,(1<<0));//select command
     ada:	e0 e6       	ldi	r30, 0x60	; 96
     adc:	f6 e0       	ldi	r31, 0x06	; 6
     ade:	91 e0       	ldi	r25, 0x01	; 1
     ae0:	96 83       	std	Z+6, r25	; 0x06
	ssd1306_sel_cmd() ;
     ae2:	96 83       	std	Z+6, r25	; 0x06
	usart_spi_transmit_receive(&USARTD0, command);//transmit
     ae4:	68 2f       	mov	r22, r24
     ae6:	80 ea       	ldi	r24, 0xA0	; 160
     ae8:	99 e0       	ldi	r25, 0x09	; 9
     aea:	0e 94 5a 05 	call	0xab4	; 0xab4 <usart_spi_transmit_receive>
	port_out_value_set_mask(&PORTF,(1<<3));//deselect device
     aee:	1d 83       	std	Y+5, r17	; 0x05
	
}
     af0:	df 91       	pop	r29
     af2:	cf 91       	pop	r28
     af4:	1f 91       	pop	r17
     af6:	08 95       	ret

00000af8 <ssd1306_write_data>:
 * data write function is called based on the selected interface.
 *
 * \param data the data to write
 */
void ssd1306_write_data(uint8_t data)
{
     af8:	ef 92       	push	r14
     afa:	ff 92       	push	r15
     afc:	0f 93       	push	r16
     afe:	1f 93       	push	r17
     b00:	cf 93       	push	r28
     b02:	df 93       	push	r29
	
	port_out_value_clear_mask(&PORTF,(1<<3));//select device
     b04:	c0 ea       	ldi	r28, 0xA0	; 160
     b06:	d6 e0       	ldi	r29, 0x06	; 6
     b08:	18 e0       	ldi	r17, 0x08	; 8
     b0a:	1e 83       	std	Y+6, r17	; 0x06
	ssd1306_sel_data() ;
     b0c:	0f 2e       	mov	r0, r31
     b0e:	f0 e6       	ldi	r31, 0x60	; 96
     b10:	ef 2e       	mov	r14, r31
     b12:	f6 e0       	ldi	r31, 0x06	; 6
     b14:	ff 2e       	mov	r15, r31
     b16:	f0 2d       	mov	r31, r0
     b18:	01 e0       	ldi	r16, 0x01	; 1
     b1a:	f7 01       	movw	r30, r14
     b1c:	05 83       	std	Z+5, r16	; 0x05
	usart_spi_transmit_receive(&USARTD0, data);//transmit
     b1e:	68 2f       	mov	r22, r24
     b20:	80 ea       	ldi	r24, 0xA0	; 160
     b22:	99 e0       	ldi	r25, 0x09	; 9
     b24:	0e 94 5a 05 	call	0xab4	; 0xab4 <usart_spi_transmit_receive>
	ssd1306_sel_cmd();
     b28:	f7 01       	movw	r30, r14
     b2a:	06 83       	std	Z+6, r16	; 0x06
	port_out_value_set_mask(&PORTF,(1<<3));//deselect device
     b2c:	1d 83       	std	Y+5, r17	; 0x05

}
     b2e:	df 91       	pop	r29
     b30:	cf 91       	pop	r28
     b32:	1f 91       	pop	r17
     b34:	0f 91       	pop	r16
     b36:	ff 90       	pop	r15
     b38:	ef 90       	pop	r14
     b3a:	08 95       	ret

00000b3c <ssd1306_set_page_address>:
 */
void ssd1306_set_page_address(uint8_t address)
{
	// Make sure that the address is 4 bits (only 8 pages)
	address &= 0x0F;
	ssd1306_write_command(SSD1306_CMD_SET_PAGE_START_ADDRESS(address));
     b3c:	87 70       	andi	r24, 0x07	; 7
     b3e:	80 6b       	ori	r24, 0xB0	; 176
     b40:	0e 94 66 05 	call	0xacc	; 0xacc <ssd1306_write_command>
     b44:	08 95       	ret

00000b46 <ssd1306_set_column_address>:
 * \brief Set current column in display RAM
 *
 * \param address the column address
 */
void ssd1306_set_column_address(uint8_t address)
{
     b46:	cf 93       	push	r28
     b48:	c8 2f       	mov	r28, r24
	// Make sure the address is 7 bits
	address &= 0x7F;
     b4a:	98 2f       	mov	r25, r24
     b4c:	9f 77       	andi	r25, 0x7F	; 127
	ssd1306_write_command(SSD1306_CMD_SET_HIGH_COL(address >> 4));
     b4e:	89 2f       	mov	r24, r25
     b50:	82 95       	swap	r24
     b52:	8f 70       	andi	r24, 0x0F	; 15
     b54:	80 61       	ori	r24, 0x10	; 16
     b56:	0e 94 66 05 	call	0xacc	; 0xacc <ssd1306_write_command>
	ssd1306_write_command(SSD1306_CMD_SET_LOW_COL(address & 0x0F));
     b5a:	8c 2f       	mov	r24, r28
     b5c:	8f 70       	andi	r24, 0x0F	; 15
     b5e:	0e 94 66 05 	call	0xacc	; 0xacc <ssd1306_write_command>
}
     b62:	cf 91       	pop	r28
     b64:	08 95       	ret

00000b66 <usart_init_spi>:
	}
}


void usart_init_spi(USART_t *usart, const usart_spi_options_emon_t *opt)
{
     b66:	cf 93       	push	r28
     b68:	df 93       	push	r29
     b6a:	ec 01       	movw	r28, r24
     b6c:	fb 01       	movw	r30, r22
	//ioport_pin_t sck_pin;
	//uint8_t invert_sck;

	(usart)->CTRLB &= ~USART_RXEN_bm;
     b6e:	8c 81       	ldd	r24, Y+4	; 0x04
     b70:	8f 7e       	andi	r24, 0xEF	; 239
     b72:	8c 83       	std	Y+4, r24	; 0x04

	//invert_sck = (opt->spimode == 2) || (opt->spimode == 3);

	PORTD.DIRSET = (1<<1);//sck pin output
     b74:	a0 e6       	ldi	r26, 0x60	; 96
     b76:	b6 e0       	ldi	r27, 0x06	; 6
     b78:	82 e0       	ldi	r24, 0x02	; 2
     b7a:	11 96       	adiw	r26, 0x01	; 1
     b7c:	8c 93       	st	X, r24
     b7e:	11 97       	sbiw	r26, 0x01	; 1
	PORTD.OUTSET = (1<<1);//sck pin output level high
     b80:	15 96       	adiw	r26, 0x05	; 5
     b82:	8c 93       	st	X, r24

	(usart)->CTRLC = ((usart)->CTRLC & (~USART_CMODE_gm)) | USART_CMODE_MSPI_gc;
     b84:	8d 81       	ldd	r24, Y+5	; 0x05
     b86:	80 6c       	ori	r24, 0xC0	; 192
     b88:	8d 83       	std	Y+5, r24	; 0x05

	if (opt->spimode == 1 || opt->spimode == 3) {
     b8a:	84 81       	ldd	r24, Z+4	; 0x04
     b8c:	8d 7f       	andi	r24, 0xFD	; 253
     b8e:	81 30       	cpi	r24, 0x01	; 1
     b90:	21 f4       	brne	.+8      	; 0xb9a <usart_init_spi+0x34>
		usart->CTRLC |= USART_UCPHA_bm;
     b92:	8d 81       	ldd	r24, Y+5	; 0x05
     b94:	82 60       	ori	r24, 0x02	; 2
     b96:	8d 83       	std	Y+5, r24	; 0x05
     b98:	03 c0       	rjmp	.+6      	; 0xba0 <usart_init_spi+0x3a>
	}
	else {
		usart->CTRLC &= ~USART_UCPHA_bm;
     b9a:	8d 81       	ldd	r24, Y+5	; 0x05
     b9c:	8d 7f       	andi	r24, 0xFD	; 253
     b9e:	8d 83       	std	Y+5, r24	; 0x05
	}
	
	if (opt->data_order) {
     ba0:	85 81       	ldd	r24, Z+5	; 0x05
     ba2:	88 23       	and	r24, r24
     ba4:	21 f0       	breq	.+8      	; 0xbae <usart_init_spi+0x48>
		(usart)->CTRLC |= USART_DORD_bm;
     ba6:	8d 81       	ldd	r24, Y+5	; 0x05
     ba8:	84 60       	ori	r24, 0x04	; 4
     baa:	8d 83       	std	Y+5, r24	; 0x05
     bac:	03 c0       	rjmp	.+6      	; 0xbb4 <usart_init_spi+0x4e>
	}
	else {
		(usart)->CTRLC &= ~USART_DORD_bm;
     bae:	8d 81       	ldd	r24, Y+5	; 0x05
     bb0:	8b 7f       	andi	r24, 0xFB	; 251
     bb2:	8d 83       	std	Y+5, r24	; 0x05
	}


	uint16_t bsel_value = (32000000UL/ (opt->baudrate*2)) -1 ;
     bb4:	80 81       	ld	r24, Z
     bb6:	91 81       	ldd	r25, Z+1	; 0x01
     bb8:	a2 81       	ldd	r26, Z+2	; 0x02
     bba:	b3 81       	ldd	r27, Z+3	; 0x03
     bbc:	9c 01       	movw	r18, r24
     bbe:	ad 01       	movw	r20, r26
     bc0:	22 0f       	add	r18, r18
     bc2:	33 1f       	adc	r19, r19
     bc4:	44 1f       	adc	r20, r20
     bc6:	55 1f       	adc	r21, r21
     bc8:	60 e0       	ldi	r22, 0x00	; 0
     bca:	78 e4       	ldi	r23, 0x48	; 72
     bcc:	88 ee       	ldi	r24, 0xE8	; 232
     bce:	91 e0       	ldi	r25, 0x01	; 1
     bd0:	0e 94 81 0a 	call	0x1502	; 0x1502 <__udivmodsi4>
     bd4:	21 50       	subi	r18, 0x01	; 1
     bd6:	31 09       	sbc	r19, r1
	(usart)->BAUDCTRLB = (uint8_t)((~USART_BSCALE_gm) & (bsel_value >> 8));
     bd8:	83 2f       	mov	r24, r19
     bda:	8f 70       	andi	r24, 0x0F	; 15
     bdc:	8f 83       	std	Y+7, r24	; 0x07
	(usart)->BAUDCTRLA = (uint8_t)(bsel_value);
     bde:	2e 83       	std	Y+6, r18	; 0x06
	
	(usart)->CTRLB |= USART_TXEN_bm;
     be0:	8c 81       	ldd	r24, Y+4	; 0x04
     be2:	88 60       	ori	r24, 0x08	; 8
     be4:	8c 83       	std	Y+4, r24	; 0x04

}
     be6:	df 91       	pop	r29
     be8:	cf 91       	pop	r28
     bea:	08 95       	ret

00000bec <ssd1306_init>:




void ssd1306_init(void)
{
     bec:	cf 93       	push	r28
     bee:	df 93       	push	r29
     bf0:	00 d0       	rcall	.+0      	; 0xbf2 <ssd1306_init+0x6>
     bf2:	00 d0       	rcall	.+0      	; 0xbf4 <ssd1306_init+0x8>
     bf4:	cd b7       	in	r28, 0x3d	; 61
     bf6:	de b7       	in	r29, 0x3e	; 62

	port_direction_set_mask(&PORTF,(1<<3));//ss
     bf8:	20 ea       	ldi	r18, 0xA0	; 160
     bfa:	36 e0       	ldi	r19, 0x06	; 6
     bfc:	88 e0       	ldi	r24, 0x08	; 8
     bfe:	d9 01       	movw	r26, r18
     c00:	11 96       	adiw	r26, 0x01	; 1
     c02:	8c 93       	st	X, r24
	port_direction_set_mask(&PORTD,(1<<0));//data_cmd
     c04:	a0 e6       	ldi	r26, 0x60	; 96
     c06:	b6 e0       	ldi	r27, 0x06	; 6
     c08:	91 e0       	ldi	r25, 0x01	; 1
     c0a:	11 96       	adiw	r26, 0x01	; 1
     c0c:	9c 93       	st	X, r25
     c0e:	11 97       	sbiw	r26, 0x01	; 1
	port_direction_set_mask(&PORTA,(1<<3));//reset
     c10:	e0 e0       	ldi	r30, 0x00	; 0
     c12:	f6 e0       	ldi	r31, 0x06	; 6
     c14:	81 83       	std	Z+1, r24	; 0x01
	port_direction_set_mask(&PORTD,(1<<1));//sck
     c16:	92 e0       	ldi	r25, 0x02	; 2
     c18:	11 96       	adiw	r26, 0x01	; 1
     c1a:	9c 93       	st	X, r25
     c1c:	11 97       	sbiw	r26, 0x01	; 1
	port_direction_set_mask(&PORTD,(1<<3));//mosi
     c1e:	11 96       	adiw	r26, 0x01	; 1
     c20:	8c 93       	st	X, r24
// 	
	port_out_value_set_mask(&PORTF,(1<<3));//ss
     c22:	d9 01       	movw	r26, r18
     c24:	15 96       	adiw	r26, 0x05	; 5
     c26:	8c 93       	st	X, r24
 * \note this functions should not be confused with the \ref ssd1306_soft_reset()
 * function, this command will control the RST pin.
 */
static inline void ssd1306_hard_reset(void)
{
	PORTA.OUTCLR = (1<<3);
     c28:	86 83       	std	Z+6, r24	; 0x06
     c2a:	ba e6       	ldi	r27, 0x6A	; 106
     c2c:	ba 95       	dec	r27
     c2e:	f1 f7       	brne	.-4      	; 0xc2c <ssd1306_init+0x40>
     c30:	00 c0       	rjmp	.+0      	; 0xc32 <ssd1306_init+0x46>
	delay_us(10); // At least 3us
	PORTA.OUTSET = (1<<3);
     c32:	85 83       	std	Z+5, r24	; 0x05
     c34:	ea e6       	ldi	r30, 0x6A	; 106
     c36:	ea 95       	dec	r30
     c38:	f1 f7       	brne	.-4      	; 0xc36 <ssd1306_init+0x4a>
     c3a:	00 c0       	rjmp	.+0      	; 0xc3c <ssd1306_init+0x50>
	spi_flags_t spi_flags = 0;
	//board_spi_select_id_t spi_select_id = 0;
	
	//irqflags_t flags = cpu_irq_save();
	//*((uint8_t *)&PR.PRGEN + SYSCLK_PORT_D) &= ~PR_USART0_bm;
	PR.PRPD &= ~PR_USART0_bm;
     c3c:	e0 e7       	ldi	r30, 0x70	; 112
     c3e:	f0 e0       	ldi	r31, 0x00	; 0
     c40:	84 81       	ldd	r24, Z+4	; 0x04
     c42:	8f 7e       	andi	r24, 0xEF	; 239
     c44:	84 83       	std	Z+4, r24	; 0x04
	
	//cpu_irq_restore(flags);
	
	usart_spi_options_emon_t opt;
	opt.baudrate=12000000;
     c46:	80 e0       	ldi	r24, 0x00	; 0
     c48:	9b e1       	ldi	r25, 0x1B	; 27
     c4a:	a7 eb       	ldi	r26, 0xB7	; 183
     c4c:	b0 e0       	ldi	r27, 0x00	; 0
     c4e:	89 83       	std	Y+1, r24	; 0x01
     c50:	9a 83       	std	Y+2, r25	; 0x02
     c52:	ab 83       	std	Y+3, r26	; 0x03
     c54:	bc 83       	std	Y+4, r27	; 0x04
	opt.spimode=spi_flags;
     c56:	1d 82       	std	Y+5, r1	; 0x05
	opt.data_order=0;
     c58:	1e 82       	std	Y+6, r1	; 0x06
	usart_init_spi(&USARTD0, &opt);
     c5a:	be 01       	movw	r22, r28
     c5c:	6f 5f       	subi	r22, 0xFF	; 255
     c5e:	7f 4f       	sbci	r23, 0xFF	; 255
     c60:	80 ea       	ldi	r24, 0xA0	; 160
     c62:	99 e0       	ldi	r25, 0x09	; 9
     c64:	0e 94 b3 05 	call	0xb66	; 0xb66 <usart_init_spi>
	

	// 1/32 Duty (0x0F~0x3F)
	ssd1306_write_command(SSD1306_CMD_SET_MULTIPLEX_RATIO);
     c68:	88 ea       	ldi	r24, 0xA8	; 168
     c6a:	0e 94 66 05 	call	0xacc	; 0xacc <ssd1306_write_command>
	ssd1306_write_command(0x1F);
     c6e:	8f e1       	ldi	r24, 0x1F	; 31
     c70:	0e 94 66 05 	call	0xacc	; 0xacc <ssd1306_write_command>

	// Shift Mapping RAM Counter (0x00~0x3F)
	ssd1306_write_command(SSD1306_CMD_SET_DISPLAY_OFFSET);
     c74:	83 ed       	ldi	r24, 0xD3	; 211
     c76:	0e 94 66 05 	call	0xacc	; 0xacc <ssd1306_write_command>
	ssd1306_write_command(0x00);
     c7a:	80 e0       	ldi	r24, 0x00	; 0
     c7c:	0e 94 66 05 	call	0xacc	; 0xacc <ssd1306_write_command>

	// Set Mapping RAM Display Start Line (0x00~0x3F)
	ssd1306_write_command(SSD1306_CMD_SET_START_LINE(0x00));
     c80:	80 e4       	ldi	r24, 0x40	; 64
     c82:	0e 94 66 05 	call	0xacc	; 0xacc <ssd1306_write_command>

	// Set Column Address 0 Mapped to SEG0
	ssd1306_write_command(SSD1306_CMD_SET_SEGMENT_RE_MAP_COL127_SEG0);
     c86:	81 ea       	ldi	r24, 0xA1	; 161
     c88:	0e 94 66 05 	call	0xacc	; 0xacc <ssd1306_write_command>

	// Set COM/Row Scan Scan from COM63 to 0
	ssd1306_write_command(SSD1306_CMD_SET_COM_OUTPUT_SCAN_DOWN);
     c8c:	88 ec       	ldi	r24, 0xC8	; 200
     c8e:	0e 94 66 05 	call	0xacc	; 0xacc <ssd1306_write_command>

	// Set COM Pins hardware configuration
	ssd1306_write_command(SSD1306_CMD_SET_COM_PINS);
     c92:	8a ed       	ldi	r24, 0xDA	; 218
     c94:	0e 94 66 05 	call	0xacc	; 0xacc <ssd1306_write_command>
	ssd1306_write_command(0x02);
     c98:	82 e0       	ldi	r24, 0x02	; 2
     c9a:	0e 94 66 05 	call	0xacc	; 0xacc <ssd1306_write_command>

	//ssd1306_set_contrast(0x8F);
	ssd1306_write_command(SSD1306_CMD_SET_CONTRAST_CONTROL_FOR_BANK0);
     c9e:	81 e8       	ldi	r24, 0x81	; 129
     ca0:	0e 94 66 05 	call	0xacc	; 0xacc <ssd1306_write_command>
	ssd1306_write_command(0x8F);
     ca4:	8f e8       	ldi	r24, 0x8F	; 143
     ca6:	0e 94 66 05 	call	0xacc	; 0xacc <ssd1306_write_command>

		
	// Disable Entire display On
	ssd1306_write_command(SSD1306_CMD_ENTIRE_DISPLAY_AND_GDDRAM_ON);
     caa:	84 ea       	ldi	r24, 0xA4	; 164
     cac:	0e 94 66 05 	call	0xacc	; 0xacc <ssd1306_write_command>

	//ssd1306_display_invert_disable();
	ssd1306_write_command(SSD1306_CMD_SET_NORMAL_DISPLAY);
     cb0:	86 ea       	ldi	r24, 0xA6	; 166
     cb2:	0e 94 66 05 	call	0xacc	; 0xacc <ssd1306_write_command>

	// Set Display Clock Divide Ratio / Oscillator Frequency (Default => 0x80)
	ssd1306_write_command(SSD1306_CMD_SET_DISPLAY_CLOCK_DIVIDE_RATIO);
     cb6:	85 ed       	ldi	r24, 0xD5	; 213
     cb8:	0e 94 66 05 	call	0xacc	; 0xacc <ssd1306_write_command>
	ssd1306_write_command(0x80);
     cbc:	80 e8       	ldi	r24, 0x80	; 128
     cbe:	0e 94 66 05 	call	0xacc	; 0xacc <ssd1306_write_command>

	// Enable charge pump regulator
	ssd1306_write_command(SSD1306_CMD_SET_CHARGE_PUMP_SETTING);
     cc2:	8d e8       	ldi	r24, 0x8D	; 141
     cc4:	0e 94 66 05 	call	0xacc	; 0xacc <ssd1306_write_command>
	ssd1306_write_command(0x14);
     cc8:	84 e1       	ldi	r24, 0x14	; 20
     cca:	0e 94 66 05 	call	0xacc	; 0xacc <ssd1306_write_command>

	// Set VCOMH Deselect Level
	ssd1306_write_command(SSD1306_CMD_SET_VCOMH_DESELECT_LEVEL);
     cce:	8b ed       	ldi	r24, 0xDB	; 219
     cd0:	0e 94 66 05 	call	0xacc	; 0xacc <ssd1306_write_command>
	ssd1306_write_command(0x40); // Default => 0x20 (0.77*VCC)
     cd4:	80 e4       	ldi	r24, 0x40	; 64
     cd6:	0e 94 66 05 	call	0xacc	; 0xacc <ssd1306_write_command>

	// Set Pre-Charge as 15 Clocks & Discharge as 1 Clock
	ssd1306_write_command(SSD1306_CMD_SET_PRE_CHARGE_PERIOD);
     cda:	89 ed       	ldi	r24, 0xD9	; 217
     cdc:	0e 94 66 05 	call	0xacc	; 0xacc <ssd1306_write_command>
	ssd1306_write_command(0xF1);
     ce0:	81 ef       	ldi	r24, 0xF1	; 241
     ce2:	0e 94 66 05 	call	0xacc	; 0xacc <ssd1306_write_command>

	//ssd1306_display_on();
	ssd1306_write_command(SSD1306_CMD_SET_DISPLAY_ON);
     ce6:	8f ea       	ldi	r24, 0xAF	; 175
     ce8:	0e 94 66 05 	call	0xacc	; 0xacc <ssd1306_write_command>
}
     cec:	26 96       	adiw	r28, 0x06	; 6
     cee:	cd bf       	out	0x3d, r28	; 61
     cf0:	de bf       	out	0x3e, r29	; 62
     cf2:	df 91       	pop	r29
     cf4:	cf 91       	pop	r28
     cf6:	08 95       	ret

00000cf8 <ssd1306_write_text>:
/**
 * \brief Display text on OLED screen.
 * \param string String to display.
 */
void ssd1306_write_text(char *string)
{
     cf8:	ef 92       	push	r14
     cfa:	ff 92       	push	r15
     cfc:	0f 93       	push	r16
     cfe:	1f 93       	push	r17
     d00:	cf 93       	push	r28
	uint8_t *char_ptr;
	uint8_t i;

	while (*string != '\0') {
     d02:	dc 01       	movw	r26, r24
     d04:	ec 91       	ld	r30, X
     d06:	ee 23       	and	r30, r30
     d08:	29 f1       	breq	.+74     	; 0xd54 <ssd1306_write_text+0x5c>
     d0a:	7c 01       	movw	r14, r24
     d0c:	bf ef       	ldi	r27, 0xFF	; 255
     d0e:	eb 1a       	sub	r14, r27
     d10:	fb 0a       	sbc	r15, r27
		if (*string < 0x7F) {
     d12:	ef 37       	cpi	r30, 0x7F	; 127
     d14:	d0 f4       	brcc	.+52     	; 0xd4a <ssd1306_write_text+0x52>
			char_ptr = font_table[*string - 32];
     d16:	f0 e0       	ldi	r31, 0x00	; 0
     d18:	ee 0f       	add	r30, r30
     d1a:	ff 1f       	adc	r31, r31
     d1c:	ef 56       	subi	r30, 0x6F	; 111
     d1e:	fe 4d       	sbci	r31, 0xDE	; 222
     d20:	00 81       	ld	r16, Z
     d22:	11 81       	ldd	r17, Z+1	; 0x01
			for (i = 1; i <= char_ptr[0]; i++) {
     d24:	f8 01       	movw	r30, r16
     d26:	80 81       	ld	r24, Z
     d28:	88 23       	and	r24, r24
     d2a:	61 f0       	breq	.+24     	; 0xd44 <ssd1306_write_text+0x4c>
     d2c:	c1 e0       	ldi	r28, 0x01	; 1
				ssd1306_write_data(char_ptr[i]);
     d2e:	f8 01       	movw	r30, r16
     d30:	ec 0f       	add	r30, r28
     d32:	f1 1d       	adc	r31, r1
     d34:	80 81       	ld	r24, Z
     d36:	0e 94 7c 05 	call	0xaf8	; 0xaf8 <ssd1306_write_data>
	uint8_t i;

	while (*string != '\0') {
		if (*string < 0x7F) {
			char_ptr = font_table[*string - 32];
			for (i = 1; i <= char_ptr[0]; i++) {
     d3a:	cf 5f       	subi	r28, 0xFF	; 255
     d3c:	d8 01       	movw	r26, r16
     d3e:	9c 91       	ld	r25, X
     d40:	9c 17       	cp	r25, r28
     d42:	a8 f7       	brcc	.-22     	; 0xd2e <ssd1306_write_text+0x36>
				ssd1306_write_data(char_ptr[i]);
			}
			ssd1306_write_data(0x00);
     d44:	80 e0       	ldi	r24, 0x00	; 0
     d46:	0e 94 7c 05 	call	0xaf8	; 0xaf8 <ssd1306_write_data>
void ssd1306_write_text(char *string)
{
	uint8_t *char_ptr;
	uint8_t i;

	while (*string != '\0') {
     d4a:	d7 01       	movw	r26, r14
     d4c:	ed 91       	ld	r30, X+
     d4e:	7d 01       	movw	r14, r26
     d50:	e1 11       	cpse	r30, r1
     d52:	df cf       	rjmp	.-66     	; 0xd12 <ssd1306_write_text+0x1a>
			}
			ssd1306_write_data(0x00);
		}
			string++;
	}
}
     d54:	cf 91       	pop	r28
     d56:	1f 91       	pop	r17
     d58:	0f 91       	pop	r16
     d5a:	ff 90       	pop	r15
     d5c:	ef 90       	pop	r14
     d5e:	08 95       	ret

00000d60 <gfx_mono_framebuffer_put_byte>:
\endcode
 */
void gfx_mono_framebuffer_put_byte(uint8_t page, uint8_t column,
		uint8_t data)
{
	*(fbpointer + (page * GFX_MONO_LCD_WIDTH) + column) = data;
     d60:	20 e8       	ldi	r18, 0x80	; 128
     d62:	82 9f       	mul	r24, r18
     d64:	c0 01       	movw	r24, r0
     d66:	11 24       	eor	r1, r1
     d68:	86 0f       	add	r24, r22
     d6a:	91 1d       	adc	r25, r1
     d6c:	e0 91 bc 22 	lds	r30, 0x22BC
     d70:	f0 91 bd 22 	lds	r31, 0x22BD
     d74:	e8 0f       	add	r30, r24
     d76:	f9 1f       	adc	r31, r25
     d78:	40 83       	st	Z, r20
     d7a:	08 95       	ret

00000d7c <gfx_mono_framebuffer_get_byte>:
	data = gfx_mono_framebuffer_get_byte(0, 0);
\endcode
 */
uint8_t gfx_mono_framebuffer_get_byte(uint8_t page, uint8_t column)
{
	return *(fbpointer + (page * GFX_MONO_LCD_WIDTH) + column);
     d7c:	20 e8       	ldi	r18, 0x80	; 128
     d7e:	82 9f       	mul	r24, r18
     d80:	c0 01       	movw	r24, r0
     d82:	11 24       	eor	r1, r1
     d84:	86 0f       	add	r24, r22
     d86:	91 1d       	adc	r25, r1
     d88:	e0 91 bc 22 	lds	r30, 0x22BC
     d8c:	f0 91 bd 22 	lds	r31, 0x22BD
     d90:	e8 0f       	add	r30, r24
     d92:	f9 1f       	adc	r31, r25
}
     d94:	80 81       	ld	r24, Z
     d96:	08 95       	ret

00000d98 <gfx_mono_ssd1306_put_byte>:
	gfx_mono_ssd1306_put_byte(0, 0, 0xFF, false);
\endcode
 */
void gfx_mono_ssd1306_put_byte(uint8_t page, uint8_t column,
		uint8_t data, uint8_t force)
{
     d98:	1f 93       	push	r17
     d9a:	cf 93       	push	r28
     d9c:	df 93       	push	r29
     d9e:	18 2f       	mov	r17, r24
     da0:	d6 2f       	mov	r29, r22
     da2:	c4 2f       	mov	r28, r20
//#ifdef CONFIG_SSD1306_FRAMEBUFFER
	if (!force && data == gfx_mono_framebuffer_get_byte(page, column)) {
     da4:	21 11       	cpse	r18, r1
     da6:	04 c0       	rjmp	.+8      	; 0xdb0 <gfx_mono_ssd1306_put_byte+0x18>
     da8:	0e 94 be 06 	call	0xd7c	; 0xd7c <gfx_mono_framebuffer_get_byte>
     dac:	8c 17       	cp	r24, r28
     dae:	71 f0       	breq	.+28     	; 0xdcc <gfx_mono_ssd1306_put_byte+0x34>
		return;
	}
	gfx_mono_framebuffer_put_byte(page, column, data);
     db0:	4c 2f       	mov	r20, r28
     db2:	6d 2f       	mov	r22, r29
     db4:	81 2f       	mov	r24, r17
     db6:	0e 94 b0 06 	call	0xd60	; 0xd60 <gfx_mono_framebuffer_put_byte>
//#endif

	ssd1306_set_page_address(page);
     dba:	81 2f       	mov	r24, r17
     dbc:	0e 94 9e 05 	call	0xb3c	; 0xb3c <ssd1306_set_page_address>
	ssd1306_set_column_address(column);
     dc0:	8d 2f       	mov	r24, r29
     dc2:	0e 94 a3 05 	call	0xb46	; 0xb46 <ssd1306_set_column_address>

	ssd1306_write_data(data);
     dc6:	8c 2f       	mov	r24, r28
     dc8:	0e 94 7c 05 	call	0xaf8	; 0xaf8 <ssd1306_write_data>
}
     dcc:	df 91       	pop	r29
     dce:	cf 91       	pop	r28
     dd0:	1f 91       	pop	r17
     dd2:	08 95       	ret

00000dd4 <main>:

/** Main program entry point. This routine contains the overall program flow, including initial
 *  setup of all components and the main program loop.
 */
int main(void)
{
     dd4:	cf 93       	push	r28
     dd6:	df 93       	push	r29
     dd8:	cd b7       	in	r28, 0x3d	; 61
     dda:	de b7       	in	r29, 0x3e	; 62
     ddc:	cf 56       	subi	r28, 0x6F	; 111
     dde:	d1 09       	sbc	r29, r1
     de0:	cd bf       	out	0x3d, r28	; 61
     de2:	de bf       	out	0x3e, r29	; 62
	
	//set_system_time (1463064367);
	rtc_initialize();
     de4:	0e 94 10 0a 	call	0x1420	; 0x1420 <rtc_initialize>
	
	DigitalPin_t led = {&PORTR, 0};
     de8:	80 ee       	ldi	r24, 0xE0	; 224
     dea:	97 e0       	ldi	r25, 0x07	; 7
     dec:	89 83       	std	Y+1, r24	; 0x01
     dee:	9a 83       	std	Y+2, r25	; 0x02
     df0:	1b 82       	std	Y+3, r1	; 0x03
	

	
	_nrf24l01p_init();
     df2:	0e 94 cf 04 	call	0x99e	; 0x99e <_nrf24l01p_init>
	_nrf24l01p_enable_dynamic_payload();
     df6:	0e 94 64 04 	call	0x8c8	; 0x8c8 <_nrf24l01p_enable_dynamic_payload>
	_nrf24l01p_enable_payload_with_ack();
     dfa:	0e 94 80 04 	call	0x900	; 0x900 <_nrf24l01p_enable_payload_with_ack>

	_nrf24l01p_enable_auto_ack(_NRF24L01P_PIPE_P0);
     dfe:	80 e0       	ldi	r24, 0x00	; 0
     e00:	0e 94 6b 02 	call	0x4d6	; 0x4d6 <_nrf24l01p_enable_auto_ack>
	_nrf24l01p_enable_auto_ack(_NRF24L01P_PIPE_P1);
     e04:	81 e0       	ldi	r24, 0x01	; 1
     e06:	0e 94 6b 02 	call	0x4d6	; 0x4d6 <_nrf24l01p_enable_auto_ack>
	_nrf24l01p_enable_auto_ack(_NRF24L01P_PIPE_P2);
     e0a:	82 e0       	ldi	r24, 0x02	; 2
     e0c:	0e 94 6b 02 	call	0x4d6	; 0x4d6 <_nrf24l01p_enable_auto_ack>
	_nrf24l01p_enable_auto_ack(_NRF24L01P_PIPE_P3);
     e10:	83 e0       	ldi	r24, 0x03	; 3
     e12:	0e 94 6b 02 	call	0x4d6	; 0x4d6 <_nrf24l01p_enable_auto_ack>
	_nrf24l01p_enable_auto_ack(_NRF24L01P_PIPE_P4);
     e16:	84 e0       	ldi	r24, 0x04	; 4
     e18:	0e 94 6b 02 	call	0x4d6	; 0x4d6 <_nrf24l01p_enable_auto_ack>
	_nrf24l01p_enable_auto_ack(_NRF24L01P_PIPE_P5);
     e1c:	85 e0       	ldi	r24, 0x05	; 5
     e1e:	0e 94 6b 02 	call	0x4d6	; 0x4d6 <_nrf24l01p_enable_auto_ack>
	
	_nrf24l01p_enable_dynamic_payload_pipe(_NRF24L01P_PIPE_P0);
     e22:	80 e0       	ldi	r24, 0x00	; 0
     e24:	0e 94 2b 04 	call	0x856	; 0x856 <_nrf24l01p_enable_dynamic_payload_pipe>
	_nrf24l01p_enable_dynamic_payload_pipe(_NRF24L01P_PIPE_P1);
     e28:	81 e0       	ldi	r24, 0x01	; 1
     e2a:	0e 94 2b 04 	call	0x856	; 0x856 <_nrf24l01p_enable_dynamic_payload_pipe>
	_nrf24l01p_enable_dynamic_payload_pipe(_NRF24L01P_PIPE_P2);
     e2e:	82 e0       	ldi	r24, 0x02	; 2
     e30:	0e 94 2b 04 	call	0x856	; 0x856 <_nrf24l01p_enable_dynamic_payload_pipe>
	_nrf24l01p_enable_dynamic_payload_pipe(_NRF24L01P_PIPE_P3);
     e34:	83 e0       	ldi	r24, 0x03	; 3
     e36:	0e 94 2b 04 	call	0x856	; 0x856 <_nrf24l01p_enable_dynamic_payload_pipe>
	_nrf24l01p_enable_dynamic_payload_pipe(_NRF24L01P_PIPE_P4);
     e3a:	84 e0       	ldi	r24, 0x04	; 4
     e3c:	0e 94 2b 04 	call	0x856	; 0x856 <_nrf24l01p_enable_dynamic_payload_pipe>
	_nrf24l01p_enable_dynamic_payload_pipe(_NRF24L01P_PIPE_P5);
     e40:	85 e0       	ldi	r24, 0x05	; 5
     e42:	0e 94 2b 04 	call	0x856	; 0x856 <_nrf24l01p_enable_dynamic_payload_pipe>
	
	_nrf24l01p_enable_rx_on_pipe(_NRF24L01P_PIPE_P0);
     e46:	80 e0       	ldi	r24, 0x00	; 0
     e48:	0e 94 a4 02 	call	0x548	; 0x548 <_nrf24l01p_enable_rx_on_pipe>
	_nrf24l01p_enable_rx_on_pipe(_NRF24L01P_PIPE_P1);
     e4c:	81 e0       	ldi	r24, 0x01	; 1
     e4e:	0e 94 a4 02 	call	0x548	; 0x548 <_nrf24l01p_enable_rx_on_pipe>
	_nrf24l01p_enable_rx_on_pipe(_NRF24L01P_PIPE_P2);
     e52:	82 e0       	ldi	r24, 0x02	; 2
     e54:	0e 94 a4 02 	call	0x548	; 0x548 <_nrf24l01p_enable_rx_on_pipe>
	_nrf24l01p_enable_rx_on_pipe(_NRF24L01P_PIPE_P3);
     e58:	83 e0       	ldi	r24, 0x03	; 3
     e5a:	0e 94 a4 02 	call	0x548	; 0x548 <_nrf24l01p_enable_rx_on_pipe>
	_nrf24l01p_enable_rx_on_pipe(_NRF24L01P_PIPE_P4);
     e5e:	84 e0       	ldi	r24, 0x04	; 4
     e60:	0e 94 a4 02 	call	0x548	; 0x548 <_nrf24l01p_enable_rx_on_pipe>
	_nrf24l01p_enable_rx_on_pipe(_NRF24L01P_PIPE_P5);
     e64:	85 e0       	ldi	r24, 0x05	; 5
     e66:	0e 94 a4 02 	call	0x548	; 0x548 <_nrf24l01p_enable_rx_on_pipe>


	_nrf24l01p_set_auto_retransmission_delay(15);
     e6a:	8f e0       	ldi	r24, 0x0F	; 15
     e6c:	0e 94 cb 02 	call	0x596	; 0x596 <_nrf24l01p_set_auto_retransmission_delay>
	gfx_mono_set_framebuffer(framebuffer);
\endcode
 */
void gfx_mono_set_framebuffer(uint8_t *framebuffer)
{
	fbpointer = framebuffer;
     e70:	8e eb       	ldi	r24, 0xBE	; 190
     e72:	92 e2       	ldi	r25, 0x22	; 34
     e74:	80 93 bc 22 	sts	0x22BC, r24
     e78:	90 93 bd 22 	sts	0x22BD, r25
	uint8_t page;
	uint8_t column;

	gfx_mono_set_framebuffer(framebuffer);

	ssd1306_init();
     e7c:	0e 94 f6 05 	call	0xbec	; 0xbec <ssd1306_init>
	asm("nop");
     e80:	00 00       	nop
static inline void ssd1306_clear(void)
{
	uint8_t page = 0;
	uint8_t col = 0;

	for (page = 0; page < 4; ++page)
     e82:	10 e0       	ldi	r17, 0x00	; 0
     e84:	0f c0       	rjmp	.+30     	; 0xea4 <main+0xd0>
	{
		for (col = 0; col < 128; ++col)
		{
			ssd1306_set_page_address(page);
     e86:	81 2f       	mov	r24, r17
     e88:	0e 94 9e 05 	call	0xb3c	; 0xb3c <ssd1306_set_page_address>
			ssd1306_set_column_address(col);
     e8c:	80 2f       	mov	r24, r16
     e8e:	0e 94 a3 05 	call	0xb46	; 0xb46 <ssd1306_set_column_address>
			ssd1306_write_data(0x00);
     e92:	80 e0       	ldi	r24, 0x00	; 0
     e94:	0e 94 7c 05 	call	0xaf8	; 0xaf8 <ssd1306_write_data>
	uint8_t page = 0;
	uint8_t col = 0;

	for (page = 0; page < 4; ++page)
	{
		for (col = 0; col < 128; ++col)
     e98:	0f 5f       	subi	r16, 0xFF	; 255
     e9a:	00 38       	cpi	r16, 0x80	; 128
     e9c:	a1 f7       	brne	.-24     	; 0xe86 <main+0xb2>
static inline void ssd1306_clear(void)
{
	uint8_t page = 0;
	uint8_t col = 0;

	for (page = 0; page < 4; ++page)
     e9e:	1f 5f       	subi	r17, 0xFF	; 255
     ea0:	14 30       	cpi	r17, 0x04	; 4
     ea2:	11 f0       	breq	.+4      	; 0xea8 <main+0xd4>

/** Main program entry point. This routine contains the overall program flow, including initial
 *  setup of all components and the main program loop.
 */
int main(void)
{
     ea4:	00 e0       	ldi	r16, 0x00	; 0
     ea6:	ef cf       	rjmp	.-34     	; 0xe86 <main+0xb2>
 */
static inline void ssd1306_set_display_start_line_address(uint8_t address)
{
	// Make sure address is 6 bits
	address &= 0x3F;
	ssd1306_write_command(SSD1306_CMD_SET_START_LINE(address));
     ea8:	80 e4       	ldi	r24, 0x40	; 64
     eaa:	0e 94 66 05 	call	0xacc	; 0xacc <ssd1306_write_command>
	ssd1306_clear();

	ssd1306_set_display_start_line_address(0);


	for (page = 0; page < GFX_MONO_LCD_PAGES; page++) {
     eae:	10 e0       	ldi	r17, 0x00	; 0
     eb0:	0c c0       	rjmp	.+24     	; 0xeca <main+0xf6>
		for (column = 0; column < GFX_MONO_LCD_WIDTH; column++) {
			gfx_mono_ssd1306_put_byte(page, column, 0x00, 1);
     eb2:	21 e0       	ldi	r18, 0x01	; 1
     eb4:	40 e0       	ldi	r20, 0x00	; 0
     eb6:	60 2f       	mov	r22, r16
     eb8:	81 2f       	mov	r24, r17
     eba:	0e 94 cc 06 	call	0xd98	; 0xd98 <gfx_mono_ssd1306_put_byte>

	ssd1306_set_display_start_line_address(0);


	for (page = 0; page < GFX_MONO_LCD_PAGES; page++) {
		for (column = 0; column < GFX_MONO_LCD_WIDTH; column++) {
     ebe:	0f 5f       	subi	r16, 0xFF	; 255
     ec0:	00 38       	cpi	r16, 0x80	; 128
     ec2:	b9 f7       	brne	.-18     	; 0xeb2 <main+0xde>
	ssd1306_clear();

	ssd1306_set_display_start_line_address(0);


	for (page = 0; page < GFX_MONO_LCD_PAGES; page++) {
     ec4:	1f 5f       	subi	r17, 0xFF	; 255
     ec6:	14 30       	cpi	r17, 0x04	; 4
     ec8:	11 f0       	breq	.+4      	; 0xece <main+0xfa>
static inline void ssd1306_clear(void)
{
	uint8_t page = 0;
	uint8_t col = 0;

	for (page = 0; page < 4; ++page)
     eca:	00 e0       	ldi	r16, 0x00	; 0
     ecc:	f2 cf       	rjmp	.-28     	; 0xeb2 <main+0xde>
		for (column = 0; column < GFX_MONO_LCD_WIDTH; column++) {
			gfx_mono_ssd1306_put_byte(page, column, 0x00, 1);
		}
	}

	asm("nop");
     ece:	00 00       	nop
	ssd1306_set_page_address(0);
     ed0:	80 e0       	ldi	r24, 0x00	; 0
     ed2:	0e 94 9e 05 	call	0xb3c	; 0xb3c <ssd1306_set_page_address>
	ssd1306_write_text("EMON");
     ed6:	8f e9       	ldi	r24, 0x9F	; 159
     ed8:	92 e2       	ldi	r25, 0x22	; 34
     eda:	0e 94 7c 06 	call	0xcf8	; 0xcf8 <ssd1306_write_text>
				PORTD_OUTCLR = LEDMask & LEDS_PORTD_LEDS;
			}

			static inline void LEDs_SetAllLEDs(const uint8_t LEDMask)
			{
				PORTR_OUTCLR = LEDS_PORTR_LEDS;
     ede:	83 e0       	ldi	r24, 0x03	; 3
     ee0:	80 93 e6 07 	sts	0x07E6, r24
				PORTD_OUTCLR = LEDS_PORTD_LEDS;
     ee4:	80 e3       	ldi	r24, 0x30	; 48
     ee6:	80 93 66 06 	sts	0x0666, r24

				PORTR_OUTSET = (LEDMask & LEDS_PORTR_LEDS);
     eea:	81 e0       	ldi	r24, 0x01	; 1
     eec:	80 93 e5 07 	sts	0x07E5, r24
				PORTD_OUTSET = (LEDMask & LEDS_PORTD_LEDS);
     ef0:	10 92 65 06 	sts	0x0665, r1
				#if (ARCH == ARCH_AVR8)
				sei();
				#elif (ARCH == ARCH_UC3)
				__builtin_csrf(AVR32_SR_GM_OFFSET);
				#elif (ARCH == ARCH_XMEGA)
				sei();
     ef4:	78 94       	sei
 	//SetupHardware();
// 
 	LEDs_SetAllLEDs(LEDMASK_USB_NOTREADY);
 	GlobalInterruptEnable();

	DigitalPin_SetDIr(&led,1);
     ef6:	61 e0       	ldi	r22, 0x01	; 1
     ef8:	ce 01       	movw	r24, r28
     efa:	01 96       	adiw	r24, 0x01	; 1
     efc:	0e 94 17 08 	call	0x102e	; 0x102e <DigitalPin_SetDIr>
	//PORT_SetDirection(&PORTR,(1<<0));

	CLKSYS_Enable( OSC_RC32MEN_bm );
     f00:	e0 e5       	ldi	r30, 0x50	; 80
     f02:	f0 e0       	ldi	r31, 0x00	; 0
     f04:	80 81       	ld	r24, Z
     f06:	82 60       	ori	r24, 0x02	; 2
     f08:	80 83       	st	Z, r24
	do {} while ( CLKSYS_IsReady( OSC_RC32MRDY_bm ) == 0 );
     f0a:	81 81       	ldd	r24, Z+1	; 0x01
     f0c:	81 ff       	sbrs	r24, 1
     f0e:	fd cf       	rjmp	.-6      	; 0xf0a <main+0x136>
	CLKSYS_Main_ClockSource_Select( CLK_SCLKSEL_RC32M_gc );
     f10:	81 e0       	ldi	r24, 0x01	; 1
     f12:	0e 94 e0 08 	call	0x11c0	; 0x11c0 <CLKSYS_Main_ClockSource_Select>
	CLKSYS_Disable( OSC_RC2MEN_bm );
     f16:	81 e0       	ldi	r24, 0x01	; 1
     f18:	0e 94 d6 08 	call	0x11ac	; 0x11ac <CLKSYS_Disable>
	
	_nrf24l01p_flush_rx();
     f1c:	0e 94 dd 01 	call	0x3ba	; 0x3ba <_nrf24l01p_flush_rx>
		
	_nrf24l01p_set_TX_pipe_address(0x1918171615);	
     f20:	25 e1       	ldi	r18, 0x15	; 21
     f22:	36 e1       	ldi	r19, 0x16	; 22
     f24:	47 e1       	ldi	r20, 0x17	; 23
     f26:	58 e1       	ldi	r21, 0x18	; 24
     f28:	69 e1       	ldi	r22, 0x19	; 25
     f2a:	70 e0       	ldi	r23, 0x00	; 0
     f2c:	80 e0       	ldi	r24, 0x00	; 0
     f2e:	90 e0       	ldi	r25, 0x00	; 0
     f30:	0e 94 d5 03 	call	0x7aa	; 0x7aa <_nrf24l01p_set_TX_pipe_address>
	_nrf24l01p_set_RX_pipe_address(_NRF24L01P_PIPE_P0, 0x1918171615);
     f34:	05 e1       	ldi	r16, 0x15	; 21
     f36:	16 e1       	ldi	r17, 0x16	; 22
     f38:	27 e1       	ldi	r18, 0x17	; 23
     f3a:	38 e1       	ldi	r19, 0x18	; 24
     f3c:	49 e1       	ldi	r20, 0x19	; 25
     f3e:	50 e0       	ldi	r21, 0x00	; 0
     f40:	60 e0       	ldi	r22, 0x00	; 0
     f42:	70 e0       	ldi	r23, 0x00	; 0
     f44:	80 e0       	ldi	r24, 0x00	; 0
     f46:	0e 94 04 03 	call	0x608	; 0x608 <_nrf24l01p_set_RX_pipe_address>
	
	//volatile uint64_t bladdress = _nrf24l01p_get_TX_pipe_address();
	volatile uint64_t bladdress = _nrf24l01p_get_RX_pipe_address(_NRF24L01P_PIPE_P0);
     f4a:	80 e0       	ldi	r24, 0x00	; 0
     f4c:	0e 94 79 03 	call	0x6f2	; 0x6f2 <_nrf24l01p_get_RX_pipe_address>
     f50:	2c 83       	std	Y+4, r18	; 0x04
     f52:	3d 83       	std	Y+5, r19	; 0x05
     f54:	4e 83       	std	Y+6, r20	; 0x06
     f56:	5f 83       	std	Y+7, r21	; 0x07
     f58:	68 87       	std	Y+8, r22	; 0x08
     f5a:	79 87       	std	Y+9, r23	; 0x09
     f5c:	8a 87       	std	Y+10, r24	; 0x0a
     f5e:	9b 87       	std	Y+11, r25	; 0x0b
	//volatile uint64_t bladdress;
	//_nrf24l01p_read_register(_NRF24L01P_REG_RX_ADDR_P1,&bladdress,5);
	asm("nop");
     f60:	00 00       	nop
// 			_nrf24l01p_write(msg,strlen(msg));
			 //_nrf24l01p_write_ack(_NRF24L01P_PIPE_P0,msg,strlen(msg));
		
			
			if((_nrf24l01p_readable(_NRF24L01P_PIPE_P0))){
				PORTR.OUTTGL = (1<<0);
     f62:	0f 2e       	mov	r0, r31
     f64:	f0 ee       	ldi	r31, 0xE0	; 224
     f66:	cf 2e       	mov	r12, r31
     f68:	f7 e0       	ldi	r31, 0x07	; 7
     f6a:	df 2e       	mov	r13, r31
     f6c:	f0 2d       	mov	r31, r0
     f6e:	ff 24       	eor	r15, r15
     f70:	f3 94       	inc	r15
// 			char msg[] = "get time";
// 			_nrf24l01p_write(msg,strlen(msg));
			 //_nrf24l01p_write_ack(_NRF24L01P_PIPE_P0,msg,strlen(msg));
		
			
			if((_nrf24l01p_readable(_NRF24L01P_PIPE_P0))){
     f72:	80 e0       	ldi	r24, 0x00	; 0
     f74:	0e 94 09 05 	call	0xa12	; 0xa12 <_nrf24l01p_readable>
     f78:	88 23       	and	r24, r24
     f7a:	d9 f3       	breq	.-10     	; 0xf72 <main+0x19e>
				PORTR.OUTTGL = (1<<0);
     f7c:	f6 01       	movw	r30, r12
     f7e:	f7 82       	std	Z+7, r15	; 0x07
				//printf("status %x\r\n",_nrf24l01p_get_status());
				//printf("pipe : %d\r\n", _nrf24l01p_get_rx_payload_pipe());
				//led1 = !led1;
				
				int width = _nrf24l01p_read_dyn_pld(_NRF24L01P_PIPE_P0, (uint8_t*) emon_rxData);
     f80:	be 01       	movw	r22, r28
     f82:	64 5f       	subi	r22, 0xF4	; 244
     f84:	7f 4f       	sbci	r23, 0xFF	; 255
     f86:	80 e0       	ldi	r24, 0x00	; 0
     f88:	0e 94 29 05 	call	0xa52	; 0xa52 <_nrf24l01p_read_dyn_pld>
				emon_rxData[width] = '\0';
     f8c:	2c e0       	ldi	r18, 0x0C	; 12
     f8e:	30 e0       	ldi	r19, 0x00	; 0
     f90:	2c 0f       	add	r18, r28
     f92:	3d 1f       	adc	r19, r29
     f94:	82 0f       	add	r24, r18
     f96:	93 1f       	adc	r25, r19
     f98:	fc 01       	movw	r30, r24
     f9a:	10 82       	st	Z, r1
				_nrf24l01p_flush_rx();
     f9c:	0e 94 dd 01 	call	0x3ba	; 0x3ba <_nrf24l01p_flush_rx>
				_nrf24l01p_clear_data_ready_flag();
     fa0:	0e 94 ef 02 	call	0x5de	; 0x5de <_nrf24l01p_clear_data_ready_flag>
     fa4:	00 e0       	ldi	r16, 0x00	; 0
     fa6:	0f c0       	rjmp	.+30     	; 0xfc6 <main+0x1f2>
	{
		for (col = 0; col < 128; ++col)
		{
			ssd1306_set_page_address(page);
     fa8:	80 2f       	mov	r24, r16
     faa:	0e 94 9e 05 	call	0xb3c	; 0xb3c <ssd1306_set_page_address>
			ssd1306_set_column_address(col);
     fae:	81 2f       	mov	r24, r17
     fb0:	0e 94 a3 05 	call	0xb46	; 0xb46 <ssd1306_set_column_address>
			ssd1306_write_data(0x00);
     fb4:	80 e0       	ldi	r24, 0x00	; 0
     fb6:	0e 94 7c 05 	call	0xaf8	; 0xaf8 <ssd1306_write_data>
	uint8_t page = 0;
	uint8_t col = 0;

	for (page = 0; page < 4; ++page)
	{
		for (col = 0; col < 128; ++col)
     fba:	1f 5f       	subi	r17, 0xFF	; 255
     fbc:	10 38       	cpi	r17, 0x80	; 128
     fbe:	a1 f7       	brne	.-24     	; 0xfa8 <main+0x1d4>
static inline void ssd1306_clear(void)
{
	uint8_t page = 0;
	uint8_t col = 0;

	for (page = 0; page < 4; ++page)
     fc0:	0f 5f       	subi	r16, 0xFF	; 255
     fc2:	04 30       	cpi	r16, 0x04	; 4
     fc4:	11 f0       	breq	.+4      	; 0xfca <main+0x1f6>
	ssd1306_clear();

	ssd1306_set_display_start_line_address(0);


	for (page = 0; page < GFX_MONO_LCD_PAGES; page++) {
     fc6:	10 e0       	ldi	r17, 0x00	; 0
     fc8:	ef cf       	rjmp	.-34     	; 0xfa8 <main+0x1d4>
// 					if(arg_index >=10) break;
// 					pch = strtok (NULL, "\"{},\r");
// 				}
		  
	  			ssd1306_clear();
	  			ssd1306_set_column_address(0);
     fca:	80 e0       	ldi	r24, 0x00	; 0
     fcc:	0e 94 a3 05 	call	0xb46	; 0xb46 <ssd1306_set_column_address>
				ssd1306_set_page_address(0);
     fd0:	80 e0       	ldi	r24, 0x00	; 0
     fd2:	0e 94 9e 05 	call	0xb3c	; 0xb3c <ssd1306_set_page_address>
	  			ssd1306_write_text(emon_rxData);
     fd6:	ce 01       	movw	r24, r28
     fd8:	0c 96       	adiw	r24, 0x0c	; 12
     fda:	0e 94 7c 06 	call	0xcf8	; 0xcf8 <ssd1306_write_text>
				  
				_nrf24l01p_flush_rx();
     fde:	0e 94 dd 01 	call	0x3ba	; 0x3ba <_nrf24l01p_flush_rx>


		
 			//HID_Device_USBTask(&Generic_HID_Interface);
 			//USB_USBTask();
	}
     fe2:	c7 cf       	rjmp	.-114    	; 0xf72 <main+0x19e>

00000fe4 <EVENT_USB_Device_Connect>:
				PORTD_OUTCLR = LEDMask & LEDS_PORTD_LEDS;
			}

			static inline void LEDs_SetAllLEDs(const uint8_t LEDMask)
			{
				PORTR_OUTCLR = LEDS_PORTR_LEDS;
     fe4:	83 e0       	ldi	r24, 0x03	; 3
     fe6:	80 93 e6 07 	sts	0x07E6, r24
				PORTD_OUTCLR = LEDS_PORTD_LEDS;
     fea:	80 e3       	ldi	r24, 0x30	; 48
     fec:	80 93 66 06 	sts	0x0666, r24

				PORTR_OUTSET = (LEDMask & LEDS_PORTR_LEDS);
     ff0:	82 e0       	ldi	r24, 0x02	; 2
     ff2:	80 93 e5 07 	sts	0x07E5, r24
				PORTD_OUTSET = (LEDMask & LEDS_PORTD_LEDS);
     ff6:	80 e1       	ldi	r24, 0x10	; 16
     ff8:	80 93 65 06 	sts	0x0665, r24
     ffc:	08 95       	ret

00000ffe <EVENT_USB_Device_Disconnect>:
				PORTD_OUTCLR = LEDMask & LEDS_PORTD_LEDS;
			}

			static inline void LEDs_SetAllLEDs(const uint8_t LEDMask)
			{
				PORTR_OUTCLR = LEDS_PORTR_LEDS;
     ffe:	83 e0       	ldi	r24, 0x03	; 3
    1000:	80 93 e6 07 	sts	0x07E6, r24
				PORTD_OUTCLR = LEDS_PORTD_LEDS;
    1004:	80 e3       	ldi	r24, 0x30	; 48
    1006:	80 93 66 06 	sts	0x0666, r24

				PORTR_OUTSET = (LEDMask & LEDS_PORTR_LEDS);
    100a:	81 e0       	ldi	r24, 0x01	; 1
    100c:	80 93 e5 07 	sts	0x07E5, r24
				PORTD_OUTSET = (LEDMask & LEDS_PORTD_LEDS);
    1010:	10 92 65 06 	sts	0x0665, r1
    1014:	08 95       	ret

00001016 <EVENT_USB_Device_StartOfFrame>:
			 *  \param[in,out] HIDInterfaceInfo  Pointer to a structure containing a HID Class configuration and state.
			 */
			static inline void HID_Device_MillisecondElapsed(USB_ClassInfo_HID_Device_t* const HIDInterfaceInfo) ATTR_ALWAYS_INLINE ATTR_NON_NULL_PTR_ARG(1);
			static inline void HID_Device_MillisecondElapsed(USB_ClassInfo_HID_Device_t* const HIDInterfaceInfo)
			{
				if (HIDInterfaceInfo->State.IdleMSRemaining)
    1016:	80 91 9d 22 	lds	r24, 0x229D
    101a:	90 91 9e 22 	lds	r25, 0x229E
    101e:	00 97       	sbiw	r24, 0x00	; 0
    1020:	29 f0       	breq	.+10     	; 0x102c <EVENT_USB_Device_StartOfFrame+0x16>
				  HIDInterfaceInfo->State.IdleMSRemaining--;
    1022:	01 97       	sbiw	r24, 0x01	; 1
    1024:	80 93 9d 22 	sts	0x229D, r24
    1028:	90 93 9e 22 	sts	0x229E, r25
    102c:	08 95       	ret

0000102e <DigitalPin_SetDIr>:
	SREG = sreg;	
}


void DigitalPin_SetDIr(DigitalPin_t *pin , bool dir){
	if(dir) pin->_port->DIRSET = (1<< pin->_pin);
    102e:	66 23       	and	r22, r22
    1030:	79 f0       	breq	.+30     	; 0x1050 <DigitalPin_SetDIr+0x22>
    1032:	dc 01       	movw	r26, r24
    1034:	ed 91       	ld	r30, X+
    1036:	fc 91       	ld	r31, X
    1038:	11 97       	sbiw	r26, 0x01	; 1
    103a:	21 e0       	ldi	r18, 0x01	; 1
    103c:	30 e0       	ldi	r19, 0x00	; 0
    103e:	a9 01       	movw	r20, r18
    1040:	12 96       	adiw	r26, 0x02	; 2
    1042:	0c 90       	ld	r0, X
    1044:	02 c0       	rjmp	.+4      	; 0x104a <DigitalPin_SetDIr+0x1c>
    1046:	44 0f       	add	r20, r20
    1048:	55 1f       	adc	r21, r21
    104a:	0a 94       	dec	r0
    104c:	e2 f7       	brpl	.-8      	; 0x1046 <DigitalPin_SetDIr+0x18>
    104e:	41 83       	std	Z+1, r20	; 0x01
    1050:	08 95       	ret

00001052 <DigitalPin_SetValue>:
}

void DigitalPin_SetValue(DigitalPin_t *pin){
	pin->_port->OUTSET = (1<< pin->_pin);
    1052:	dc 01       	movw	r26, r24
    1054:	ed 91       	ld	r30, X+
    1056:	fc 91       	ld	r31, X
    1058:	11 97       	sbiw	r26, 0x01	; 1
    105a:	21 e0       	ldi	r18, 0x01	; 1
    105c:	30 e0       	ldi	r19, 0x00	; 0
    105e:	a9 01       	movw	r20, r18
    1060:	12 96       	adiw	r26, 0x02	; 2
    1062:	0c 90       	ld	r0, X
    1064:	02 c0       	rjmp	.+4      	; 0x106a <DigitalPin_SetValue+0x18>
    1066:	44 0f       	add	r20, r20
    1068:	55 1f       	adc	r21, r21
    106a:	0a 94       	dec	r0
    106c:	e2 f7       	brpl	.-8      	; 0x1066 <DigitalPin_SetValue+0x14>
    106e:	45 83       	std	Z+5, r20	; 0x05
    1070:	08 95       	ret

00001072 <DigitalPin_ClearValue>:
}

void DigitalPin_ClearValue(DigitalPin_t *pin){
	pin->_port->OUTCLR = (1<< pin->_pin);
    1072:	dc 01       	movw	r26, r24
    1074:	ed 91       	ld	r30, X+
    1076:	fc 91       	ld	r31, X
    1078:	11 97       	sbiw	r26, 0x01	; 1
    107a:	21 e0       	ldi	r18, 0x01	; 1
    107c:	30 e0       	ldi	r19, 0x00	; 0
    107e:	a9 01       	movw	r20, r18
    1080:	12 96       	adiw	r26, 0x02	; 2
    1082:	0c 90       	ld	r0, X
    1084:	02 c0       	rjmp	.+4      	; 0x108a <DigitalPin_ClearValue+0x18>
    1086:	44 0f       	add	r20, r20
    1088:	55 1f       	adc	r21, r21
    108a:	0a 94       	dec	r0
    108c:	e2 f7       	brpl	.-8      	; 0x1086 <DigitalPin_ClearValue+0x14>
    108e:	46 83       	std	Z+6, r20	; 0x06
    1090:	08 95       	ret

00001092 <__vector_25>:


}

#if defined(USARTC0)
ISR(USARTC0_RXC_vect){
    1092:	1f 92       	push	r1
    1094:	0f 92       	push	r0
    1096:	0f b6       	in	r0, 0x3f	; 63
    1098:	0f 92       	push	r0
    109a:	11 24       	eor	r1, r1

}
    109c:	0f 90       	pop	r0
    109e:	0f be       	out	0x3f, r0	; 63
    10a0:	0f 90       	pop	r0
    10a2:	1f 90       	pop	r1
    10a4:	18 95       	reti

000010a6 <__vector_27>:

ISR(USARTC0_TXC_vect){
    10a6:	1f 92       	push	r1
    10a8:	0f 92       	push	r0
    10aa:	0f b6       	in	r0, 0x3f	; 63
    10ac:	0f 92       	push	r0
    10ae:	11 24       	eor	r1, r1
	
}
    10b0:	0f 90       	pop	r0
    10b2:	0f be       	out	0x3f, r0	; 63
    10b4:	0f 90       	pop	r0
    10b6:	1f 90       	pop	r1
    10b8:	18 95       	reti

000010ba <__vector_26>:

ISR(USARTC0_DRE_vect){
    10ba:	1f 92       	push	r1
    10bc:	0f 92       	push	r0
    10be:	0f b6       	in	r0, 0x3f	; 63
    10c0:	0f 92       	push	r0
    10c2:	11 24       	eor	r1, r1
	
}
    10c4:	0f 90       	pop	r0
    10c6:	0f be       	out	0x3f, r0	; 63
    10c8:	0f 90       	pop	r0
    10ca:	1f 90       	pop	r1
    10cc:	18 95       	reti

000010ce <__vector_28>:
#endif


#if defined(USARTC1)
ISR(USARTC1_RXC_vect){
    10ce:	1f 92       	push	r1
    10d0:	0f 92       	push	r0
    10d2:	0f b6       	in	r0, 0x3f	; 63
    10d4:	0f 92       	push	r0
    10d6:	11 24       	eor	r1, r1
	
}
    10d8:	0f 90       	pop	r0
    10da:	0f be       	out	0x3f, r0	; 63
    10dc:	0f 90       	pop	r0
    10de:	1f 90       	pop	r1
    10e0:	18 95       	reti

000010e2 <__vector_30>:

ISR(USARTC1_TXC_vect){
    10e2:	1f 92       	push	r1
    10e4:	0f 92       	push	r0
    10e6:	0f b6       	in	r0, 0x3f	; 63
    10e8:	0f 92       	push	r0
    10ea:	11 24       	eor	r1, r1
	
}
    10ec:	0f 90       	pop	r0
    10ee:	0f be       	out	0x3f, r0	; 63
    10f0:	0f 90       	pop	r0
    10f2:	1f 90       	pop	r1
    10f4:	18 95       	reti

000010f6 <__vector_29>:

ISR(USARTC1_DRE_vect){
    10f6:	1f 92       	push	r1
    10f8:	0f 92       	push	r0
    10fa:	0f b6       	in	r0, 0x3f	; 63
    10fc:	0f 92       	push	r0
    10fe:	11 24       	eor	r1, r1
	
}
    1100:	0f 90       	pop	r0
    1102:	0f be       	out	0x3f, r0	; 63
    1104:	0f 90       	pop	r0
    1106:	1f 90       	pop	r1
    1108:	18 95       	reti

0000110a <__vector_88>:
#endif


#if defined(USARTD0)
ISR(USARTD0_RXC_vect){
    110a:	1f 92       	push	r1
    110c:	0f 92       	push	r0
    110e:	0f b6       	in	r0, 0x3f	; 63
    1110:	0f 92       	push	r0
    1112:	11 24       	eor	r1, r1
	
}
    1114:	0f 90       	pop	r0
    1116:	0f be       	out	0x3f, r0	; 63
    1118:	0f 90       	pop	r0
    111a:	1f 90       	pop	r1
    111c:	18 95       	reti

0000111e <__vector_90>:

ISR(USARTD0_TXC_vect){
    111e:	1f 92       	push	r1
    1120:	0f 92       	push	r0
    1122:	0f b6       	in	r0, 0x3f	; 63
    1124:	0f 92       	push	r0
    1126:	11 24       	eor	r1, r1
	
}
    1128:	0f 90       	pop	r0
    112a:	0f be       	out	0x3f, r0	; 63
    112c:	0f 90       	pop	r0
    112e:	1f 90       	pop	r1
    1130:	18 95       	reti

00001132 <__vector_89>:

ISR(USARTD0_DRE_vect){
    1132:	1f 92       	push	r1
    1134:	0f 92       	push	r0
    1136:	0f b6       	in	r0, 0x3f	; 63
    1138:	0f 92       	push	r0
    113a:	11 24       	eor	r1, r1
	
}
    113c:	0f 90       	pop	r0
    113e:	0f be       	out	0x3f, r0	; 63
    1140:	0f 90       	pop	r0
    1142:	1f 90       	pop	r1
    1144:	18 95       	reti

00001146 <__vector_58>:
	
}
#endif

#if defined(USARTE0)
ISR(USARTE0_RXC_vect){
    1146:	1f 92       	push	r1
    1148:	0f 92       	push	r0
    114a:	0f b6       	in	r0, 0x3f	; 63
    114c:	0f 92       	push	r0
    114e:	11 24       	eor	r1, r1
	
}
    1150:	0f 90       	pop	r0
    1152:	0f be       	out	0x3f, r0	; 63
    1154:	0f 90       	pop	r0
    1156:	1f 90       	pop	r1
    1158:	18 95       	reti

0000115a <__vector_60>:

ISR(USARTE0_TXC_vect){
    115a:	1f 92       	push	r1
    115c:	0f 92       	push	r0
    115e:	0f b6       	in	r0, 0x3f	; 63
    1160:	0f 92       	push	r0
    1162:	11 24       	eor	r1, r1
	
}
    1164:	0f 90       	pop	r0
    1166:	0f be       	out	0x3f, r0	; 63
    1168:	0f 90       	pop	r0
    116a:	1f 90       	pop	r1
    116c:	18 95       	reti

0000116e <__vector_59>:

ISR(USARTE0_DRE_vect){
    116e:	1f 92       	push	r1
    1170:	0f 92       	push	r0
    1172:	0f b6       	in	r0, 0x3f	; 63
    1174:	0f 92       	push	r0
    1176:	11 24       	eor	r1, r1
	
}
    1178:	0f 90       	pop	r0
    117a:	0f be       	out	0x3f, r0	; 63
    117c:	0f 90       	pop	r0
    117e:	1f 90       	pop	r1
    1180:	18 95       	reti

00001182 <CCPWrite>:
 *
 *  \param address A pointer to the address to write to.
 *  \param value   The value to put in to the register.
 */
void CCPWrite( volatile uint8_t * address, uint8_t value )
{
    1182:	0f 93       	push	r16
    1184:	cf 93       	push	r28
    1186:	df 93       	push	r29
    1188:	1f 92       	push	r1
    118a:	cd b7       	in	r28, 0x3d	; 61
    118c:	de b7       	in	r29, 0x3e	; 62

	// Restore global interrupt setting from scratch register.
        asm("out  0x3F, R1");

#elif defined __GNUC__
	AVR_ENTER_CRITICAL_REGION( );
    118e:	2f b7       	in	r18, 0x3f	; 63
    1190:	29 83       	std	Y+1, r18	; 0x01
    1192:	f8 94       	cli
	volatile uint8_t * tmpAddr = address;
#ifdef RAMPZ
	RAMPZ = 0;
    1194:	1b be       	out	0x3b, r1	; 59
#endif
	asm volatile(
    1196:	fc 01       	movw	r30, r24
    1198:	08 ed       	ldi	r16, 0xD8	; 216
    119a:	04 bf       	out	0x34, r16	; 52
    119c:	60 83       	st	Z, r22
		:
		: "r" (tmpAddr), "r" (value), "M" (CCP_IOREG_gc), "i" (&CCP)
		: "r16", "r30", "r31"
		);

	AVR_LEAVE_CRITICAL_REGION( );
    119e:	89 81       	ldd	r24, Y+1	; 0x01
    11a0:	8f bf       	out	0x3f, r24	; 63
#endif
}
    11a2:	0f 90       	pop	r0
    11a4:	df 91       	pop	r29
    11a6:	cf 91       	pop	r28
    11a8:	0f 91       	pop	r16
    11aa:	08 95       	ret

000011ac <CLKSYS_Disable>:
 *
 *  \return  Non-zero if oscillator was disabled successfully.
 */
uint8_t CLKSYS_Disable( uint8_t oscSel )
{
	OSC.CTRL &= ~oscSel;
    11ac:	e0 e5       	ldi	r30, 0x50	; 80
    11ae:	f0 e0       	ldi	r31, 0x00	; 0
    11b0:	90 81       	ld	r25, Z
    11b2:	28 2f       	mov	r18, r24
    11b4:	20 95       	com	r18
    11b6:	92 23       	and	r25, r18
    11b8:	90 83       	st	Z, r25
	uint8_t clkEnabled = OSC.CTRL & oscSel;
    11ba:	90 81       	ld	r25, Z
	return clkEnabled;
}
    11bc:	89 23       	and	r24, r25
    11be:	08 95       	ret

000011c0 <CLKSYS_Main_ClockSource_Select>:
 *                       prescaler block.
 *
 *  \return  Non-zero if change was successful.
 */
uint8_t CLKSYS_Main_ClockSource_Select( CLK_SCLKSEL_t clockSource )
{
    11c0:	0f 93       	push	r16
    11c2:	1f 93       	push	r17
    11c4:	cf 93       	push	r28
    11c6:	c8 2f       	mov	r28, r24
	uint8_t clkCtrl = ( CLK.CTRL & ~CLK_SCLKSEL_gm ) | clockSource;
    11c8:	00 e4       	ldi	r16, 0x40	; 64
    11ca:	10 e0       	ldi	r17, 0x00	; 0
    11cc:	f8 01       	movw	r30, r16
    11ce:	60 81       	ld	r22, Z
    11d0:	68 7f       	andi	r22, 0xF8	; 248
    11d2:	68 2b       	or	r22, r24
	CCPWrite( &CLK.CTRL, clkCtrl );
    11d4:	80 e4       	ldi	r24, 0x40	; 64
    11d6:	90 e0       	ldi	r25, 0x00	; 0
    11d8:	0e 94 c1 08 	call	0x1182	; 0x1182 <CCPWrite>
	clkCtrl = ( CLK.CTRL & clockSource );
    11dc:	f8 01       	movw	r30, r16
    11de:	80 81       	ld	r24, Z
	return clkCtrl;
}
    11e0:	8c 23       	and	r24, r28
    11e2:	cf 91       	pop	r28
    11e4:	1f 91       	pop	r17
    11e6:	0f 91       	pop	r16
    11e8:	08 95       	ret

000011ea <USB_Event_Stub>:
#define  __INCLUDE_FROM_EVENTS_C
#define  __INCLUDE_FROM_USB_DRIVER
#include "Events.h"

void USB_Event_Stub(void)
{
    11ea:	08 95       	ret

000011ec <Endpoint_SelectEndpoint>:

void Endpoint_SelectEndpoint(const uint8_t Address)
{
	uint8_t EndpointNumber = (Address & ENDPOINT_EPNUM_MASK);

	USB_Endpoint_SelectedEndpoint = Address;
    11ec:	80 93 dc 24 	sts	0x24DC, r24
	USB_Endpoint_SelectedFIFO->Data[USB_Endpoint_SelectedFIFO->Position++] = Data;
}

void Endpoint_SelectEndpoint(const uint8_t Address)
{
	uint8_t EndpointNumber = (Address & ENDPOINT_EPNUM_MASK);
    11f0:	28 2f       	mov	r18, r24
    11f2:	2f 70       	andi	r18, 0x0F	; 15

	USB_Endpoint_SelectedEndpoint = Address;

	Endpoint_FIFOPair_t* EndpointFIFOPair = &USB_Endpoint_FIFOs[EndpointNumber];
    11f4:	30 e0       	ldi	r19, 0x00	; 0
	USB_EndpointTable_t* EndpointTable    = (USB_EndpointTable_t*)USB.EPPTR;
    11f6:	40 91 c6 04 	lds	r20, 0x04C6
    11fa:	50 91 c7 04 	lds	r21, 0x04C7

	if (Address & ENDPOINT_DIR_IN)
    11fe:	88 23       	and	r24, r24
    1200:	e4 f4       	brge	.+56     	; 0x123a <Endpoint_SelectEndpoint+0x4e>
	{
		USB_Endpoint_SelectedFIFO   = &EndpointFIFOPair->IN;
    1202:	64 e8       	ldi	r22, 0x84	; 132
    1204:	62 9f       	mul	r22, r18
    1206:	c0 01       	movw	r24, r0
    1208:	63 9f       	mul	r22, r19
    120a:	90 0d       	add	r25, r0
    120c:	11 24       	eor	r1, r1
    120e:	81 5e       	subi	r24, 0xE1	; 225
    1210:	9a 4d       	sbci	r25, 0xDA	; 218
    1212:	80 93 d8 24 	sts	0x24D8, r24
    1216:	90 93 d9 24 	sts	0x24D9, r25
		USB_Endpoint_SelectedHandle = &EndpointTable->Endpoints[EndpointNumber].IN;
    121a:	c9 01       	movw	r24, r18
    121c:	82 95       	swap	r24
    121e:	92 95       	swap	r25
    1220:	90 7f       	andi	r25, 0xF0	; 240
    1222:	98 27       	eor	r25, r24
    1224:	80 7f       	andi	r24, 0xF0	; 240
    1226:	98 27       	eor	r25, r24
    1228:	08 96       	adiw	r24, 0x08	; 8
    122a:	9a 01       	movw	r18, r20
    122c:	28 0f       	add	r18, r24
    122e:	39 1f       	adc	r19, r25
    1230:	20 93 da 24 	sts	0x24DA, r18
    1234:	30 93 db 24 	sts	0x24DB, r19
    1238:	08 95       	ret
	}
	else
	{
		USB_Endpoint_SelectedFIFO   = &EndpointFIFOPair->OUT;
    123a:	64 e8       	ldi	r22, 0x84	; 132
    123c:	62 9f       	mul	r22, r18
    123e:	c0 01       	movw	r24, r0
    1240:	63 9f       	mul	r22, r19
    1242:	90 0d       	add	r25, r0
    1244:	11 24       	eor	r1, r1
    1246:	83 52       	subi	r24, 0x23	; 35
    1248:	9b 4d       	sbci	r25, 0xDB	; 219
    124a:	80 93 d8 24 	sts	0x24D8, r24
    124e:	90 93 d9 24 	sts	0x24D9, r25
		USB_Endpoint_SelectedHandle = &EndpointTable->Endpoints[EndpointNumber].OUT;
    1252:	22 95       	swap	r18
    1254:	32 95       	swap	r19
    1256:	30 7f       	andi	r19, 0xF0	; 240
    1258:	32 27       	eor	r19, r18
    125a:	20 7f       	andi	r18, 0xF0	; 240
    125c:	32 27       	eor	r19, r18
    125e:	24 0f       	add	r18, r20
    1260:	35 1f       	adc	r19, r21
    1262:	20 93 da 24 	sts	0x24DA, r18
    1266:	30 93 db 24 	sts	0x24DB, r19
    126a:	08 95       	ret

0000126c <Endpoint_ConfigureEndpoint_PRV>:
}

bool Endpoint_ConfigureEndpoint_PRV(const uint8_t Address,
                                    const uint8_t Config,
                                    const uint8_t Size)
{
    126c:	1f 93       	push	r17
    126e:	cf 93       	push	r28
    1270:	df 93       	push	r29
    1272:	d8 2f       	mov	r29, r24
    1274:	16 2f       	mov	r17, r22
    1276:	c4 2f       	mov	r28, r20
	Endpoint_SelectEndpoint(Address);
    1278:	0e 94 f6 08 	call	0x11ec	; 0x11ec <Endpoint_SelectEndpoint>

	USB_Endpoint_SelectedHandle->CTRL    = 0;
    127c:	e0 91 da 24 	lds	r30, 0x24DA
    1280:	f0 91 db 24 	lds	r31, 0x24DB
    1284:	11 82       	std	Z+1, r1	; 0x01
	USB_Endpoint_SelectedHandle->STATUS  = (Address & ENDPOINT_DIR_IN) ? USB_EP_BUSNACK0_bm : 0;
    1286:	e0 91 da 24 	lds	r30, 0x24DA
    128a:	f0 91 db 24 	lds	r31, 0x24DB
    128e:	dd 23       	and	r29, r29
    1290:	a4 f0       	brlt	.+40     	; 0x12ba <Endpoint_ConfigureEndpoint_PRV+0x4e>
    1292:	10 82       	st	Z, r1
	USB_Endpoint_SelectedHandle->CTRL    = Config;
    1294:	e0 91 da 24 	lds	r30, 0x24DA
    1298:	f0 91 db 24 	lds	r31, 0x24DB
    129c:	11 83       	std	Z+1, r17	; 0x01
	USB_Endpoint_SelectedHandle->CNT     = 0;
    129e:	e0 91 da 24 	lds	r30, 0x24DA
    12a2:	f0 91 db 24 	lds	r31, 0x24DB
    12a6:	12 82       	std	Z+2, r1	; 0x02
    12a8:	13 82       	std	Z+3, r1	; 0x03
	USB_Endpoint_SelectedHandle->DATAPTR = (intptr_t)USB_Endpoint_SelectedFIFO->Data;
    12aa:	80 91 d8 24 	lds	r24, 0x24D8
    12ae:	90 91 d9 24 	lds	r25, 0x24D9
    12b2:	84 83       	std	Z+4, r24	; 0x04
    12b4:	95 83       	std	Z+5, r25	; 0x05

	USB_Endpoint_SelectedFIFO->Length    = (Address & ENDPOINT_DIR_IN) ? Size : 0;
    12b6:	40 e0       	ldi	r20, 0x00	; 0
    12b8:	14 c0       	rjmp	.+40     	; 0x12e2 <Endpoint_ConfigureEndpoint_PRV+0x76>
                                    const uint8_t Size)
{
	Endpoint_SelectEndpoint(Address);

	USB_Endpoint_SelectedHandle->CTRL    = 0;
	USB_Endpoint_SelectedHandle->STATUS  = (Address & ENDPOINT_DIR_IN) ? USB_EP_BUSNACK0_bm : 0;
    12ba:	82 e0       	ldi	r24, 0x02	; 2
    12bc:	80 83       	st	Z, r24
	USB_Endpoint_SelectedHandle->CTRL    = Config;
    12be:	e0 91 da 24 	lds	r30, 0x24DA
    12c2:	f0 91 db 24 	lds	r31, 0x24DB
    12c6:	11 83       	std	Z+1, r17	; 0x01
	USB_Endpoint_SelectedHandle->CNT     = 0;
    12c8:	e0 91 da 24 	lds	r30, 0x24DA
    12cc:	f0 91 db 24 	lds	r31, 0x24DB
    12d0:	12 82       	std	Z+2, r1	; 0x02
    12d2:	13 82       	std	Z+3, r1	; 0x03
	USB_Endpoint_SelectedHandle->DATAPTR = (intptr_t)USB_Endpoint_SelectedFIFO->Data;
    12d4:	80 91 d8 24 	lds	r24, 0x24D8
    12d8:	90 91 d9 24 	lds	r25, 0x24D9
    12dc:	84 83       	std	Z+4, r24	; 0x04
    12de:	95 83       	std	Z+5, r25	; 0x05

	USB_Endpoint_SelectedFIFO->Length    = (Address & ENDPOINT_DIR_IN) ? Size : 0;
    12e0:	4c 2f       	mov	r20, r28
    12e2:	fc 01       	movw	r30, r24
    12e4:	e0 5c       	subi	r30, 0xC0	; 192
    12e6:	ff 4f       	sbci	r31, 0xFF	; 255
    12e8:	40 83       	st	Z, r20
	USB_Endpoint_SelectedFIFO->Position  = 0;
    12ea:	31 96       	adiw	r30, 0x01	; 1
    12ec:	10 82       	st	Z, r1

	return true;
}
    12ee:	81 e0       	ldi	r24, 0x01	; 1
    12f0:	df 91       	pop	r29
    12f2:	cf 91       	pop	r28
    12f4:	1f 91       	pop	r17
    12f6:	08 95       	ret

000012f8 <Endpoint_ClearEndpoints>:

void Endpoint_ClearEndpoints(void)
{
    12f8:	20 e0       	ldi	r18, 0x00	; 0
    12fa:	30 e0       	ldi	r19, 0x00	; 0
	for (uint8_t EPNum = 0; EPNum < ENDPOINT_TOTAL_ENDPOINTS; EPNum++)
	{
		((USB_EndpointTable_t*)USB.EPPTR)->Endpoints[EPNum].IN.CTRL  = 0;
    12fc:	a0 ec       	ldi	r26, 0xC0	; 192
    12fe:	b4 e0       	ldi	r27, 0x04	; 4
    1300:	16 96       	adiw	r26, 0x06	; 6
    1302:	ed 91       	ld	r30, X+
    1304:	fc 91       	ld	r31, X
    1306:	17 97       	sbiw	r26, 0x07	; 7
    1308:	c9 01       	movw	r24, r18
    130a:	82 95       	swap	r24
    130c:	92 95       	swap	r25
    130e:	90 7f       	andi	r25, 0xF0	; 240
    1310:	98 27       	eor	r25, r24
    1312:	80 7f       	andi	r24, 0xF0	; 240
    1314:	98 27       	eor	r25, r24
    1316:	e8 0f       	add	r30, r24
    1318:	f9 1f       	adc	r31, r25
    131a:	11 86       	std	Z+9, r1	; 0x09
		((USB_EndpointTable_t*)USB.EPPTR)->Endpoints[EPNum].OUT.CTRL = 0;
    131c:	16 96       	adiw	r26, 0x06	; 6
    131e:	4d 91       	ld	r20, X+
    1320:	5c 91       	ld	r21, X
    1322:	17 97       	sbiw	r26, 0x07	; 7
    1324:	fa 01       	movw	r30, r20
    1326:	e8 0f       	add	r30, r24
    1328:	f9 1f       	adc	r31, r25
    132a:	11 82       	std	Z+1, r1	; 0x01
    132c:	2f 5f       	subi	r18, 0xFF	; 255
    132e:	3f 4f       	sbci	r19, 0xFF	; 255
	return true;
}

void Endpoint_ClearEndpoints(void)
{
	for (uint8_t EPNum = 0; EPNum < ENDPOINT_TOTAL_ENDPOINTS; EPNum++)
    1330:	25 30       	cpi	r18, 0x05	; 5
    1332:	31 05       	cpc	r19, r1
    1334:	29 f7       	brne	.-54     	; 0x1300 <Endpoint_ClearEndpoints+0x8>
	{
		((USB_EndpointTable_t*)USB.EPPTR)->Endpoints[EPNum].IN.CTRL  = 0;
		((USB_EndpointTable_t*)USB.EPPTR)->Endpoints[EPNum].OUT.CTRL = 0;
	}
}
    1336:	08 95       	ret

00001338 <__vector_125>:
	USB.INTFLAGSACLR = 0xFF;
	USB.INTFLAGSBCLR = 0xFF;
}

ISR(USB_BUSEVENT_vect)
{
    1338:	1f 92       	push	r1
    133a:	0f 92       	push	r0
    133c:	0f b6       	in	r0, 0x3f	; 63
    133e:	0f 92       	push	r0
    1340:	11 24       	eor	r1, r1
    1342:	0b b6       	in	r0, 0x3b	; 59
    1344:	0f 92       	push	r0
    1346:	2f 93       	push	r18
    1348:	3f 93       	push	r19
    134a:	4f 93       	push	r20
    134c:	5f 93       	push	r21
    134e:	6f 93       	push	r22
    1350:	7f 93       	push	r23
    1352:	8f 93       	push	r24
    1354:	9f 93       	push	r25
    1356:	af 93       	push	r26
    1358:	bf 93       	push	r27
    135a:	ef 93       	push	r30
    135c:	ff 93       	push	r31
					case USB_INT_BUSEVENTI_Resume:
						return ((USB.INTFLAGSACLR & USB_RESUMEIF_bm) ? true : false);
					case USB_INT_BUSEVENTI_Reset:
						return ((USB.INTFLAGSACLR & USB_RSTIF_bm) ? true : false);
					case USB_INT_SOFI:
						return ((USB.INTFLAGSACLR & USB_SOFIF_bm) ? true : false);
    135e:	80 91 ca 04 	lds	r24, 0x04CA
	#if !defined(NO_SOF_EVENTS)
	if (USB_INT_HasOccurred(USB_INT_SOFI) && USB_INT_IsEnabled(USB_INT_SOFI))
    1362:	88 23       	and	r24, r24
    1364:	4c f4       	brge	.+18     	; 0x1378 <__vector_125+0x40>
				switch (Interrupt)
				{
					case USB_INT_BUSEVENTI:
						return ((USB.INTCTRLA & USB_BUSEVIE_bm) ? true : false);
					case USB_INT_SOFI:
						return ((USB.INTCTRLA & USB_SOFIE_bm) ? true : false);
    1366:	80 91 c8 04 	lds	r24, 0x04C8
    136a:	88 23       	and	r24, r24
    136c:	2c f4       	brge	.+10     	; 0x1378 <__vector_125+0x40>
						break;
					case USB_INT_BUSEVENTI_Reset:
						USB.INTFLAGSACLR = USB_RSTIF_bm;
						break;
					case USB_INT_SOFI:
						USB.INTFLAGSACLR = USB_SOFIF_bm;
    136e:	80 e8       	ldi	r24, 0x80	; 128
    1370:	80 93 ca 04 	sts	0x04CA, r24
	{
		USB_INT_Clear(USB_INT_SOFI);

		EVENT_USB_Device_StartOfFrame();
    1374:	0e 94 0b 08 	call	0x1016	; 0x1016 <EVENT_USB_Device_StartOfFrame>
			static inline bool USB_INT_HasOccurred(const uint8_t Interrupt)
			{
				switch (Interrupt)
				{
					case USB_INT_BUSEVENTI_Suspend:
						return ((USB.INTFLAGSACLR & USB_SUSPENDIF_bm) ? true : false);
    1378:	80 91 ca 04 	lds	r24, 0x04CA
	}
	#endif

	if (USB_INT_HasOccurred(USB_INT_BUSEVENTI_Suspend))
    137c:	86 ff       	sbrs	r24, 6
    137e:	07 c0       	rjmp	.+14     	; 0x138e <__vector_125+0x56>
			static inline void USB_INT_Clear(const uint8_t Interrupt)
			{
				switch (Interrupt)
				{
					case USB_INT_BUSEVENTI_Suspend:
						USB.INTFLAGSACLR = USB_SUSPENDIF_bm;
    1380:	80 e4       	ldi	r24, 0x40	; 64
    1382:	80 93 ca 04 	sts	0x04CA, r24
	{
		USB_INT_Clear(USB_INT_BUSEVENTI_Suspend);

		#if !defined(NO_LIMITED_CONTROLLER_CONNECT)
		USB_DeviceState = DEVICE_STATE_Unattached;
    1386:	10 92 cf 24 	sts	0x24CF, r1
		EVENT_USB_Device_Disconnect();
    138a:	0e 94 ff 07 	call	0xffe	; 0xffe <EVENT_USB_Device_Disconnect>
				switch (Interrupt)
				{
					case USB_INT_BUSEVENTI_Suspend:
						return ((USB.INTFLAGSACLR & USB_SUSPENDIF_bm) ? true : false);
					case USB_INT_BUSEVENTI_Resume:
						return ((USB.INTFLAGSACLR & USB_RESUMEIF_bm) ? true : false);
    138e:	80 91 ca 04 	lds	r24, 0x04CA
		USB_DeviceState = DEVICE_STATE_Suspended;
		EVENT_USB_Device_Suspend();
		#endif
	}

	if (USB_INT_HasOccurred(USB_INT_BUSEVENTI_Resume))
    1392:	85 ff       	sbrs	r24, 5
    1394:	16 c0       	rjmp	.+44     	; 0x13c2 <__vector_125+0x8a>
				{
					case USB_INT_BUSEVENTI_Suspend:
						USB.INTFLAGSACLR = USB_SUSPENDIF_bm;
						break;
					case USB_INT_BUSEVENTI_Resume:
						USB.INTFLAGSACLR = USB_RESUMEIF_bm;
    1396:	80 e2       	ldi	r24, 0x20	; 32
    1398:	80 93 ca 04 	sts	0x04CA, r24
	{
		USB_INT_Clear(USB_INT_BUSEVENTI_Resume);

		if (USB_Device_ConfigurationNumber)
    139c:	80 91 cb 24 	lds	r24, 0x24CB
    13a0:	88 23       	and	r24, r24
    13a2:	21 f0       	breq	.+8      	; 0x13ac <__vector_125+0x74>
		  USB_DeviceState = DEVICE_STATE_Configured;
    13a4:	84 e0       	ldi	r24, 0x04	; 4
    13a6:	80 93 cf 24 	sts	0x24CF, r24
    13aa:	09 c0       	rjmp	.+18     	; 0x13be <__vector_125+0x86>
			}

			static inline bool USB_Device_IsAddressSet(void) ATTR_ALWAYS_INLINE ATTR_WARN_UNUSED_RESULT;
			static inline bool USB_Device_IsAddressSet(void)
			{
				return ((USB.ADDR != 0) ? true : false);
    13ac:	80 91 c3 04 	lds	r24, 0x04C3
		else
		  USB_DeviceState = (USB_Device_IsAddressSet()) ? DEVICE_STATE_Addressed : DEVICE_STATE_Powered;
    13b0:	81 11       	cpse	r24, r1
    13b2:	02 c0       	rjmp	.+4      	; 0x13b8 <__vector_125+0x80>
    13b4:	81 e0       	ldi	r24, 0x01	; 1
    13b6:	01 c0       	rjmp	.+2      	; 0x13ba <__vector_125+0x82>
    13b8:	83 e0       	ldi	r24, 0x03	; 3
    13ba:	80 93 cf 24 	sts	0x24CF, r24

		#if !defined(NO_LIMITED_CONTROLLER_CONNECT)
		EVENT_USB_Device_Connect();
    13be:	0e 94 f2 07 	call	0xfe4	; 0xfe4 <EVENT_USB_Device_Connect>
					case USB_INT_BUSEVENTI_Suspend:
						return ((USB.INTFLAGSACLR & USB_SUSPENDIF_bm) ? true : false);
					case USB_INT_BUSEVENTI_Resume:
						return ((USB.INTFLAGSACLR & USB_RESUMEIF_bm) ? true : false);
					case USB_INT_BUSEVENTI_Reset:
						return ((USB.INTFLAGSACLR & USB_RSTIF_bm) ? true : false);
    13c2:	80 91 ca 04 	lds	r24, 0x04CA
		#else
		EVENT_USB_Device_WakeUp();
		#endif
	}

	if (USB_INT_HasOccurred(USB_INT_BUSEVENTI_Reset))
    13c6:	84 ff       	sbrs	r24, 4
    13c8:	18 c0       	rjmp	.+48     	; 0x13fa <__vector_125+0xc2>
						break;
					case USB_INT_BUSEVENTI_Resume:
						USB.INTFLAGSACLR = USB_RESUMEIF_bm;
						break;
					case USB_INT_BUSEVENTI_Reset:
						USB.INTFLAGSACLR = USB_RSTIF_bm;
    13ca:	e0 ec       	ldi	r30, 0xC0	; 192
    13cc:	f4 e0       	ldi	r31, 0x04	; 4
    13ce:	80 e1       	ldi	r24, 0x10	; 16
    13d0:	82 87       	std	Z+10, r24	; 0x0a
	{
		USB_INT_Clear(USB_INT_BUSEVENTI_Reset);

		USB_DeviceState                = DEVICE_STATE_Default;
    13d2:	82 e0       	ldi	r24, 0x02	; 2
    13d4:	80 93 cf 24 	sts	0x24CF, r24
		USB_Device_ConfigurationNumber = 0;
    13d8:	10 92 cb 24 	sts	0x24CB, r1
			}

			static inline void USB_Device_EnableDeviceAddress(const uint8_t Address) ATTR_ALWAYS_INLINE;
			static inline void USB_Device_EnableDeviceAddress(const uint8_t Address)
			{
				USB.ADDR = Address;
    13dc:	13 82       	std	Z+3, r1	; 0x03

		USB_Device_EnableDeviceAddress(0);

		Endpoint_ClearEndpoints();
    13de:	0e 94 7c 09 	call	0x12f8	; 0x12f8 <Endpoint_ClearEndpoints>
						EPConfigMask |= USB_EP_TYPE_BULK_gc;
						break;
				}

				if (Type == EP_TYPE_CONTROL)
				  Endpoint_ConfigureEndpoint_PRV(Address ^ ENDPOINT_DIR_IN, EPConfigMask, Size);
    13e2:	48 e0       	ldi	r20, 0x08	; 8
    13e4:	68 e4       	ldi	r22, 0x48	; 72
    13e6:	80 e8       	ldi	r24, 0x80	; 128
    13e8:	0e 94 36 09 	call	0x126c	; 0x126c <Endpoint_ConfigureEndpoint_PRV>

				return Endpoint_ConfigureEndpoint_PRV(Address, EPConfigMask, Size);
    13ec:	48 e0       	ldi	r20, 0x08	; 8
    13ee:	68 e4       	ldi	r22, 0x48	; 72
    13f0:	80 e0       	ldi	r24, 0x00	; 0
    13f2:	0e 94 36 09 	call	0x126c	; 0x126c <Endpoint_ConfigureEndpoint_PRV>
		Endpoint_ConfigureEndpoint(ENDPOINT_CONTROLEP, EP_TYPE_CONTROL,
		                           USB_Device_ControlEndpointSize, 1);

		EVENT_USB_Device_Reset();
    13f6:	0e 94 f5 08 	call	0x11ea	; 0x11ea <USB_Event_Stub>
	}
}
    13fa:	ff 91       	pop	r31
    13fc:	ef 91       	pop	r30
    13fe:	bf 91       	pop	r27
    1400:	af 91       	pop	r26
    1402:	9f 91       	pop	r25
    1404:	8f 91       	pop	r24
    1406:	7f 91       	pop	r23
    1408:	6f 91       	pop	r22
    140a:	5f 91       	pop	r21
    140c:	4f 91       	pop	r20
    140e:	3f 91       	pop	r19
    1410:	2f 91       	pop	r18
    1412:	0f 90       	pop	r0
    1414:	0b be       	out	0x3b, r0	; 59
    1416:	0f 90       	pop	r0
    1418:	0f be       	out	0x3f, r0	; 63
    141a:	0f 90       	pop	r0
    141c:	1f 90       	pop	r1
    141e:	18 95       	reti

00001420 <rtc_initialize>:
/*
 *	initialize the rtc
 */
void rtc_initialize(){
	//enabling interrupt all three level, high, mid, and low
	PMIC_CTRL |= (7<<0);
    1420:	e2 ea       	ldi	r30, 0xA2	; 162
    1422:	f0 e0       	ldi	r31, 0x00	; 0
    1424:	80 81       	ld	r24, Z
    1426:	87 60       	ori	r24, 0x07	; 7
    1428:	80 83       	st	Z, r24
	//selecting clock source 32.768kHz from 32.768kHz crystal oscillator on TOSC, enabling RTC clock source
	CLK_RTCCTRL = (5<<1) | (1<<0);//crystal oscillator on TOSC| enabling clock
    142a:	8b e0       	ldi	r24, 0x0B	; 11
    142c:	80 93 43 00 	sts	0x0043, r24
	//enabling interrupts for overflow
	RTC_INTCTRL	|= (0b00000001);
    1430:	e2 e0       	ldi	r30, 0x02	; 2
    1432:	f4 e0       	ldi	r31, 0x04	; 4
    1434:	80 81       	ld	r24, Z
    1436:	81 60       	ori	r24, 0x01	; 1
    1438:	80 83       	st	Z, r24
	RTC_PER = RTC_PER_VAL; //period_val  = 2
    143a:	80 e2       	ldi	r24, 0x20	; 32
    143c:	90 e0       	ldi	r25, 0x00	; 0
    143e:	80 93 0a 04 	sts	0x040A, r24
    1442:	90 93 0b 04 	sts	0x040B, r25
	//selecting clock prescaling
	RTC_CTRL = (1<<0);//no prescaling
    1446:	81 e0       	ldi	r24, 0x01	; 1
    1448:	80 93 00 04 	sts	0x0400, r24
	sei();
    144c:	78 94       	sei
    144e:	08 95       	ret

00001450 <__vector_10>:

/*
 *	interrupt service routine for overflow interrupt event
 */
ISR(RTC_OVF_vect)
{
    1450:	1f 92       	push	r1
    1452:	0f 92       	push	r0
    1454:	0f b6       	in	r0, 0x3f	; 63
    1456:	0f 92       	push	r0
    1458:	11 24       	eor	r1, r1
    145a:	0b b6       	in	r0, 0x3b	; 59
    145c:	0f 92       	push	r0
    145e:	2f 93       	push	r18
    1460:	3f 93       	push	r19
    1462:	4f 93       	push	r20
    1464:	5f 93       	push	r21
    1466:	6f 93       	push	r22
    1468:	7f 93       	push	r23
    146a:	8f 93       	push	r24
    146c:	9f 93       	push	r25
    146e:	af 93       	push	r26
    1470:	bf 93       	push	r27
    1472:	ef 93       	push	r30
    1474:	ff 93       	push	r31
	#if (USE_RTC_TICK == 1)
	rtc_tick_global++;	
    1476:	80 91 be 24 	lds	r24, 0x24BE
    147a:	90 91 bf 24 	lds	r25, 0x24BF
    147e:	a0 91 c0 24 	lds	r26, 0x24C0
    1482:	b0 91 c1 24 	lds	r27, 0x24C1
    1486:	01 96       	adiw	r24, 0x01	; 1
    1488:	a1 1d       	adc	r26, r1
    148a:	b1 1d       	adc	r27, r1
    148c:	80 93 be 24 	sts	0x24BE, r24
    1490:	90 93 bf 24 	sts	0x24BF, r25
    1494:	a0 93 c0 24 	sts	0x24C0, r26
    1498:	b0 93 c1 24 	sts	0x24C1, r27
	#endif
	
	system_tick();
    149c:	0e 94 6d 0a 	call	0x14da	; 0x14da <system_tick>

	
}
    14a0:	ff 91       	pop	r31
    14a2:	ef 91       	pop	r30
    14a4:	bf 91       	pop	r27
    14a6:	af 91       	pop	r26
    14a8:	9f 91       	pop	r25
    14aa:	8f 91       	pop	r24
    14ac:	7f 91       	pop	r23
    14ae:	6f 91       	pop	r22
    14b0:	5f 91       	pop	r21
    14b2:	4f 91       	pop	r20
    14b4:	3f 91       	pop	r19
    14b6:	2f 91       	pop	r18
    14b8:	0f 90       	pop	r0
    14ba:	0b be       	out	0x3b, r0	; 59
    14bc:	0f 90       	pop	r0
    14be:	0f be       	out	0x3f, r0	; 63
    14c0:	0f 90       	pop	r0
    14c2:	1f 90       	pop	r1
    14c4:	18 95       	reti

000014c6 <__vector_11>:

/*
 *	interrupt service routine for compare interrupt event
 */
ISR(RTC_COMP_vect)
{
    14c6:	1f 92       	push	r1
    14c8:	0f 92       	push	r0
    14ca:	0f b6       	in	r0, 0x3f	; 63
    14cc:	0f 92       	push	r0
    14ce:	11 24       	eor	r1, r1


}
    14d0:	0f 90       	pop	r0
    14d2:	0f be       	out	0x3f, r0	; 63
    14d4:	0f 90       	pop	r0
    14d6:	1f 90       	pop	r1
    14d8:	18 95       	reti

000014da <system_tick>:



void            system_tick(void){
	
	__system_time++;
    14da:	80 91 c7 24 	lds	r24, 0x24C7
    14de:	90 91 c8 24 	lds	r25, 0x24C8
    14e2:	a0 91 c9 24 	lds	r26, 0x24C9
    14e6:	b0 91 ca 24 	lds	r27, 0x24CA
    14ea:	01 96       	adiw	r24, 0x01	; 1
    14ec:	a1 1d       	adc	r26, r1
    14ee:	b1 1d       	adc	r27, r1
    14f0:	80 93 c7 24 	sts	0x24C7, r24
    14f4:	90 93 c8 24 	sts	0x24C8, r25
    14f8:	a0 93 c9 24 	sts	0x24C9, r26
    14fc:	b0 93 ca 24 	sts	0x24CA, r27
    1500:	08 95       	ret

00001502 <__udivmodsi4>:
    1502:	a1 e2       	ldi	r26, 0x21	; 33
    1504:	1a 2e       	mov	r1, r26
    1506:	aa 1b       	sub	r26, r26
    1508:	bb 1b       	sub	r27, r27
    150a:	fd 01       	movw	r30, r26
    150c:	0d c0       	rjmp	.+26     	; 0x1528 <__udivmodsi4_ep>

0000150e <__udivmodsi4_loop>:
    150e:	aa 1f       	adc	r26, r26
    1510:	bb 1f       	adc	r27, r27
    1512:	ee 1f       	adc	r30, r30
    1514:	ff 1f       	adc	r31, r31
    1516:	a2 17       	cp	r26, r18
    1518:	b3 07       	cpc	r27, r19
    151a:	e4 07       	cpc	r30, r20
    151c:	f5 07       	cpc	r31, r21
    151e:	20 f0       	brcs	.+8      	; 0x1528 <__udivmodsi4_ep>
    1520:	a2 1b       	sub	r26, r18
    1522:	b3 0b       	sbc	r27, r19
    1524:	e4 0b       	sbc	r30, r20
    1526:	f5 0b       	sbc	r31, r21

00001528 <__udivmodsi4_ep>:
    1528:	66 1f       	adc	r22, r22
    152a:	77 1f       	adc	r23, r23
    152c:	88 1f       	adc	r24, r24
    152e:	99 1f       	adc	r25, r25
    1530:	1a 94       	dec	r1
    1532:	69 f7       	brne	.-38     	; 0x150e <__udivmodsi4_loop>
    1534:	60 95       	com	r22
    1536:	70 95       	com	r23
    1538:	80 95       	com	r24
    153a:	90 95       	com	r25
    153c:	9b 01       	movw	r18, r22
    153e:	ac 01       	movw	r20, r24
    1540:	bd 01       	movw	r22, r26
    1542:	cf 01       	movw	r24, r30
    1544:	08 95       	ret

00001546 <__ashrdi3>:
    1546:	97 fb       	bst	r25, 7
    1548:	10 f8       	bld	r1, 0

0000154a <__lshrdi3>:
    154a:	16 94       	lsr	r1
    154c:	00 08       	sbc	r0, r0
    154e:	0f 93       	push	r16
    1550:	08 30       	cpi	r16, 0x08	; 8
    1552:	98 f0       	brcs	.+38     	; 0x157a <__lshrdi3+0x30>
    1554:	08 50       	subi	r16, 0x08	; 8
    1556:	23 2f       	mov	r18, r19
    1558:	34 2f       	mov	r19, r20
    155a:	45 2f       	mov	r20, r21
    155c:	56 2f       	mov	r21, r22
    155e:	67 2f       	mov	r22, r23
    1560:	78 2f       	mov	r23, r24
    1562:	89 2f       	mov	r24, r25
    1564:	90 2d       	mov	r25, r0
    1566:	f4 cf       	rjmp	.-24     	; 0x1550 <__lshrdi3+0x6>
    1568:	05 94       	asr	r0
    156a:	97 95       	ror	r25
    156c:	87 95       	ror	r24
    156e:	77 95       	ror	r23
    1570:	67 95       	ror	r22
    1572:	57 95       	ror	r21
    1574:	47 95       	ror	r20
    1576:	37 95       	ror	r19
    1578:	27 95       	ror	r18
    157a:	0a 95       	dec	r16
    157c:	aa f7       	brpl	.-22     	; 0x1568 <__lshrdi3+0x1e>
    157e:	0f 91       	pop	r16
    1580:	08 95       	ret

00001582 <_exit>:
    1582:	f8 94       	cli

00001584 <__stop_program>:
    1584:	ff cf       	rjmp	.-2      	; 0x1584 <__stop_program>
