
penguin.elf:     file format elf32-avr

Sections:
Idx Name          Size      VMA       LMA       File off  Algn
  0 .text         00004d8e  00000000  00000000  00000094  2**1
                  CONTENTS, ALLOC, LOAD, READONLY, CODE
  1 .data         0000036a  00802000  00004d8e  00004e22  2**0
                  CONTENTS, ALLOC, LOAD, DATA
  2 .bss          000075db  0080236a  0080236a  0000518c  2**0
                  ALLOC
  3 .comment      0000008c  00000000  00000000  0000518c  2**0
                  CONTENTS, READONLY
  4 .note.gnu.avr.deviceinfo 00000040  00000000  00000000  00005218  2**2
                  CONTENTS, READONLY
  5 .debug_aranges 00000bb0  00000000  00000000  00005258  2**0
                  CONTENTS, READONLY, DEBUGGING
  6 .debug_info   00013aa7  00000000  00000000  00005e08  2**0
                  CONTENTS, READONLY, DEBUGGING
  7 .debug_abbrev 00002f7e  00000000  00000000  000198af  2**0
                  CONTENTS, READONLY, DEBUGGING
  8 .debug_line   00007d29  00000000  00000000  0001c82d  2**0
                  CONTENTS, READONLY, DEBUGGING
  9 .debug_frame  00002520  00000000  00000000  00024558  2**2
                  CONTENTS, READONLY, DEBUGGING
 10 .debug_str    00006f11  00000000  00000000  00026a78  2**0
                  CONTENTS, READONLY, DEBUGGING
 11 .debug_loc    0000a748  00000000  00000000  0002d989  2**0
                  CONTENTS, READONLY, DEBUGGING
 12 .debug_ranges 00000e68  00000000  00000000  000380d1  2**0
                  CONTENTS, READONLY, DEBUGGING

Disassembly of section .text:

00000000 <__vectors>:
       0:	0c 94 09 02 	jmp	0x412	; 0x412 <__ctors_end>
       4:	0c 94 2a 02 	jmp	0x454	; 0x454 <__bad_interrupt>
       8:	0c 94 2a 02 	jmp	0x454	; 0x454 <__bad_interrupt>
       c:	0c 94 2a 02 	jmp	0x454	; 0x454 <__bad_interrupt>
      10:	0c 94 2a 02 	jmp	0x454	; 0x454 <__bad_interrupt>
      14:	0c 94 2a 02 	jmp	0x454	; 0x454 <__bad_interrupt>
      18:	0c 94 2a 02 	jmp	0x454	; 0x454 <__bad_interrupt>
      1c:	0c 94 2a 02 	jmp	0x454	; 0x454 <__bad_interrupt>
      20:	0c 94 2a 02 	jmp	0x454	; 0x454 <__bad_interrupt>
      24:	0c 94 2a 02 	jmp	0x454	; 0x454 <__bad_interrupt>
      28:	0c 94 2a 02 	jmp	0x454	; 0x454 <__bad_interrupt>
      2c:	0c 94 2a 02 	jmp	0x454	; 0x454 <__bad_interrupt>
      30:	0c 94 2a 02 	jmp	0x454	; 0x454 <__bad_interrupt>
      34:	0c 94 2a 02 	jmp	0x454	; 0x454 <__bad_interrupt>
      38:	0c 94 1a 0b 	jmp	0x1634	; 0x1634 <__vector_14>
      3c:	0c 94 2a 02 	jmp	0x454	; 0x454 <__bad_interrupt>
      40:	0c 94 2a 02 	jmp	0x454	; 0x454 <__bad_interrupt>
      44:	0c 94 2a 02 	jmp	0x454	; 0x454 <__bad_interrupt>
      48:	0c 94 2a 02 	jmp	0x454	; 0x454 <__bad_interrupt>
      4c:	0c 94 2a 02 	jmp	0x454	; 0x454 <__bad_interrupt>
      50:	0c 94 2a 02 	jmp	0x454	; 0x454 <__bad_interrupt>
      54:	0c 94 2a 02 	jmp	0x454	; 0x454 <__bad_interrupt>
      58:	0c 94 2a 02 	jmp	0x454	; 0x454 <__bad_interrupt>
      5c:	0c 94 2a 02 	jmp	0x454	; 0x454 <__bad_interrupt>
      60:	0c 94 2a 02 	jmp	0x454	; 0x454 <__bad_interrupt>
      64:	0c 94 42 1f 	jmp	0x3e84	; 0x3e84 <__vector_25>
      68:	0c 94 56 1f 	jmp	0x3eac	; 0x3eac <__vector_26>
      6c:	0c 94 4c 1f 	jmp	0x3e98	; 0x3e98 <__vector_27>
      70:	0c 94 60 1f 	jmp	0x3ec0	; 0x3ec0 <__vector_28>
      74:	0c 94 74 1f 	jmp	0x3ee8	; 0x3ee8 <__vector_29>
      78:	0c 94 6a 1f 	jmp	0x3ed4	; 0x3ed4 <__vector_30>
      7c:	0c 94 2a 02 	jmp	0x454	; 0x454 <__bad_interrupt>
      80:	0c 94 2a 02 	jmp	0x454	; 0x454 <__bad_interrupt>
      84:	0c 94 2a 02 	jmp	0x454	; 0x454 <__bad_interrupt>
      88:	0c 94 2a 02 	jmp	0x454	; 0x454 <__bad_interrupt>
      8c:	0c 94 2a 02 	jmp	0x454	; 0x454 <__bad_interrupt>
      90:	0c 94 2a 02 	jmp	0x454	; 0x454 <__bad_interrupt>
      94:	0c 94 2a 02 	jmp	0x454	; 0x454 <__bad_interrupt>
      98:	0c 94 2a 02 	jmp	0x454	; 0x454 <__bad_interrupt>
      9c:	0c 94 2a 02 	jmp	0x454	; 0x454 <__bad_interrupt>
      a0:	0c 94 2a 02 	jmp	0x454	; 0x454 <__bad_interrupt>
      a4:	0c 94 2a 02 	jmp	0x454	; 0x454 <__bad_interrupt>
      a8:	0c 94 2a 02 	jmp	0x454	; 0x454 <__bad_interrupt>
      ac:	0c 94 2a 02 	jmp	0x454	; 0x454 <__bad_interrupt>
      b0:	0c 94 2a 02 	jmp	0x454	; 0x454 <__bad_interrupt>
      b4:	0c 94 2a 02 	jmp	0x454	; 0x454 <__bad_interrupt>
      b8:	0c 94 2a 02 	jmp	0x454	; 0x454 <__bad_interrupt>
      bc:	0c 94 2a 02 	jmp	0x454	; 0x454 <__bad_interrupt>
      c0:	0c 94 2a 02 	jmp	0x454	; 0x454 <__bad_interrupt>
      c4:	0c 94 2a 02 	jmp	0x454	; 0x454 <__bad_interrupt>
      c8:	0c 94 2a 02 	jmp	0x454	; 0x454 <__bad_interrupt>
      cc:	0c 94 2a 02 	jmp	0x454	; 0x454 <__bad_interrupt>
      d0:	0c 94 2a 02 	jmp	0x454	; 0x454 <__bad_interrupt>
      d4:	0c 94 2a 02 	jmp	0x454	; 0x454 <__bad_interrupt>
      d8:	0c 94 2a 02 	jmp	0x454	; 0x454 <__bad_interrupt>
      dc:	0c 94 2a 02 	jmp	0x454	; 0x454 <__bad_interrupt>
      e0:	0c 94 2a 02 	jmp	0x454	; 0x454 <__bad_interrupt>
      e4:	0c 94 2a 02 	jmp	0x454	; 0x454 <__bad_interrupt>
      e8:	0c 94 9c 1f 	jmp	0x3f38	; 0x3f38 <__vector_58>
      ec:	0c 94 b0 1f 	jmp	0x3f60	; 0x3f60 <__vector_59>
      f0:	0c 94 a6 1f 	jmp	0x3f4c	; 0x3f4c <__vector_60>
      f4:	0c 94 2a 02 	jmp	0x454	; 0x454 <__bad_interrupt>
      f8:	0c 94 2a 02 	jmp	0x454	; 0x454 <__bad_interrupt>
      fc:	0c 94 2a 02 	jmp	0x454	; 0x454 <__bad_interrupt>
     100:	0c 94 2a 02 	jmp	0x454	; 0x454 <__bad_interrupt>
     104:	0c 94 2a 02 	jmp	0x454	; 0x454 <__bad_interrupt>
     108:	0c 94 2a 02 	jmp	0x454	; 0x454 <__bad_interrupt>
     10c:	0c 94 2a 02 	jmp	0x454	; 0x454 <__bad_interrupt>
     110:	0c 94 2a 02 	jmp	0x454	; 0x454 <__bad_interrupt>
     114:	0c 94 2a 02 	jmp	0x454	; 0x454 <__bad_interrupt>
     118:	0c 94 2a 02 	jmp	0x454	; 0x454 <__bad_interrupt>
     11c:	0c 94 2a 02 	jmp	0x454	; 0x454 <__bad_interrupt>
     120:	0c 94 2a 02 	jmp	0x454	; 0x454 <__bad_interrupt>
     124:	0c 94 2a 02 	jmp	0x454	; 0x454 <__bad_interrupt>
     128:	0c 94 2a 02 	jmp	0x454	; 0x454 <__bad_interrupt>
     12c:	0c 94 2a 02 	jmp	0x454	; 0x454 <__bad_interrupt>
     130:	0c 94 2a 02 	jmp	0x454	; 0x454 <__bad_interrupt>
     134:	0c 94 2a 02 	jmp	0x454	; 0x454 <__bad_interrupt>
     138:	0c 94 2a 02 	jmp	0x454	; 0x454 <__bad_interrupt>
     13c:	0c 94 2a 02 	jmp	0x454	; 0x454 <__bad_interrupt>
     140:	0c 94 2a 02 	jmp	0x454	; 0x454 <__bad_interrupt>
     144:	0c 94 2a 02 	jmp	0x454	; 0x454 <__bad_interrupt>
     148:	0c 94 2a 02 	jmp	0x454	; 0x454 <__bad_interrupt>
     14c:	0c 94 2a 02 	jmp	0x454	; 0x454 <__bad_interrupt>
     150:	0c 94 2a 02 	jmp	0x454	; 0x454 <__bad_interrupt>
     154:	0c 94 2a 02 	jmp	0x454	; 0x454 <__bad_interrupt>
     158:	0c 94 2a 02 	jmp	0x454	; 0x454 <__bad_interrupt>
     15c:	0c 94 2a 02 	jmp	0x454	; 0x454 <__bad_interrupt>
     160:	0c 94 7e 1f 	jmp	0x3efc	; 0x3efc <__vector_88>
     164:	0c 94 92 1f 	jmp	0x3f24	; 0x3f24 <__vector_89>
     168:	0c 94 88 1f 	jmp	0x3f10	; 0x3f10 <__vector_90>
     16c:	0c 94 2a 02 	jmp	0x454	; 0x454 <__bad_interrupt>
     170:	0c 94 2a 02 	jmp	0x454	; 0x454 <__bad_interrupt>
     174:	0c 94 2a 02 	jmp	0x454	; 0x454 <__bad_interrupt>
     178:	0c 94 2a 02 	jmp	0x454	; 0x454 <__bad_interrupt>
     17c:	0c 94 2a 02 	jmp	0x454	; 0x454 <__bad_interrupt>
     180:	0c 94 2a 02 	jmp	0x454	; 0x454 <__bad_interrupt>
     184:	0c 94 2a 02 	jmp	0x454	; 0x454 <__bad_interrupt>
     188:	0c 94 2a 02 	jmp	0x454	; 0x454 <__bad_interrupt>
     18c:	0c 94 2a 02 	jmp	0x454	; 0x454 <__bad_interrupt>
     190:	0c 94 2a 02 	jmp	0x454	; 0x454 <__bad_interrupt>
     194:	0c 94 2a 02 	jmp	0x454	; 0x454 <__bad_interrupt>
     198:	0c 94 2a 02 	jmp	0x454	; 0x454 <__bad_interrupt>
     19c:	0c 94 2a 02 	jmp	0x454	; 0x454 <__bad_interrupt>
     1a0:	0c 94 2a 02 	jmp	0x454	; 0x454 <__bad_interrupt>
     1a4:	0c 94 2a 02 	jmp	0x454	; 0x454 <__bad_interrupt>
     1a8:	0c 94 2a 02 	jmp	0x454	; 0x454 <__bad_interrupt>
     1ac:	0c 94 2a 02 	jmp	0x454	; 0x454 <__bad_interrupt>
     1b0:	0c 94 2a 02 	jmp	0x454	; 0x454 <__bad_interrupt>
     1b4:	0c 94 2a 02 	jmp	0x454	; 0x454 <__bad_interrupt>
     1b8:	0c 94 2a 02 	jmp	0x454	; 0x454 <__bad_interrupt>
     1bc:	0c 94 2a 02 	jmp	0x454	; 0x454 <__bad_interrupt>
     1c0:	0c 94 2a 02 	jmp	0x454	; 0x454 <__bad_interrupt>
     1c4:	0c 94 2a 02 	jmp	0x454	; 0x454 <__bad_interrupt>
     1c8:	0c 94 2a 02 	jmp	0x454	; 0x454 <__bad_interrupt>
     1cc:	0c 94 2a 02 	jmp	0x454	; 0x454 <__bad_interrupt>
     1d0:	0c 94 2a 02 	jmp	0x454	; 0x454 <__bad_interrupt>
     1d4:	0c 94 2a 02 	jmp	0x454	; 0x454 <__bad_interrupt>
     1d8:	0c 94 2a 02 	jmp	0x454	; 0x454 <__bad_interrupt>
     1dc:	0c 94 2a 02 	jmp	0x454	; 0x454 <__bad_interrupt>
     1e0:	0c 94 2a 02 	jmp	0x454	; 0x454 <__bad_interrupt>
     1e4:	0c 94 2a 02 	jmp	0x454	; 0x454 <__bad_interrupt>
     1e8:	0c 94 2a 02 	jmp	0x454	; 0x454 <__bad_interrupt>
     1ec:	0c 94 2a 02 	jmp	0x454	; 0x454 <__bad_interrupt>
     1f0:	0c 94 2a 02 	jmp	0x454	; 0x454 <__bad_interrupt>
     1f4:	0c 94 94 16 	jmp	0x2d28	; 0x2d28 <__vector_125>
     1f8:	0c 94 2a 02 	jmp	0x454	; 0x454 <__bad_interrupt>
     1fc:	6c 11       	cpse	r22, r12
     1fe:	97 11       	cpse	r25, r7
     200:	6e 12       	cpse	r6, r30
     202:	97 11       	cpse	r25, r7
     204:	6e 12       	cpse	r6, r30
     206:	d2 11       	cpse	r29, r2
     208:	e9 11       	cpse	r30, r9
     20a:	6e 12       	cpse	r6, r30
     20c:	40 12       	cpse	r4, r16
     20e:	4d 12       	cpse	r4, r29

00000210 <__trampolines_start>:
     210:	0c 94 97 11 	jmp	0x232e	; 0x232e <USB_Device_ProcessControlRequest+0xbc>
     214:	0c 94 40 12 	jmp	0x2480	; 0x2480 <USB_Device_ProcessControlRequest+0x20e>
     218:	0c 94 4d 12 	jmp	0x249a	; 0x249a <USB_Device_ProcessControlRequest+0x228>
     21c:	0c 94 6c 11 	jmp	0x22d8	; 0x22d8 <USB_Device_ProcessControlRequest+0x66>
     220:	0c 94 26 1c 	jmp	0x384c	; 0x384c <thread_3>
     224:	0c 94 bf 17 	jmp	0x2f7e	; 0x2f7e <USBThread>
     228:	0c 94 e9 11 	jmp	0x23d2	; 0x23d2 <USB_Device_ProcessControlRequest+0x160>
     22c:	0c 94 dd 0b 	jmp	0x17ba	; 0x17ba <prvIdleTask>
     230:	0c 94 6e 12 	jmp	0x24dc	; 0x24dc <USB_Device_ProcessControlRequest+0x26a>
     234:	0c 94 58 1d 	jmp	0x3ab0	; 0x3ab0 <thread_4>
     238:	0c 94 08 17 	jmp	0x2e10	; 0x2e10 <thread_6>
     23c:	0c 94 86 0f 	jmp	0x1f0c	; 0x1f0c <CDC_Device_putchar>
     240:	0c 94 d2 11 	jmp	0x23a4	; 0x23a4 <USB_Device_ProcessControlRequest+0x132>
     244:	0c 94 6f 10 	jmp	0x20de	; 0x20de <CDC_Device_getchar>

00000248 <__trampolines_end>:
     248:	6e 61       	ori	r22, 0x1E	; 30
     24a:	6e 00       	.word	0x006e	; ????

0000024c <__c.2240>:
     24c:	69 6e 66 00 00 40 7a 10 f3 5a 00 a0 72 4e 18 09     inf..@z..Z..rN..
     25c:	00 10 a5 d4 e8 00 00 e8 76 48 17 00 00 e4 0b 54     ........vH.....T
     26c:	02 00 00 ca 9a 3b 00 00 00 e1 f5 05 00 00 80 96     .....;..........
     27c:	98 00 00 00 40 42 0f 00 00 00 a0 86 01 00 00 00     ....@B..........
     28c:	10 27 00 00 00 00 e8 03 00 00 00 00 64 00 00 00     .'..........d...
     29c:	00 00 0a 00 00 00 00 00 01 00 00 00 00 00 2c 76     ..............,v
     2ac:	d8 88 dc 67 4f 08 23 df c1 df ae 59 e1 b1 b7 96     ...gO.#....Y....
     2bc:	e5 e3 e4 53 c6 3a e6 51 99 76 96 e8 e6 c2 84 26     ...S.:.Q.v.....&
     2cc:	eb 89 8c 9b 62 ed 40 7c 6f fc ef bc 9c 9f 40 f2     ....b.@|o.....@.
     2dc:	ba a5 6f a5 f4 90 05 5a 2a f7 5c 93 6b 6c f9 67     ..o....Z*.\.kl.g
     2ec:	6d c1 1b fc e0 e4 0d 47 fe f5 20 e6 b5 00 d0 ed     m......G.. .....
     2fc:	90 2e 03 00 94 35 77 05 00 80 84 1e 08 00 00 20     .....5w........ 
     30c:	4e 0a 00 00 00 c8 0c 33 33 33 33 0f 98 6e 12 83     N......3333..n..
     31c:	11 41 ef 8d 21 14 89 3b e6 55 16 cf fe e6 db 18     .A..!..;.U......
     32c:	d1 84 4b 38 1b f7 7c 1d 90 1d a4 bb e4 24 20 32     ..K8..|......$ 2
     33c:	84 72 5e 22 81 00 c9 f1 24 ec a1 e5 3d 27           .r^"....$...='

0000034a <ProductString>:
     34a:	1c 03 4c 00 55 00 46 00 41 00 20 00 43 00 44 00     ..L.U.F.A. .C.D.
     35a:	43 00 20 00 44 00 65 00 6d 00 6f 00 00 00           C. .D.e.m.o...

00000368 <ManufacturerString>:
     368:	18 03 44 00 65 00 61 00 6e 00 20 00 43 00 61 00     ..D.e.a.n. .C.a.
     378:	6d 00 65 00 72 00 61 00 00 00                       m.e.r.a...

00000382 <LanguageString>:
     382:	04 03 09 04                                         ....

00000386 <ConfigurationDescriptor>:
     386:	09 02 3e 00 02 01 00 c0 32 09 04 00 00 01 02 02     ..>.....2.......
     396:	01 00 05 24 00 10 01 04 24 02 06 05 24 06 00 01     ...$....$...$...
     3a6:	07 05 82 03 08 00 ff 09 04 01 00 02 0a 00 00 00     ................
     3b6:	07 05 04 02 10 00 05 07 05 83 02 10 00 05           ..............

000003c4 <DeviceDescriptor>:
     3c4:	12 01 10 01 02 00 00 08 eb 03 44 20 01 00 01 02     ..........D ....
     3d4:	dc 01                                               ..

000003d6 <ascdays>:
     3d6:	53 75 6e 4d 6f 6e 54 75 65 57 65 64 54 68 75 46     SunMonTueWedThuF
     3e6:	72 69 53 61 74 00                                   riSat.

000003ec <ascmonths>:
     3ec:	4a 61 6e 46 65 62 4d 61 72 41 70 72 4d 61 79 4a     JanFebMarAprMayJ
     3fc:	75 6e 4a 75 6c 41 75 67 53 65 70 4f 63 74 4e 6f     unJulAugSepOctNo
     40c:	76 44 65 63 00 00                                   vDec..

00000412 <__ctors_end>:
     412:	11 24       	eor	r1, r1
     414:	1f be       	out	0x3f, r1	; 63
     416:	cf ef       	ldi	r28, 0xFF	; 255
     418:	cd bf       	out	0x3d, r28	; 61
     41a:	df e9       	ldi	r29, 0x9F	; 159
     41c:	de bf       	out	0x3e, r29	; 62
     41e:	00 e0       	ldi	r16, 0x00	; 0
     420:	0c bf       	out	0x3c, r16	; 60

00000422 <__do_copy_data>:
     422:	13 e2       	ldi	r17, 0x23	; 35
     424:	a0 e0       	ldi	r26, 0x00	; 0
     426:	b0 e2       	ldi	r27, 0x20	; 32
     428:	ee e8       	ldi	r30, 0x8E	; 142
     42a:	fd e4       	ldi	r31, 0x4D	; 77
     42c:	00 e0       	ldi	r16, 0x00	; 0
     42e:	0b bf       	out	0x3b, r16	; 59
     430:	02 c0       	rjmp	.+4      	; 0x436 <__do_copy_data+0x14>
     432:	07 90       	elpm	r0, Z+
     434:	0d 92       	st	X+, r0
     436:	aa 36       	cpi	r26, 0x6A	; 106
     438:	b1 07       	cpc	r27, r17
     43a:	d9 f7       	brne	.-10     	; 0x432 <__do_copy_data+0x10>

0000043c <__do_clear_bss>:
     43c:	29 e9       	ldi	r18, 0x99	; 153
     43e:	aa e6       	ldi	r26, 0x6A	; 106
     440:	b3 e2       	ldi	r27, 0x23	; 35
     442:	01 c0       	rjmp	.+2      	; 0x446 <.do_clear_bss_start>

00000444 <.do_clear_bss_loop>:
     444:	1d 92       	st	X+, r1

00000446 <.do_clear_bss_start>:
     446:	a5 34       	cpi	r26, 0x45	; 69
     448:	b2 07       	cpc	r27, r18
     44a:	e1 f7       	brne	.-8      	; 0x444 <.do_clear_bss_loop>
     44c:	0e 94 ed 1d 	call	0x3bda	; 0x3bda <main>
     450:	0c 94 c5 26 	jmp	0x4d8a	; 0x4d8a <_exit>

00000454 <__bad_interrupt>:
     454:	0c 94 00 00 	jmp	0	; 0x0 <__vectors>

00000458 <ctime>:
     458:	cf 93       	push	r28
     45a:	df 93       	push	r29
     45c:	cd b7       	in	r28, 0x3d	; 61
     45e:	de b7       	in	r29, 0x3e	; 62
     460:	2c 97       	sbiw	r28, 0x0c	; 12
     462:	cd bf       	out	0x3d, r28	; 61
     464:	de bf       	out	0x3e, r29	; 62
     466:	be 01       	movw	r22, r28
     468:	6f 5f       	subi	r22, 0xFF	; 255
     46a:	7f 4f       	sbci	r23, 0xFF	; 255
     46c:	0e 94 51 02 	call	0x4a2	; 0x4a2 <localtime_r>
     470:	60 91 00 20 	lds	r22, 0x2000	; 0x802000 <__asc_store>
     474:	70 91 01 20 	lds	r23, 0x2001	; 0x802001 <__asc_store+0x1>
     478:	ce 01       	movw	r24, r28
     47a:	01 96       	adiw	r24, 0x01	; 1
     47c:	0e 94 08 03 	call	0x610	; 0x610 <asctime_r>
     480:	80 91 00 20 	lds	r24, 0x2000	; 0x802000 <__asc_store>
     484:	90 91 01 20 	lds	r25, 0x2001	; 0x802001 <__asc_store+0x1>
     488:	2c 96       	adiw	r28, 0x0c	; 12
     48a:	cd bf       	out	0x3d, r28	; 61
     48c:	de bf       	out	0x3e, r29	; 62
     48e:	df 91       	pop	r29
     490:	cf 91       	pop	r28
     492:	08 95       	ret

00000494 <localtime>:
     494:	69 e1       	ldi	r22, 0x19	; 25
     496:	79 e9       	ldi	r23, 0x99	; 153
     498:	0e 94 51 02 	call	0x4a2	; 0x4a2 <localtime_r>
     49c:	89 e1       	ldi	r24, 0x19	; 25
     49e:	99 e9       	ldi	r25, 0x99	; 153
     4a0:	08 95       	ret

000004a2 <localtime_r>:
     4a2:	cf 92       	push	r12
     4a4:	df 92       	push	r13
     4a6:	ef 92       	push	r14
     4a8:	ff 92       	push	r15
     4aa:	0f 93       	push	r16
     4ac:	1f 93       	push	r17
     4ae:	cf 93       	push	r28
     4b0:	df 93       	push	r29
     4b2:	00 d0       	rcall	.+0      	; 0x4b4 <localtime_r+0x12>
     4b4:	1f 92       	push	r1
     4b6:	cd b7       	in	r28, 0x3d	; 61
     4b8:	de b7       	in	r29, 0x3e	; 62
     4ba:	6c 01       	movw	r12, r24
     4bc:	7b 01       	movw	r14, r22
     4be:	e0 91 43 99 	lds	r30, 0x9943	; 0x809943 <__dst_ptr>
     4c2:	f0 91 44 99 	lds	r31, 0x9944	; 0x809944 <__dst_ptr+0x1>
     4c6:	30 97       	sbiw	r30, 0x00	; 0
     4c8:	29 f0       	breq	.+10     	; 0x4d4 <localtime_r+0x32>
     4ca:	65 e2       	ldi	r22, 0x25	; 37
     4cc:	79 e9       	ldi	r23, 0x99	; 153
     4ce:	19 95       	eicall
     4d0:	8c 01       	movw	r16, r24
     4d2:	02 c0       	rjmp	.+4      	; 0x4d8 <localtime_r+0x36>
     4d4:	0f ef       	ldi	r16, 0xFF	; 255
     4d6:	1f ef       	ldi	r17, 0xFF	; 255
     4d8:	f6 01       	movw	r30, r12
     4da:	40 81       	ld	r20, Z
     4dc:	51 81       	ldd	r21, Z+1	; 0x01
     4de:	62 81       	ldd	r22, Z+2	; 0x02
     4e0:	73 81       	ldd	r23, Z+3	; 0x03
     4e2:	80 91 25 99 	lds	r24, 0x9925	; 0x809925 <__utc_offset>
     4e6:	90 91 26 99 	lds	r25, 0x9926	; 0x809926 <__utc_offset+0x1>
     4ea:	a0 91 27 99 	lds	r26, 0x9927	; 0x809927 <__utc_offset+0x2>
     4ee:	b0 91 28 99 	lds	r27, 0x9928	; 0x809928 <__utc_offset+0x3>
     4f2:	48 0f       	add	r20, r24
     4f4:	59 1f       	adc	r21, r25
     4f6:	6a 1f       	adc	r22, r26
     4f8:	7b 1f       	adc	r23, r27
     4fa:	10 16       	cp	r1, r16
     4fc:	11 06       	cpc	r1, r17
     4fe:	4c f4       	brge	.+18     	; 0x512 <localtime_r+0x70>
     500:	c8 01       	movw	r24, r16
     502:	01 2e       	mov	r0, r17
     504:	00 0c       	add	r0, r0
     506:	aa 0b       	sbc	r26, r26
     508:	bb 0b       	sbc	r27, r27
     50a:	48 0f       	add	r20, r24
     50c:	59 1f       	adc	r21, r25
     50e:	6a 1f       	adc	r22, r26
     510:	7b 1f       	adc	r23, r27
     512:	49 83       	std	Y+1, r20	; 0x01
     514:	5a 83       	std	Y+2, r21	; 0x02
     516:	6b 83       	std	Y+3, r22	; 0x03
     518:	7c 83       	std	Y+4, r23	; 0x04
     51a:	b7 01       	movw	r22, r14
     51c:	ce 01       	movw	r24, r28
     51e:	01 96       	adiw	r24, 0x01	; 1
     520:	0e 94 8f 03 	call	0x71e	; 0x71e <gmtime_r>
     524:	f7 01       	movw	r30, r14
     526:	02 87       	std	Z+10, r16	; 0x0a
     528:	13 87       	std	Z+11, r17	; 0x0b
     52a:	24 96       	adiw	r28, 0x04	; 4
     52c:	cd bf       	out	0x3d, r28	; 61
     52e:	de bf       	out	0x3e, r29	; 62
     530:	df 91       	pop	r29
     532:	cf 91       	pop	r28
     534:	1f 91       	pop	r17
     536:	0f 91       	pop	r16
     538:	ff 90       	pop	r15
     53a:	ef 90       	pop	r14
     53c:	df 90       	pop	r13
     53e:	cf 90       	pop	r12
     540:	08 95       	ret

00000542 <mktime>:
     542:	cf 92       	push	r12
     544:	df 92       	push	r13
     546:	ef 92       	push	r14
     548:	ff 92       	push	r15
     54a:	0f 93       	push	r16
     54c:	1f 93       	push	r17
     54e:	cf 93       	push	r28
     550:	df 93       	push	r29
     552:	00 d0       	rcall	.+0      	; 0x554 <mktime+0x12>
     554:	1f 92       	push	r1
     556:	cd b7       	in	r28, 0x3d	; 61
     558:	de b7       	in	r29, 0x3e	; 62
     55a:	8c 01       	movw	r16, r24
     55c:	0e 94 65 04 	call	0x8ca	; 0x8ca <mk_gmtime>
     560:	69 83       	std	Y+1, r22	; 0x01
     562:	7a 83       	std	Y+2, r23	; 0x02
     564:	8b 83       	std	Y+3, r24	; 0x03
     566:	9c 83       	std	Y+4, r25	; 0x04
     568:	f8 01       	movw	r30, r16
     56a:	82 85       	ldd	r24, Z+10	; 0x0a
     56c:	93 85       	ldd	r25, Z+11	; 0x0b
     56e:	97 ff       	sbrs	r25, 7
     570:	0e c0       	rjmp	.+28     	; 0x58e <mktime+0x4c>
     572:	e0 91 43 99 	lds	r30, 0x9943	; 0x809943 <__dst_ptr>
     576:	f0 91 44 99 	lds	r31, 0x9944	; 0x809944 <__dst_ptr+0x1>
     57a:	30 97       	sbiw	r30, 0x00	; 0
     57c:	41 f0       	breq	.+16     	; 0x58e <mktime+0x4c>
     57e:	65 e2       	ldi	r22, 0x25	; 37
     580:	79 e9       	ldi	r23, 0x99	; 153
     582:	ce 01       	movw	r24, r28
     584:	01 96       	adiw	r24, 0x01	; 1
     586:	19 95       	eicall
     588:	f8 01       	movw	r30, r16
     58a:	82 87       	std	Z+10, r24	; 0x0a
     58c:	93 87       	std	Z+11, r25	; 0x0b
     58e:	f8 01       	movw	r30, r16
     590:	82 85       	ldd	r24, Z+10	; 0x0a
     592:	93 85       	ldd	r25, Z+11	; 0x0b
     594:	18 16       	cp	r1, r24
     596:	19 06       	cpc	r1, r25
     598:	94 f4       	brge	.+36     	; 0x5be <mktime+0x7c>
     59a:	09 2e       	mov	r0, r25
     59c:	00 0c       	add	r0, r0
     59e:	aa 0b       	sbc	r26, r26
     5a0:	bb 0b       	sbc	r27, r27
     5a2:	49 81       	ldd	r20, Y+1	; 0x01
     5a4:	5a 81       	ldd	r21, Y+2	; 0x02
     5a6:	6b 81       	ldd	r22, Y+3	; 0x03
     5a8:	7c 81       	ldd	r23, Y+4	; 0x04
     5aa:	6a 01       	movw	r12, r20
     5ac:	7b 01       	movw	r14, r22
     5ae:	c8 1a       	sub	r12, r24
     5b0:	d9 0a       	sbc	r13, r25
     5b2:	ea 0a       	sbc	r14, r26
     5b4:	fb 0a       	sbc	r15, r27
     5b6:	c9 82       	std	Y+1, r12	; 0x01
     5b8:	da 82       	std	Y+2, r13	; 0x02
     5ba:	eb 82       	std	Y+3, r14	; 0x03
     5bc:	fc 82       	std	Y+4, r15	; 0x04
     5be:	89 81       	ldd	r24, Y+1	; 0x01
     5c0:	9a 81       	ldd	r25, Y+2	; 0x02
     5c2:	ab 81       	ldd	r26, Y+3	; 0x03
     5c4:	bc 81       	ldd	r27, Y+4	; 0x04
     5c6:	40 91 25 99 	lds	r20, 0x9925	; 0x809925 <__utc_offset>
     5ca:	50 91 26 99 	lds	r21, 0x9926	; 0x809926 <__utc_offset+0x1>
     5ce:	60 91 27 99 	lds	r22, 0x9927	; 0x809927 <__utc_offset+0x2>
     5d2:	70 91 28 99 	lds	r23, 0x9928	; 0x809928 <__utc_offset+0x3>
     5d6:	84 1b       	sub	r24, r20
     5d8:	95 0b       	sbc	r25, r21
     5da:	a6 0b       	sbc	r26, r22
     5dc:	b7 0b       	sbc	r27, r23
     5de:	89 83       	std	Y+1, r24	; 0x01
     5e0:	9a 83       	std	Y+2, r25	; 0x02
     5e2:	ab 83       	std	Y+3, r26	; 0x03
     5e4:	bc 83       	std	Y+4, r27	; 0x04
     5e6:	b8 01       	movw	r22, r16
     5e8:	ce 01       	movw	r24, r28
     5ea:	01 96       	adiw	r24, 0x01	; 1
     5ec:	0e 94 51 02 	call	0x4a2	; 0x4a2 <localtime_r>
     5f0:	69 81       	ldd	r22, Y+1	; 0x01
     5f2:	7a 81       	ldd	r23, Y+2	; 0x02
     5f4:	8b 81       	ldd	r24, Y+3	; 0x03
     5f6:	9c 81       	ldd	r25, Y+4	; 0x04
     5f8:	24 96       	adiw	r28, 0x04	; 4
     5fa:	cd bf       	out	0x3d, r28	; 61
     5fc:	de bf       	out	0x3e, r29	; 62
     5fe:	df 91       	pop	r29
     600:	cf 91       	pop	r28
     602:	1f 91       	pop	r17
     604:	0f 91       	pop	r16
     606:	ff 90       	pop	r15
     608:	ef 90       	pop	r14
     60a:	df 90       	pop	r13
     60c:	cf 90       	pop	r12
     60e:	08 95       	ret

00000610 <asctime_r>:
     610:	cf 92       	push	r12
     612:	df 92       	push	r13
     614:	ef 92       	push	r14
     616:	ff 92       	push	r15
     618:	0f 93       	push	r16
     61a:	1f 93       	push	r17
     61c:	cf 93       	push	r28
     61e:	df 93       	push	r29
     620:	8c 01       	movw	r16, r24
     622:	eb 01       	movw	r28, r22
     624:	fc 01       	movw	r30, r24
     626:	84 81       	ldd	r24, Z+4	; 0x04
     628:	b8 2f       	mov	r27, r24
     62a:	bb 0f       	add	r27, r27
     62c:	b8 0f       	add	r27, r24
     62e:	85 81       	ldd	r24, Z+5	; 0x05
     630:	78 2f       	mov	r23, r24
     632:	77 0f       	add	r23, r23
     634:	78 0f       	add	r23, r24
     636:	7e 01       	movw	r14, r28
     638:	9e 01       	movw	r18, r28
     63a:	2c 5f       	subi	r18, 0xFC	; 252
     63c:	3f 4f       	sbci	r19, 0xFF	; 255
     63e:	40 e0       	ldi	r20, 0x00	; 0
     640:	84 2f       	mov	r24, r20
     642:	8b 0f       	add	r24, r27
     644:	90 e0       	ldi	r25, 0x00	; 0
     646:	a0 e0       	ldi	r26, 0x00	; 0
     648:	8a 52       	subi	r24, 0x2A	; 42
     64a:	9c 4f       	sbci	r25, 0xFC	; 252
     64c:	af 4f       	sbci	r26, 0xFF	; 255
     64e:	fc 01       	movw	r30, r24
     650:	5a 2f       	mov	r21, r26
     652:	0e 94 be 26 	call	0x4d7c	; 0x4d7c <__xload_1>
     656:	f7 01       	movw	r30, r14
     658:	61 93       	st	Z+, r22
     65a:	7f 01       	movw	r14, r30
     65c:	84 2f       	mov	r24, r20
     65e:	87 0f       	add	r24, r23
     660:	90 e0       	ldi	r25, 0x00	; 0
     662:	a0 e0       	ldi	r26, 0x00	; 0
     664:	84 51       	subi	r24, 0x14	; 20
     666:	9c 4f       	sbci	r25, 0xFC	; 252
     668:	af 4f       	sbci	r26, 0xFF	; 255
     66a:	fc 01       	movw	r30, r24
     66c:	5a 2f       	mov	r21, r26
     66e:	0e 94 be 26 	call	0x4d7c	; 0x4d7c <__xload_1>
     672:	f9 01       	movw	r30, r18
     674:	61 93       	st	Z+, r22
     676:	9f 01       	movw	r18, r30
     678:	4f 5f       	subi	r20, 0xFF	; 255
     67a:	43 30       	cpi	r20, 0x03	; 3
     67c:	09 f7       	brne	.-62     	; 0x640 <asctime_r+0x30>
     67e:	80 e2       	ldi	r24, 0x20	; 32
     680:	8f 83       	std	Y+7, r24	; 0x07
     682:	8b 83       	std	Y+3, r24	; 0x03
     684:	be 01       	movw	r22, r28
     686:	68 5f       	subi	r22, 0xF8	; 248
     688:	7f 4f       	sbci	r23, 0xFF	; 255
     68a:	f8 01       	movw	r30, r16
     68c:	83 81       	ldd	r24, Z+3	; 0x03
     68e:	40 e2       	ldi	r20, 0x20	; 32
     690:	08 2e       	mov	r0, r24
     692:	00 0c       	add	r0, r0
     694:	99 0b       	sbc	r25, r25
     696:	0e 94 20 05 	call	0xa40	; 0xa40 <__print_lz>
     69a:	be 01       	movw	r22, r28
     69c:	65 5f       	subi	r22, 0xF5	; 245
     69e:	7f 4f       	sbci	r23, 0xFF	; 255
     6a0:	f8 01       	movw	r30, r16
     6a2:	82 81       	ldd	r24, Z+2	; 0x02
     6a4:	4a e3       	ldi	r20, 0x3A	; 58
     6a6:	08 2e       	mov	r0, r24
     6a8:	00 0c       	add	r0, r0
     6aa:	99 0b       	sbc	r25, r25
     6ac:	0e 94 20 05 	call	0xa40	; 0xa40 <__print_lz>
     6b0:	be 01       	movw	r22, r28
     6b2:	62 5f       	subi	r22, 0xF2	; 242
     6b4:	7f 4f       	sbci	r23, 0xFF	; 255
     6b6:	f8 01       	movw	r30, r16
     6b8:	81 81       	ldd	r24, Z+1	; 0x01
     6ba:	4a e3       	ldi	r20, 0x3A	; 58
     6bc:	08 2e       	mov	r0, r24
     6be:	00 0c       	add	r0, r0
     6c0:	99 0b       	sbc	r25, r25
     6c2:	0e 94 20 05 	call	0xa40	; 0xa40 <__print_lz>
     6c6:	be 01       	movw	r22, r28
     6c8:	6f 5e       	subi	r22, 0xEF	; 239
     6ca:	7f 4f       	sbci	r23, 0xFF	; 255
     6cc:	f8 01       	movw	r30, r16
     6ce:	80 81       	ld	r24, Z
     6d0:	40 e2       	ldi	r20, 0x20	; 32
     6d2:	08 2e       	mov	r0, r24
     6d4:	00 0c       	add	r0, r0
     6d6:	99 0b       	sbc	r25, r25
     6d8:	0e 94 20 05 	call	0xa40	; 0xa40 <__print_lz>
     6dc:	f8 01       	movw	r30, r16
     6de:	86 81       	ldd	r24, Z+6	; 0x06
     6e0:	97 81       	ldd	r25, Z+7	; 0x07
     6e2:	64 e6       	ldi	r22, 0x64	; 100
     6e4:	70 e0       	ldi	r23, 0x00	; 0
     6e6:	84 59       	subi	r24, 0x94	; 148
     6e8:	98 4f       	sbci	r25, 0xF8	; 248
     6ea:	0e 94 99 23 	call	0x4732	; 0x4732 <__divmodhi4>
     6ee:	6b 01       	movw	r12, r22
     6f0:	7c 01       	movw	r14, r24
     6f2:	be 01       	movw	r22, r28
     6f4:	6c 5e       	subi	r22, 0xEC	; 236
     6f6:	7f 4f       	sbci	r23, 0xFF	; 255
     6f8:	40 e2       	ldi	r20, 0x20	; 32
     6fa:	c6 01       	movw	r24, r12
     6fc:	0e 94 20 05 	call	0xa40	; 0xa40 <__print_lz>
     700:	be 01       	movw	r22, r28
     702:	6a 5e       	subi	r22, 0xEA	; 234
     704:	7f 4f       	sbci	r23, 0xFF	; 255
     706:	40 e0       	ldi	r20, 0x00	; 0
     708:	c7 01       	movw	r24, r14
     70a:	df 91       	pop	r29
     70c:	cf 91       	pop	r28
     70e:	1f 91       	pop	r17
     710:	0f 91       	pop	r16
     712:	ff 90       	pop	r15
     714:	ef 90       	pop	r14
     716:	df 90       	pop	r13
     718:	cf 90       	pop	r12
     71a:	0c 94 20 05 	jmp	0xa40	; 0xa40 <__print_lz>

0000071e <gmtime_r>:
     71e:	cf 92       	push	r12
     720:	df 92       	push	r13
     722:	ef 92       	push	r14
     724:	ff 92       	push	r15
     726:	0f 93       	push	r16
     728:	1f 93       	push	r17
     72a:	cf 93       	push	r28
     72c:	df 93       	push	r29
     72e:	cd b7       	in	r28, 0x3d	; 61
     730:	de b7       	in	r29, 0x3e	; 62
     732:	28 97       	sbiw	r28, 0x08	; 8
     734:	cd bf       	out	0x3d, r28	; 61
     736:	de bf       	out	0x3e, r29	; 62
     738:	8b 01       	movw	r16, r22
     73a:	fc 01       	movw	r30, r24
     73c:	60 81       	ld	r22, Z
     73e:	71 81       	ldd	r23, Z+1	; 0x01
     740:	82 81       	ldd	r24, Z+2	; 0x02
     742:	93 81       	ldd	r25, Z+3	; 0x03
     744:	20 e8       	ldi	r18, 0x80	; 128
     746:	31 e5       	ldi	r19, 0x51	; 81
     748:	41 e0       	ldi	r20, 0x01	; 1
     74a:	50 e0       	ldi	r21, 0x00	; 0
     74c:	0e 94 ad 23 	call	0x475a	; 0x475a <__udivmodsi4>
     750:	69 01       	movw	r12, r18
     752:	7a 01       	movw	r14, r20
     754:	2c e3       	ldi	r18, 0x3C	; 60
     756:	30 e0       	ldi	r19, 0x00	; 0
     758:	40 e0       	ldi	r20, 0x00	; 0
     75a:	50 e0       	ldi	r21, 0x00	; 0
     75c:	0e 94 98 26 	call	0x4d30	; 0x4d30 <__divmodsi4>
     760:	29 83       	std	Y+1, r18	; 0x01
     762:	3a 83       	std	Y+2, r19	; 0x02
     764:	4b 83       	std	Y+3, r20	; 0x03
     766:	5c 83       	std	Y+4, r21	; 0x04
     768:	89 81       	ldd	r24, Y+1	; 0x01
     76a:	9a 81       	ldd	r25, Y+2	; 0x02
     76c:	ab 81       	ldd	r26, Y+3	; 0x03
     76e:	bc 81       	ldd	r27, Y+4	; 0x04
     770:	f8 01       	movw	r30, r16
     772:	60 83       	st	Z, r22
     774:	6c e3       	ldi	r22, 0x3C	; 60
     776:	70 e0       	ldi	r23, 0x00	; 0
     778:	0e 94 99 23 	call	0x4732	; 0x4732 <__divmodhi4>
     77c:	dc 01       	movw	r26, r24
     77e:	cb 01       	movw	r24, r22
     780:	f8 01       	movw	r30, r16
     782:	a1 83       	std	Z+1, r26	; 0x01
     784:	82 83       	std	Z+2, r24	; 0x02
     786:	c6 01       	movw	r24, r12
     788:	06 96       	adiw	r24, 0x06	; 6
     78a:	67 e0       	ldi	r22, 0x07	; 7
     78c:	70 e0       	ldi	r23, 0x00	; 0
     78e:	0e 94 f5 23 	call	0x47ea	; 0x47ea <__udivmodhi4>
     792:	84 83       	std	Z+4, r24	; 0x04
     794:	2d ea       	ldi	r18, 0xAD	; 173
     796:	3e e8       	ldi	r19, 0x8E	; 142
     798:	40 e0       	ldi	r20, 0x00	; 0
     79a:	50 e0       	ldi	r21, 0x00	; 0
     79c:	c7 01       	movw	r24, r14
     79e:	b6 01       	movw	r22, r12
     7a0:	0e 94 98 26 	call	0x4d30	; 0x4d30 <__divmodsi4>
     7a4:	29 83       	std	Y+1, r18	; 0x01
     7a6:	3a 83       	std	Y+2, r19	; 0x02
     7a8:	6d 83       	std	Y+5, r22	; 0x05
     7aa:	7e 83       	std	Y+6, r23	; 0x06
     7ac:	8f 83       	std	Y+7, r24	; 0x07
     7ae:	98 87       	std	Y+8, r25	; 0x08
     7b0:	89 81       	ldd	r24, Y+1	; 0x01
     7b2:	9a 81       	ldd	r25, Y+2	; 0x02
     7b4:	24 e6       	ldi	r18, 0x64	; 100
     7b6:	28 9f       	mul	r18, r24
     7b8:	60 01       	movw	r12, r0
     7ba:	29 9f       	mul	r18, r25
     7bc:	d0 0c       	add	r13, r0
     7be:	11 24       	eor	r1, r1
     7c0:	6d 81       	ldd	r22, Y+5	; 0x05
     7c2:	7e 81       	ldd	r23, Y+6	; 0x06
     7c4:	8f 81       	ldd	r24, Y+7	; 0x07
     7c6:	98 85       	ldd	r25, Y+8	; 0x08
     7c8:	25 eb       	ldi	r18, 0xB5	; 181
     7ca:	35 e0       	ldi	r19, 0x05	; 5
     7cc:	40 e0       	ldi	r20, 0x00	; 0
     7ce:	50 e0       	ldi	r21, 0x00	; 0
     7d0:	0e 94 98 26 	call	0x4d30	; 0x4d30 <__divmodsi4>
     7d4:	29 83       	std	Y+1, r18	; 0x01
     7d6:	3a 83       	std	Y+2, r19	; 0x02
     7d8:	6d 83       	std	Y+5, r22	; 0x05
     7da:	7e 83       	std	Y+6, r23	; 0x06
     7dc:	e9 80       	ldd	r14, Y+1	; 0x01
     7de:	fa 80       	ldd	r15, Y+2	; 0x02
     7e0:	ee 0c       	add	r14, r14
     7e2:	ff 1c       	adc	r15, r15
     7e4:	ee 0c       	add	r14, r14
     7e6:	ff 1c       	adc	r15, r15
     7e8:	ec 0c       	add	r14, r12
     7ea:	fd 1c       	adc	r15, r13
     7ec:	8d 81       	ldd	r24, Y+5	; 0x05
     7ee:	9e 81       	ldd	r25, Y+6	; 0x06
     7f0:	f5 e6       	ldi	r31, 0x65	; 101
     7f2:	ef 16       	cp	r14, r31
     7f4:	f1 04       	cpc	r15, r1
     7f6:	10 f0       	brcs	.+4      	; 0x7fc <gmtime_r+0xde>
     7f8:	01 96       	adiw	r24, 0x01	; 1
     7fa:	04 c0       	rjmp	.+8      	; 0x804 <gmtime_r+0xe6>
     7fc:	24 e6       	ldi	r18, 0x64	; 100
     7fe:	e2 16       	cp	r14, r18
     800:	f1 04       	cpc	r15, r1
     802:	19 f0       	breq	.+6      	; 0x80a <gmtime_r+0xec>
     804:	21 e0       	ldi	r18, 0x01	; 1
     806:	30 e0       	ldi	r19, 0x00	; 0
     808:	02 c0       	rjmp	.+4      	; 0x80e <gmtime_r+0xf0>
     80a:	20 e0       	ldi	r18, 0x00	; 0
     80c:	30 e0       	ldi	r19, 0x00	; 0
     80e:	a9 01       	movw	r20, r18
     810:	44 59       	subi	r20, 0x94	; 148
     812:	5e 4f       	sbci	r21, 0xFE	; 254
     814:	48 17       	cp	r20, r24
     816:	59 07       	cpc	r21, r25
     818:	68 f4       	brcc	.+26     	; 0x834 <gmtime_r+0x116>
     81a:	6d e6       	ldi	r22, 0x6D	; 109
     81c:	71 e0       	ldi	r23, 0x01	; 1
     81e:	82 1b       	sub	r24, r18
     820:	93 0b       	sbc	r25, r19
     822:	0e 94 99 23 	call	0x4732	; 0x4732 <__divmodhi4>
     826:	dc 01       	movw	r26, r24
     828:	cb 01       	movw	r24, r22
     82a:	e8 0e       	add	r14, r24
     82c:	f9 1e       	adc	r15, r25
     82e:	cd 01       	movw	r24, r26
     830:	20 e0       	ldi	r18, 0x00	; 0
     832:	30 e0       	ldi	r19, 0x00	; 0
     834:	44 e6       	ldi	r20, 0x64	; 100
     836:	e4 0e       	add	r14, r20
     838:	f1 1c       	adc	r15, r1
     83a:	f8 01       	movw	r30, r16
     83c:	e6 82       	std	Z+6, r14	; 0x06
     83e:	f7 82       	std	Z+7, r15	; 0x07
     840:	80 87       	std	Z+8, r24	; 0x08
     842:	91 87       	std	Z+9, r25	; 0x09
     844:	25 5c       	subi	r18, 0xC5	; 197
     846:	3f 4f       	sbci	r19, 0xFF	; 255
     848:	82 17       	cp	r24, r18
     84a:	93 07       	cpc	r25, r19
     84c:	48 f4       	brcc	.+18     	; 0x860 <gmtime_r+0x142>
     84e:	6f e1       	ldi	r22, 0x1F	; 31
     850:	70 e0       	ldi	r23, 0x00	; 0
     852:	0e 94 99 23 	call	0x4732	; 0x4732 <__divmodhi4>
     856:	dc 01       	movw	r26, r24
     858:	cb 01       	movw	r24, r22
     85a:	f8 01       	movw	r30, r16
     85c:	85 83       	std	Z+5, r24	; 0x05
     85e:	22 c0       	rjmp	.+68     	; 0x8a4 <gmtime_r+0x186>
     860:	69 e9       	ldi	r22, 0x99	; 153
     862:	70 e0       	ldi	r23, 0x00	; 0
     864:	82 1b       	sub	r24, r18
     866:	93 0b       	sbc	r25, r19
     868:	0e 94 99 23 	call	0x4732	; 0x4732 <__divmodhi4>
     86c:	dc 01       	movw	r26, r24
     86e:	cb 01       	movw	r24, r22
     870:	f8 2e       	mov	r15, r24
     872:	ff 0c       	add	r15, r15
     874:	ff 0c       	add	r15, r15
     876:	f8 0e       	add	r15, r24
     878:	6d e3       	ldi	r22, 0x3D	; 61
     87a:	70 e0       	ldi	r23, 0x00	; 0
     87c:	cd 01       	movw	r24, r26
     87e:	0e 94 99 23 	call	0x4732	; 0x4732 <__divmodhi4>
     882:	dc 01       	movw	r26, r24
     884:	cb 01       	movw	r24, r22
     886:	e8 2e       	mov	r14, r24
     888:	ee 0c       	add	r14, r14
     88a:	6f e1       	ldi	r22, 0x1F	; 31
     88c:	70 e0       	ldi	r23, 0x00	; 0
     88e:	cd 01       	movw	r24, r26
     890:	0e 94 99 23 	call	0x4732	; 0x4732 <__divmodhi4>
     894:	dc 01       	movw	r26, r24
     896:	cb 01       	movw	r24, r22
     898:	22 e0       	ldi	r18, 0x02	; 2
     89a:	28 0f       	add	r18, r24
     89c:	f2 0e       	add	r15, r18
     89e:	fe 0c       	add	r15, r14
     8a0:	f8 01       	movw	r30, r16
     8a2:	f5 82       	std	Z+5, r15	; 0x05
     8a4:	a3 83       	std	Z+3, r26	; 0x03
     8a6:	f8 01       	movw	r30, r16
     8a8:	12 86       	std	Z+10, r1	; 0x0a
     8aa:	13 86       	std	Z+11, r1	; 0x0b
     8ac:	83 81       	ldd	r24, Z+3	; 0x03
     8ae:	8f 5f       	subi	r24, 0xFF	; 255
     8b0:	83 83       	std	Z+3, r24	; 0x03
     8b2:	28 96       	adiw	r28, 0x08	; 8
     8b4:	cd bf       	out	0x3d, r28	; 61
     8b6:	de bf       	out	0x3e, r29	; 62
     8b8:	df 91       	pop	r29
     8ba:	cf 91       	pop	r28
     8bc:	1f 91       	pop	r17
     8be:	0f 91       	pop	r16
     8c0:	ff 90       	pop	r15
     8c2:	ef 90       	pop	r14
     8c4:	df 90       	pop	r13
     8c6:	cf 90       	pop	r12
     8c8:	08 95       	ret

000008ca <mk_gmtime>:
     8ca:	8f 92       	push	r8
     8cc:	9f 92       	push	r9
     8ce:	af 92       	push	r10
     8d0:	bf 92       	push	r11
     8d2:	cf 92       	push	r12
     8d4:	df 92       	push	r13
     8d6:	ef 92       	push	r14
     8d8:	ff 92       	push	r15
     8da:	0f 93       	push	r16
     8dc:	1f 93       	push	r17
     8de:	cf 93       	push	r28
     8e0:	df 93       	push	r29
     8e2:	ec 01       	movw	r28, r24
     8e4:	ee 81       	ldd	r30, Y+6	; 0x06
     8e6:	ff 81       	ldd	r31, Y+7	; 0x07
     8e8:	8f 01       	movw	r16, r30
     8ea:	04 56       	subi	r16, 0x64	; 100
     8ec:	11 09       	sbc	r17, r1
     8ee:	b9 f0       	breq	.+46     	; 0x91e <mk_gmtime+0x54>
     8f0:	cf 01       	movw	r24, r30
     8f2:	85 56       	subi	r24, 0x65	; 101
     8f4:	91 09       	sbc	r25, r1
     8f6:	6c 01       	movw	r12, r24
     8f8:	97 ff       	sbrs	r25, 7
     8fa:	03 c0       	rjmp	.+6      	; 0x902 <mk_gmtime+0x38>
     8fc:	23 e0       	ldi	r18, 0x03	; 3
     8fe:	c2 0e       	add	r12, r18
     900:	d1 1c       	adc	r13, r1
     902:	d5 94       	asr	r13
     904:	c7 94       	ror	r12
     906:	d5 94       	asr	r13
     908:	c7 94       	ror	r12
     90a:	6c e9       	ldi	r22, 0x9C	; 156
     90c:	7f ef       	ldi	r23, 0xFF	; 255
     90e:	0e 94 99 23 	call	0x4732	; 0x4732 <__divmodhi4>
     912:	c6 0e       	add	r12, r22
     914:	d7 1e       	adc	r13, r23
     916:	8f ef       	ldi	r24, 0xFF	; 255
     918:	c8 1a       	sub	r12, r24
     91a:	d8 0a       	sbc	r13, r24
     91c:	02 c0       	rjmp	.+4      	; 0x922 <mk_gmtime+0x58>
     91e:	c1 2c       	mov	r12, r1
     920:	d1 2c       	mov	r13, r1
     922:	0d 2c       	mov	r0, r13
     924:	00 0c       	add	r0, r0
     926:	ee 08       	sbc	r14, r14
     928:	ff 08       	sbc	r15, r15
     92a:	2d e6       	ldi	r18, 0x6D	; 109
     92c:	31 e0       	ldi	r19, 0x01	; 1
     92e:	d8 01       	movw	r26, r16
     930:	0e 94 b7 26 	call	0x4d6e	; 0x4d6e <__usmulhisi3>
     934:	c6 0e       	add	r12, r22
     936:	d7 1e       	adc	r13, r23
     938:	e8 1e       	adc	r14, r24
     93a:	f9 1e       	adc	r15, r25
     93c:	8b 81       	ldd	r24, Y+3	; 0x03
     93e:	08 2e       	mov	r0, r24
     940:	00 0c       	add	r0, r0
     942:	99 0b       	sbc	r25, r25
     944:	8c 01       	movw	r16, r24
     946:	01 50       	subi	r16, 0x01	; 1
     948:	11 09       	sbc	r17, r1
     94a:	2d 81       	ldd	r18, Y+5	; 0x05
     94c:	22 30       	cpi	r18, 0x02	; 2
     94e:	2c f4       	brge	.+10     	; 0x95a <mk_gmtime+0x90>
     950:	22 23       	and	r18, r18
     952:	79 f1       	breq	.+94     	; 0x9b2 <mk_gmtime+0xe8>
     954:	01 5e       	subi	r16, 0xE1	; 225
     956:	1f 4f       	sbci	r17, 0xFF	; 255
     958:	2c c0       	rjmp	.+88     	; 0x9b2 <mk_gmtime+0xe8>
     95a:	cf 01       	movw	r24, r30
     95c:	84 59       	subi	r24, 0x94	; 148
     95e:	98 4f       	sbci	r25, 0xF8	; 248
     960:	0e 94 3a 05 	call	0xa74	; 0xa74 <is_leap_year>
     964:	e8 2f       	mov	r30, r24
     966:	f0 e0       	ldi	r31, 0x00	; 0
     968:	fb 96       	adiw	r30, 0x3b	; 59
     96a:	e0 0f       	add	r30, r16
     96c:	f1 1f       	adc	r31, r17
     96e:	8d 81       	ldd	r24, Y+5	; 0x05
     970:	08 2e       	mov	r0, r24
     972:	00 0c       	add	r0, r0
     974:	99 0b       	sbc	r25, r25
     976:	02 97       	sbiw	r24, 0x02	; 2
     978:	85 30       	cpi	r24, 0x05	; 5
     97a:	91 05       	cpc	r25, r1
     97c:	14 f0       	brlt	.+4      	; 0x982 <mk_gmtime+0xb8>
     97e:	e7 56       	subi	r30, 0x67	; 103
     980:	ff 4f       	sbci	r31, 0xFF	; 255
     982:	65 e0       	ldi	r22, 0x05	; 5
     984:	70 e0       	ldi	r23, 0x00	; 0
     986:	0e 94 99 23 	call	0x4732	; 0x4732 <__divmodhi4>
     98a:	9c 01       	movw	r18, r24
     98c:	97 ff       	sbrs	r25, 7
     98e:	02 c0       	rjmp	.+4      	; 0x994 <mk_gmtime+0xca>
     990:	2f 5f       	subi	r18, 0xFF	; 255
     992:	3f 4f       	sbci	r19, 0xFF	; 255
     994:	35 95       	asr	r19
     996:	27 95       	ror	r18
     998:	9d e3       	ldi	r25, 0x3D	; 61
     99a:	92 9f       	mul	r25, r18
     99c:	a0 01       	movw	r20, r0
     99e:	93 9f       	mul	r25, r19
     9a0:	50 0d       	add	r21, r0
     9a2:	11 24       	eor	r1, r1
     9a4:	8f 01       	movw	r16, r30
     9a6:	04 0f       	add	r16, r20
     9a8:	15 1f       	adc	r17, r21
     9aa:	80 ff       	sbrs	r24, 0
     9ac:	02 c0       	rjmp	.+4      	; 0x9b2 <mk_gmtime+0xe8>
     9ae:	01 5e       	subi	r16, 0xE1	; 225
     9b0:	1f 4f       	sbci	r17, 0xFF	; 255
     9b2:	a8 01       	movw	r20, r16
     9b4:	11 0f       	add	r17, r17
     9b6:	66 0b       	sbc	r22, r22
     9b8:	77 0b       	sbc	r23, r23
     9ba:	9a 01       	movw	r18, r20
     9bc:	ab 01       	movw	r20, r22
     9be:	2c 0d       	add	r18, r12
     9c0:	3d 1d       	adc	r19, r13
     9c2:	4e 1d       	adc	r20, r14
     9c4:	5f 1d       	adc	r21, r15
     9c6:	60 e8       	ldi	r22, 0x80	; 128
     9c8:	71 e5       	ldi	r23, 0x51	; 81
     9ca:	81 e0       	ldi	r24, 0x01	; 1
     9cc:	90 e0       	ldi	r25, 0x00	; 0
     9ce:	0e 94 88 26 	call	0x4d10	; 0x4d10 <__mulsi3>
     9d2:	6b 01       	movw	r12, r22
     9d4:	7c 01       	movw	r14, r24
     9d6:	aa 81       	ldd	r26, Y+2	; 0x02
     9d8:	0a 2e       	mov	r0, r26
     9da:	00 0c       	add	r0, r0
     9dc:	bb 0b       	sbc	r27, r27
     9de:	20 e1       	ldi	r18, 0x10	; 16
     9e0:	3e e0       	ldi	r19, 0x0E	; 14
     9e2:	0e 94 b7 26 	call	0x4d6e	; 0x4d6e <__usmulhisi3>
     9e6:	4b 01       	movw	r8, r22
     9e8:	5c 01       	movw	r10, r24
     9ea:	a9 81       	ldd	r26, Y+1	; 0x01
     9ec:	0a 2e       	mov	r0, r26
     9ee:	00 0c       	add	r0, r0
     9f0:	bb 0b       	sbc	r27, r27
     9f2:	2c e3       	ldi	r18, 0x3C	; 60
     9f4:	30 e0       	ldi	r19, 0x00	; 0
     9f6:	0e 94 b7 26 	call	0x4d6e	; 0x4d6e <__usmulhisi3>
     9fa:	dc 01       	movw	r26, r24
     9fc:	cb 01       	movw	r24, r22
     9fe:	88 0d       	add	r24, r8
     a00:	99 1d       	adc	r25, r9
     a02:	aa 1d       	adc	r26, r10
     a04:	bb 1d       	adc	r27, r11
     a06:	48 81       	ld	r20, Y
     a08:	04 2e       	mov	r0, r20
     a0a:	00 0c       	add	r0, r0
     a0c:	55 0b       	sbc	r21, r21
     a0e:	66 0b       	sbc	r22, r22
     a10:	77 0b       	sbc	r23, r23
     a12:	84 0f       	add	r24, r20
     a14:	95 1f       	adc	r25, r21
     a16:	a6 1f       	adc	r26, r22
     a18:	b7 1f       	adc	r27, r23
     a1a:	bc 01       	movw	r22, r24
     a1c:	cd 01       	movw	r24, r26
     a1e:	6c 0d       	add	r22, r12
     a20:	7d 1d       	adc	r23, r13
     a22:	8e 1d       	adc	r24, r14
     a24:	9f 1d       	adc	r25, r15
     a26:	df 91       	pop	r29
     a28:	cf 91       	pop	r28
     a2a:	1f 91       	pop	r17
     a2c:	0f 91       	pop	r16
     a2e:	ff 90       	pop	r15
     a30:	ef 90       	pop	r14
     a32:	df 90       	pop	r13
     a34:	cf 90       	pop	r12
     a36:	bf 90       	pop	r11
     a38:	af 90       	pop	r10
     a3a:	9f 90       	pop	r9
     a3c:	8f 90       	pop	r8
     a3e:	08 95       	ret

00000a40 <__print_lz>:
     a40:	0f 93       	push	r16
     a42:	1f 93       	push	r17
     a44:	cf 93       	push	r28
     a46:	df 93       	push	r29
     a48:	1f 92       	push	r1
     a4a:	cd b7       	in	r28, 0x3d	; 61
     a4c:	de b7       	in	r29, 0x3e	; 62
     a4e:	8b 01       	movw	r16, r22
     a50:	6a e0       	ldi	r22, 0x0A	; 10
     a52:	70 e0       	ldi	r23, 0x00	; 0
     a54:	49 83       	std	Y+1, r20	; 0x01
     a56:	0e 94 99 23 	call	0x4732	; 0x4732 <__divmodhi4>
     a5a:	60 5d       	subi	r22, 0xD0	; 208
     a5c:	f8 01       	movw	r30, r16
     a5e:	60 83       	st	Z, r22
     a60:	80 5d       	subi	r24, 0xD0	; 208
     a62:	81 83       	std	Z+1, r24	; 0x01
     a64:	49 81       	ldd	r20, Y+1	; 0x01
     a66:	42 83       	std	Z+2, r20	; 0x02
     a68:	0f 90       	pop	r0
     a6a:	df 91       	pop	r29
     a6c:	cf 91       	pop	r28
     a6e:	1f 91       	pop	r17
     a70:	0f 91       	pop	r16
     a72:	08 95       	ret

00000a74 <is_leap_year>:
     a74:	9c 01       	movw	r18, r24
     a76:	23 70       	andi	r18, 0x03	; 3
     a78:	33 27       	eor	r19, r19
     a7a:	23 2b       	or	r18, r19
     a7c:	59 f4       	brne	.+22     	; 0xa94 <is_leap_year+0x20>
     a7e:	64 e6       	ldi	r22, 0x64	; 100
     a80:	70 e0       	ldi	r23, 0x00	; 0
     a82:	0e 94 99 23 	call	0x4732	; 0x4732 <__divmodhi4>
     a86:	89 2b       	or	r24, r25
     a88:	39 f4       	brne	.+14     	; 0xa98 <is_leap_year+0x24>
     a8a:	63 70       	andi	r22, 0x03	; 3
     a8c:	77 27       	eor	r23, r23
     a8e:	81 e0       	ldi	r24, 0x01	; 1
     a90:	67 2b       	or	r22, r23
     a92:	19 f0       	breq	.+6      	; 0xa9a <is_leap_year+0x26>
     a94:	80 e0       	ldi	r24, 0x00	; 0
     a96:	08 95       	ret
     a98:	81 e0       	ldi	r24, 0x01	; 1
     a9a:	08 95       	ret

00000a9c <arch_spi_master_transmit_byte_val>:

	else {//if pipe not readable
		return 0;
	}
	return 0;	
}
     a9c:	80 93 c3 08 	sts	0x08C3, r24	; 0x8008c3 <__TEXT_REGION_LENGTH__+0x7008c3>
     aa0:	e0 ec       	ldi	r30, 0xC0	; 192
     aa2:	f8 e0       	ldi	r31, 0x08	; 8
     aa4:	82 81       	ldd	r24, Z+2	; 0x02
     aa6:	88 23       	and	r24, r24
     aa8:	ec f7       	brge	.-6      	; 0xaa4 <arch_spi_master_transmit_byte_val+0x8>
     aaa:	80 91 c3 08 	lds	r24, 0x08C3	; 0x8008c3 <__TEXT_REGION_LENGTH__+0x7008c3>
     aae:	08 95       	ret

00000ab0 <arch_spi_master_transmit_byte_ref>:
     ab0:	fc 01       	movw	r30, r24
     ab2:	80 81       	ld	r24, Z
     ab4:	80 93 c3 08 	sts	0x08C3, r24	; 0x8008c3 <__TEXT_REGION_LENGTH__+0x7008c3>
     ab8:	e0 ec       	ldi	r30, 0xC0	; 192
     aba:	f8 e0       	ldi	r31, 0x08	; 8
     abc:	82 81       	ldd	r24, Z+2	; 0x02
     abe:	88 23       	and	r24, r24
     ac0:	ec f7       	brge	.-6      	; 0xabc <arch_spi_master_transmit_byte_ref+0xc>
     ac2:	80 91 c3 08 	lds	r24, 0x08C3	; 0x8008c3 <__TEXT_REGION_LENGTH__+0x7008c3>
     ac6:	08 95       	ret

00000ac8 <_nrf24l01p_ce_pin>:
     ac8:	cf 93       	push	r28
     aca:	c8 2f       	mov	r28, r24
     acc:	88 23       	and	r24, r24
     ace:	29 f0       	breq	.+10     	; 0xada <_nrf24l01p_ce_pin+0x12>
     ad0:	82 e0       	ldi	r24, 0x02	; 2
     ad2:	90 e2       	ldi	r25, 0x20	; 32
     ad4:	0e 94 01 1f 	call	0x3e02	; 0x3e02 <DigitalPin_SetValue>
     ad8:	04 c0       	rjmp	.+8      	; 0xae2 <_nrf24l01p_ce_pin+0x1a>
     ada:	82 e0       	ldi	r24, 0x02	; 2
     adc:	90 e2       	ldi	r25, 0x20	; 32
     ade:	0e 94 11 1f 	call	0x3e22	; 0x3e22 <DigitalPin_ClearValue>
     ae2:	c0 93 d5 95 	sts	0x95D5, r28	; 0x8095d5 <ce_value>
     ae6:	cf 91       	pop	r28
     ae8:	08 95       	ret

00000aea <_nrf24l01p_csn_pin>:
     aea:	cf 93       	push	r28
     aec:	c8 2f       	mov	r28, r24
     aee:	88 23       	and	r24, r24
     af0:	29 f0       	breq	.+10     	; 0xafc <_nrf24l01p_csn_pin+0x12>
     af2:	85 e0       	ldi	r24, 0x05	; 5
     af4:	90 e2       	ldi	r25, 0x20	; 32
     af6:	0e 94 01 1f 	call	0x3e02	; 0x3e02 <DigitalPin_SetValue>
     afa:	04 c0       	rjmp	.+8      	; 0xb04 <_nrf24l01p_csn_pin+0x1a>
     afc:	85 e0       	ldi	r24, 0x05	; 5
     afe:	90 e2       	ldi	r25, 0x20	; 32
     b00:	0e 94 11 1f 	call	0x3e22	; 0x3e22 <DigitalPin_ClearValue>
     b04:	c0 93 d4 95 	sts	0x95D4, r28	; 0x8095d4 <csn_value>
     b08:	cf 91       	pop	r28
     b0a:	08 95       	ret

00000b0c <_nrf24l01p_read_register>:
     b0c:	ef 92       	push	r14
     b0e:	ff 92       	push	r15
     b10:	0f 93       	push	r16
     b12:	1f 93       	push	r17
     b14:	cf 93       	push	r28
     b16:	df 93       	push	r29
     b18:	c8 2f       	mov	r28, r24
     b1a:	7b 01       	movw	r14, r22
     b1c:	8a 01       	movw	r16, r20
     b1e:	80 e0       	ldi	r24, 0x00	; 0
     b20:	0e 94 75 05 	call	0xaea	; 0xaea <_nrf24l01p_csn_pin>
     b24:	8c 2f       	mov	r24, r28
     b26:	8f 71       	andi	r24, 0x1F	; 31
     b28:	0e 94 4e 05 	call	0xa9c	; 0xa9c <arch_spi_master_transmit_byte_val>
     b2c:	10 16       	cp	r1, r16
     b2e:	11 06       	cpc	r1, r17
     b30:	94 f4       	brge	.+36     	; 0xb56 <_nrf24l01p_read_register+0x4a>
     b32:	e7 01       	movw	r28, r14
     b34:	0e 0d       	add	r16, r14
     b36:	1f 1d       	adc	r17, r15
     b38:	0f 2e       	mov	r0, r31
     b3a:	f0 ec       	ldi	r31, 0xC0	; 192
     b3c:	ef 2e       	mov	r14, r31
     b3e:	f8 e0       	ldi	r31, 0x08	; 8
     b40:	ff 2e       	mov	r15, r31
     b42:	f0 2d       	mov	r31, r0
     b44:	8f ef       	ldi	r24, 0xFF	; 255
     b46:	0e 94 4e 05 	call	0xa9c	; 0xa9c <arch_spi_master_transmit_byte_val>
     b4a:	f7 01       	movw	r30, r14
     b4c:	83 81       	ldd	r24, Z+3	; 0x03
     b4e:	89 93       	st	Y+, r24
     b50:	c0 17       	cp	r28, r16
     b52:	d1 07       	cpc	r29, r17
     b54:	b9 f7       	brne	.-18     	; 0xb44 <_nrf24l01p_read_register+0x38>
     b56:	81 e0       	ldi	r24, 0x01	; 1
     b58:	0e 94 75 05 	call	0xaea	; 0xaea <_nrf24l01p_csn_pin>
     b5c:	df 91       	pop	r29
     b5e:	cf 91       	pop	r28
     b60:	1f 91       	pop	r17
     b62:	0f 91       	pop	r16
     b64:	ff 90       	pop	r15
     b66:	ef 90       	pop	r14
     b68:	08 95       	ret

00000b6a <_nrf24l01p_write_register>:
     b6a:	ef 92       	push	r14
     b6c:	ff 92       	push	r15
     b6e:	0f 93       	push	r16
     b70:	1f 93       	push	r17
     b72:	cf 93       	push	r28
     b74:	df 93       	push	r29
     b76:	c8 2f       	mov	r28, r24
     b78:	7b 01       	movw	r14, r22
     b7a:	8a 01       	movw	r16, r20
     b7c:	80 e0       	ldi	r24, 0x00	; 0
     b7e:	0e 94 75 05 	call	0xaea	; 0xaea <_nrf24l01p_csn_pin>
     b82:	8c 2f       	mov	r24, r28
     b84:	8f 71       	andi	r24, 0x1F	; 31
     b86:	80 62       	ori	r24, 0x20	; 32
     b88:	0e 94 4e 05 	call	0xa9c	; 0xa9c <arch_spi_master_transmit_byte_val>
     b8c:	10 16       	cp	r1, r16
     b8e:	11 06       	cpc	r1, r17
     b90:	54 f4       	brge	.+20     	; 0xba6 <_nrf24l01p_write_register+0x3c>
     b92:	e7 01       	movw	r28, r14
     b94:	0e 0d       	add	r16, r14
     b96:	1f 1d       	adc	r17, r15
     b98:	ce 01       	movw	r24, r28
     b9a:	0e 94 58 05 	call	0xab0	; 0xab0 <arch_spi_master_transmit_byte_ref>
     b9e:	21 96       	adiw	r28, 0x01	; 1
     ba0:	c0 17       	cp	r28, r16
     ba2:	d1 07       	cpc	r29, r17
     ba4:	c9 f7       	brne	.-14     	; 0xb98 <_nrf24l01p_write_register+0x2e>
     ba6:	81 e0       	ldi	r24, 0x01	; 1
     ba8:	0e 94 75 05 	call	0xaea	; 0xaea <_nrf24l01p_csn_pin>
     bac:	df 91       	pop	r29
     bae:	cf 91       	pop	r28
     bb0:	1f 91       	pop	r17
     bb2:	0f 91       	pop	r16
     bb4:	ff 90       	pop	r15
     bb6:	ef 90       	pop	r14
     bb8:	08 95       	ret

00000bba <_nrf24l01p_read_rx_payload>:
     bba:	ef 92       	push	r14
     bbc:	ff 92       	push	r15
     bbe:	0f 93       	push	r16
     bc0:	1f 93       	push	r17
     bc2:	cf 93       	push	r28
     bc4:	df 93       	push	r29
     bc6:	7c 01       	movw	r14, r24
     bc8:	8b 01       	movw	r16, r22
     bca:	80 e0       	ldi	r24, 0x00	; 0
     bcc:	0e 94 75 05 	call	0xaea	; 0xaea <_nrf24l01p_csn_pin>
     bd0:	81 e6       	ldi	r24, 0x61	; 97
     bd2:	0e 94 4e 05 	call	0xa9c	; 0xa9c <arch_spi_master_transmit_byte_val>
     bd6:	10 16       	cp	r1, r16
     bd8:	11 06       	cpc	r1, r17
     bda:	94 f4       	brge	.+36     	; 0xc00 <_nrf24l01p_read_rx_payload+0x46>
     bdc:	e7 01       	movw	r28, r14
     bde:	0e 0d       	add	r16, r14
     be0:	1f 1d       	adc	r17, r15
     be2:	0f 2e       	mov	r0, r31
     be4:	f0 ec       	ldi	r31, 0xC0	; 192
     be6:	ef 2e       	mov	r14, r31
     be8:	f8 e0       	ldi	r31, 0x08	; 8
     bea:	ff 2e       	mov	r15, r31
     bec:	f0 2d       	mov	r31, r0
     bee:	8f ef       	ldi	r24, 0xFF	; 255
     bf0:	0e 94 4e 05 	call	0xa9c	; 0xa9c <arch_spi_master_transmit_byte_val>
     bf4:	f7 01       	movw	r30, r14
     bf6:	93 81       	ldd	r25, Z+3	; 0x03
     bf8:	99 93       	st	Y+, r25
     bfa:	c0 17       	cp	r28, r16
     bfc:	d1 07       	cpc	r29, r17
     bfe:	b9 f7       	brne	.-18     	; 0xbee <_nrf24l01p_read_rx_payload+0x34>
     c00:	81 e0       	ldi	r24, 0x01	; 1
     c02:	0e 94 75 05 	call	0xaea	; 0xaea <_nrf24l01p_csn_pin>
     c06:	df 91       	pop	r29
     c08:	cf 91       	pop	r28
     c0a:	1f 91       	pop	r17
     c0c:	0f 91       	pop	r16
     c0e:	ff 90       	pop	r15
     c10:	ef 90       	pop	r14
     c12:	08 95       	ret

00000c14 <_nrf24l01p_flush_rx>:
     c14:	80 e0       	ldi	r24, 0x00	; 0
     c16:	0e 94 75 05 	call	0xaea	; 0xaea <_nrf24l01p_csn_pin>
     c1a:	82 ee       	ldi	r24, 0xE2	; 226
     c1c:	0e 94 4e 05 	call	0xa9c	; 0xa9c <arch_spi_master_transmit_byte_val>
     c20:	81 e0       	ldi	r24, 0x01	; 1
     c22:	0e 94 75 05 	call	0xaea	; 0xaea <_nrf24l01p_csn_pin>
     c26:	08 95       	ret

00000c28 <_nrf24l01p_read_rx_payload_width>:
     c28:	cf 93       	push	r28
     c2a:	80 e0       	ldi	r24, 0x00	; 0
     c2c:	0e 94 75 05 	call	0xaea	; 0xaea <_nrf24l01p_csn_pin>
     c30:	80 e6       	ldi	r24, 0x60	; 96
     c32:	0e 94 4e 05 	call	0xa9c	; 0xa9c <arch_spi_master_transmit_byte_val>
     c36:	8f ef       	ldi	r24, 0xFF	; 255
     c38:	0e 94 4e 05 	call	0xa9c	; 0xa9c <arch_spi_master_transmit_byte_val>
     c3c:	c8 2f       	mov	r28, r24
     c3e:	81 e0       	ldi	r24, 0x01	; 1
     c40:	0e 94 75 05 	call	0xaea	; 0xaea <_nrf24l01p_csn_pin>
     c44:	8c 2f       	mov	r24, r28
     c46:	90 e0       	ldi	r25, 0x00	; 0
     c48:	cf 91       	pop	r28
     c4a:	08 95       	ret

00000c4c <_nrf24l01p_power_up>:
     c4c:	cf 93       	push	r28
     c4e:	df 93       	push	r29
     c50:	1f 92       	push	r1
     c52:	cd b7       	in	r28, 0x3d	; 61
     c54:	de b7       	in	r29, 0x3e	; 62
     c56:	41 e0       	ldi	r20, 0x01	; 1
     c58:	50 e0       	ldi	r21, 0x00	; 0
     c5a:	be 01       	movw	r22, r28
     c5c:	6f 5f       	subi	r22, 0xFF	; 255
     c5e:	7f 4f       	sbci	r23, 0xFF	; 255
     c60:	80 e0       	ldi	r24, 0x00	; 0
     c62:	0e 94 86 05 	call	0xb0c	; 0xb0c <_nrf24l01p_read_register>
     c66:	89 81       	ldd	r24, Y+1	; 0x01
     c68:	82 60       	ori	r24, 0x02	; 2
     c6a:	89 83       	std	Y+1, r24	; 0x01
     c6c:	41 e0       	ldi	r20, 0x01	; 1
     c6e:	50 e0       	ldi	r21, 0x00	; 0
     c70:	be 01       	movw	r22, r28
     c72:	6f 5f       	subi	r22, 0xFF	; 255
     c74:	7f 4f       	sbci	r23, 0xFF	; 255
     c76:	80 e0       	ldi	r24, 0x00	; 0
     c78:	0e 94 b5 05 	call	0xb6a	; 0xb6a <_nrf24l01p_write_register>
     c7c:	8f e9       	ldi	r24, 0x9F	; 159
     c7e:	9c e8       	ldi	r25, 0x8C	; 140
     c80:	01 97       	sbiw	r24, 0x01	; 1
     c82:	f1 f7       	brne	.-4      	; 0xc80 <_nrf24l01p_power_up+0x34>
     c84:	00 c0       	rjmp	.+0      	; 0xc86 <_nrf24l01p_power_up+0x3a>
     c86:	00 00       	nop
     c88:	82 e0       	ldi	r24, 0x02	; 2
     c8a:	80 93 d6 95 	sts	0x95D6, r24	; 0x8095d6 <mode>
     c8e:	0f 90       	pop	r0
     c90:	df 91       	pop	r29
     c92:	cf 91       	pop	r28
     c94:	08 95       	ret

00000c96 <_nrf24l01p_power_down>:
     c96:	cf 93       	push	r28
     c98:	df 93       	push	r29
     c9a:	1f 92       	push	r1
     c9c:	cd b7       	in	r28, 0x3d	; 61
     c9e:	de b7       	in	r29, 0x3e	; 62
     ca0:	41 e0       	ldi	r20, 0x01	; 1
     ca2:	50 e0       	ldi	r21, 0x00	; 0
     ca4:	be 01       	movw	r22, r28
     ca6:	6f 5f       	subi	r22, 0xFF	; 255
     ca8:	7f 4f       	sbci	r23, 0xFF	; 255
     caa:	80 e0       	ldi	r24, 0x00	; 0
     cac:	0e 94 86 05 	call	0xb0c	; 0xb0c <_nrf24l01p_read_register>
     cb0:	89 81       	ldd	r24, Y+1	; 0x01
     cb2:	8d 7f       	andi	r24, 0xFD	; 253
     cb4:	89 83       	std	Y+1, r24	; 0x01
     cb6:	41 e0       	ldi	r20, 0x01	; 1
     cb8:	50 e0       	ldi	r21, 0x00	; 0
     cba:	be 01       	movw	r22, r28
     cbc:	6f 5f       	subi	r22, 0xFF	; 255
     cbe:	7f 4f       	sbci	r23, 0xFF	; 255
     cc0:	80 e0       	ldi	r24, 0x00	; 0
     cc2:	0e 94 b5 05 	call	0xb6a	; 0xb6a <_nrf24l01p_write_register>
     cc6:	81 e0       	ldi	r24, 0x01	; 1
     cc8:	80 93 d6 95 	sts	0x95D6, r24	; 0x8095d6 <mode>
     ccc:	0f 90       	pop	r0
     cce:	df 91       	pop	r29
     cd0:	cf 91       	pop	r28
     cd2:	08 95       	ret

00000cd4 <_nrf24l01p_rx_mode>:
     cd4:	cf 93       	push	r28
     cd6:	df 93       	push	r29
     cd8:	1f 92       	push	r1
     cda:	cd b7       	in	r28, 0x3d	; 61
     cdc:	de b7       	in	r29, 0x3e	; 62
     cde:	41 e0       	ldi	r20, 0x01	; 1
     ce0:	50 e0       	ldi	r21, 0x00	; 0
     ce2:	be 01       	movw	r22, r28
     ce4:	6f 5f       	subi	r22, 0xFF	; 255
     ce6:	7f 4f       	sbci	r23, 0xFF	; 255
     ce8:	80 e0       	ldi	r24, 0x00	; 0
     cea:	0e 94 86 05 	call	0xb0c	; 0xb0c <_nrf24l01p_read_register>
     cee:	89 81       	ldd	r24, Y+1	; 0x01
     cf0:	81 60       	ori	r24, 0x01	; 1
     cf2:	89 83       	std	Y+1, r24	; 0x01
     cf4:	41 e0       	ldi	r20, 0x01	; 1
     cf6:	50 e0       	ldi	r21, 0x00	; 0
     cf8:	be 01       	movw	r22, r28
     cfa:	6f 5f       	subi	r22, 0xFF	; 255
     cfc:	7f 4f       	sbci	r23, 0xFF	; 255
     cfe:	80 e0       	ldi	r24, 0x00	; 0
     d00:	0e 94 b5 05 	call	0xb6a	; 0xb6a <_nrf24l01p_write_register>
     d04:	83 e0       	ldi	r24, 0x03	; 3
     d06:	80 93 d6 95 	sts	0x95D6, r24	; 0x8095d6 <mode>
     d0a:	0f 90       	pop	r0
     d0c:	df 91       	pop	r29
     d0e:	cf 91       	pop	r28
     d10:	08 95       	ret

00000d12 <_nrf24l01p_enable_auto_ack>:
     d12:	1f 93       	push	r17
     d14:	cf 93       	push	r28
     d16:	df 93       	push	r29
     d18:	1f 92       	push	r1
     d1a:	cd b7       	in	r28, 0x3d	; 61
     d1c:	de b7       	in	r29, 0x3e	; 62
     d1e:	18 2f       	mov	r17, r24
     d20:	41 e0       	ldi	r20, 0x01	; 1
     d22:	50 e0       	ldi	r21, 0x00	; 0
     d24:	be 01       	movw	r22, r28
     d26:	6f 5f       	subi	r22, 0xFF	; 255
     d28:	7f 4f       	sbci	r23, 0xFF	; 255
     d2a:	81 e0       	ldi	r24, 0x01	; 1
     d2c:	0e 94 86 05 	call	0xb0c	; 0xb0c <_nrf24l01p_read_register>
     d30:	21 e0       	ldi	r18, 0x01	; 1
     d32:	30 e0       	ldi	r19, 0x00	; 0
     d34:	c9 01       	movw	r24, r18
     d36:	02 c0       	rjmp	.+4      	; 0xd3c <_nrf24l01p_enable_auto_ack+0x2a>
     d38:	88 0f       	add	r24, r24
     d3a:	99 1f       	adc	r25, r25
     d3c:	1a 95       	dec	r17
     d3e:	e2 f7       	brpl	.-8      	; 0xd38 <_nrf24l01p_enable_auto_ack+0x26>
     d40:	99 81       	ldd	r25, Y+1	; 0x01
     d42:	89 2b       	or	r24, r25
     d44:	89 83       	std	Y+1, r24	; 0x01
     d46:	41 e0       	ldi	r20, 0x01	; 1
     d48:	50 e0       	ldi	r21, 0x00	; 0
     d4a:	be 01       	movw	r22, r28
     d4c:	6f 5f       	subi	r22, 0xFF	; 255
     d4e:	7f 4f       	sbci	r23, 0xFF	; 255
     d50:	81 e0       	ldi	r24, 0x01	; 1
     d52:	0e 94 b5 05 	call	0xb6a	; 0xb6a <_nrf24l01p_write_register>
     d56:	0f 90       	pop	r0
     d58:	df 91       	pop	r29
     d5a:	cf 91       	pop	r28
     d5c:	1f 91       	pop	r17
     d5e:	08 95       	ret

00000d60 <_nrf24l01p_disable_auto_ack_all_pipes>:
     d60:	cf 93       	push	r28
     d62:	df 93       	push	r29
     d64:	1f 92       	push	r1
     d66:	cd b7       	in	r28, 0x3d	; 61
     d68:	de b7       	in	r29, 0x3e	; 62
     d6a:	19 82       	std	Y+1, r1	; 0x01
     d6c:	41 e0       	ldi	r20, 0x01	; 1
     d6e:	50 e0       	ldi	r21, 0x00	; 0
     d70:	be 01       	movw	r22, r28
     d72:	6f 5f       	subi	r22, 0xFF	; 255
     d74:	7f 4f       	sbci	r23, 0xFF	; 255
     d76:	81 e0       	ldi	r24, 0x01	; 1
     d78:	0e 94 b5 05 	call	0xb6a	; 0xb6a <_nrf24l01p_write_register>
     d7c:	0f 90       	pop	r0
     d7e:	df 91       	pop	r29
     d80:	cf 91       	pop	r28
     d82:	08 95       	ret

00000d84 <_nrf24l01p_enable_rx_on_pipe>:
     d84:	1f 93       	push	r17
     d86:	cf 93       	push	r28
     d88:	df 93       	push	r29
     d8a:	1f 92       	push	r1
     d8c:	cd b7       	in	r28, 0x3d	; 61
     d8e:	de b7       	in	r29, 0x3e	; 62
     d90:	18 2f       	mov	r17, r24
     d92:	41 e0       	ldi	r20, 0x01	; 1
     d94:	50 e0       	ldi	r21, 0x00	; 0
     d96:	be 01       	movw	r22, r28
     d98:	6f 5f       	subi	r22, 0xFF	; 255
     d9a:	7f 4f       	sbci	r23, 0xFF	; 255
     d9c:	82 e0       	ldi	r24, 0x02	; 2
     d9e:	0e 94 86 05 	call	0xb0c	; 0xb0c <_nrf24l01p_read_register>
     da2:	21 e0       	ldi	r18, 0x01	; 1
     da4:	30 e0       	ldi	r19, 0x00	; 0
     da6:	c9 01       	movw	r24, r18
     da8:	02 c0       	rjmp	.+4      	; 0xdae <_nrf24l01p_enable_rx_on_pipe+0x2a>
     daa:	88 0f       	add	r24, r24
     dac:	99 1f       	adc	r25, r25
     dae:	1a 95       	dec	r17
     db0:	e2 f7       	brpl	.-8      	; 0xdaa <_nrf24l01p_enable_rx_on_pipe+0x26>
     db2:	99 81       	ldd	r25, Y+1	; 0x01
     db4:	89 2b       	or	r24, r25
     db6:	89 83       	std	Y+1, r24	; 0x01
     db8:	41 e0       	ldi	r20, 0x01	; 1
     dba:	50 e0       	ldi	r21, 0x00	; 0
     dbc:	be 01       	movw	r22, r28
     dbe:	6f 5f       	subi	r22, 0xFF	; 255
     dc0:	7f 4f       	sbci	r23, 0xFF	; 255
     dc2:	82 e0       	ldi	r24, 0x02	; 2
     dc4:	0e 94 b5 05 	call	0xb6a	; 0xb6a <_nrf24l01p_write_register>
     dc8:	0f 90       	pop	r0
     dca:	df 91       	pop	r29
     dcc:	cf 91       	pop	r28
     dce:	1f 91       	pop	r17
     dd0:	08 95       	ret

00000dd2 <_nrf24l01p_set_auto_retransmission_count>:
     dd2:	1f 93       	push	r17
     dd4:	cf 93       	push	r28
     dd6:	df 93       	push	r29
     dd8:	1f 92       	push	r1
     dda:	cd b7       	in	r28, 0x3d	; 61
     ddc:	de b7       	in	r29, 0x3e	; 62
     dde:	18 2f       	mov	r17, r24
     de0:	41 e0       	ldi	r20, 0x01	; 1
     de2:	50 e0       	ldi	r21, 0x00	; 0
     de4:	be 01       	movw	r22, r28
     de6:	6f 5f       	subi	r22, 0xFF	; 255
     de8:	7f 4f       	sbci	r23, 0xFF	; 255
     dea:	84 e0       	ldi	r24, 0x04	; 4
     dec:	0e 94 86 05 	call	0xb0c	; 0xb0c <_nrf24l01p_read_register>
     df0:	99 81       	ldd	r25, Y+1	; 0x01
     df2:	90 7f       	andi	r25, 0xF0	; 240
     df4:	81 2f       	mov	r24, r17
     df6:	89 2b       	or	r24, r25
     df8:	89 83       	std	Y+1, r24	; 0x01
     dfa:	41 e0       	ldi	r20, 0x01	; 1
     dfc:	50 e0       	ldi	r21, 0x00	; 0
     dfe:	be 01       	movw	r22, r28
     e00:	6f 5f       	subi	r22, 0xFF	; 255
     e02:	7f 4f       	sbci	r23, 0xFF	; 255
     e04:	84 e0       	ldi	r24, 0x04	; 4
     e06:	0e 94 b5 05 	call	0xb6a	; 0xb6a <_nrf24l01p_write_register>
     e0a:	0f 90       	pop	r0
     e0c:	df 91       	pop	r29
     e0e:	cf 91       	pop	r28
     e10:	1f 91       	pop	r17
     e12:	08 95       	ret

00000e14 <_nrf24l01p_set_auto_retransmission_delay>:
     e14:	1f 93       	push	r17
     e16:	cf 93       	push	r28
     e18:	df 93       	push	r29
     e1a:	1f 92       	push	r1
     e1c:	cd b7       	in	r28, 0x3d	; 61
     e1e:	de b7       	in	r29, 0x3e	; 62
     e20:	18 2f       	mov	r17, r24
     e22:	41 e0       	ldi	r20, 0x01	; 1
     e24:	50 e0       	ldi	r21, 0x00	; 0
     e26:	be 01       	movw	r22, r28
     e28:	6f 5f       	subi	r22, 0xFF	; 255
     e2a:	7f 4f       	sbci	r23, 0xFF	; 255
     e2c:	84 e0       	ldi	r24, 0x04	; 4
     e2e:	0e 94 86 05 	call	0xb0c	; 0xb0c <_nrf24l01p_read_register>
     e32:	20 e1       	ldi	r18, 0x10	; 16
     e34:	12 9f       	mul	r17, r18
     e36:	c0 01       	movw	r24, r0
     e38:	11 24       	eor	r1, r1
     e3a:	99 81       	ldd	r25, Y+1	; 0x01
     e3c:	9f 70       	andi	r25, 0x0F	; 15
     e3e:	89 2b       	or	r24, r25
     e40:	89 83       	std	Y+1, r24	; 0x01
     e42:	41 e0       	ldi	r20, 0x01	; 1
     e44:	50 e0       	ldi	r21, 0x00	; 0
     e46:	be 01       	movw	r22, r28
     e48:	6f 5f       	subi	r22, 0xFF	; 255
     e4a:	7f 4f       	sbci	r23, 0xFF	; 255
     e4c:	84 e0       	ldi	r24, 0x04	; 4
     e4e:	0e 94 b5 05 	call	0xb6a	; 0xb6a <_nrf24l01p_write_register>
     e52:	0f 90       	pop	r0
     e54:	df 91       	pop	r29
     e56:	cf 91       	pop	r28
     e58:	1f 91       	pop	r17
     e5a:	08 95       	ret

00000e5c <_nrf24l01p_set_DataRate>:
     e5c:	1f 93       	push	r17
     e5e:	cf 93       	push	r28
     e60:	df 93       	push	r29
     e62:	1f 92       	push	r1
     e64:	cd b7       	in	r28, 0x3d	; 61
     e66:	de b7       	in	r29, 0x3e	; 62
     e68:	18 2f       	mov	r17, r24
     e6a:	41 e0       	ldi	r20, 0x01	; 1
     e6c:	50 e0       	ldi	r21, 0x00	; 0
     e6e:	be 01       	movw	r22, r28
     e70:	6f 5f       	subi	r22, 0xFF	; 255
     e72:	7f 4f       	sbci	r23, 0xFF	; 255
     e74:	86 e0       	ldi	r24, 0x06	; 6
     e76:	0e 94 86 05 	call	0xb0c	; 0xb0c <_nrf24l01p_read_register>
     e7a:	99 81       	ldd	r25, Y+1	; 0x01
     e7c:	97 7d       	andi	r25, 0xD7	; 215
     e7e:	81 2f       	mov	r24, r17
     e80:	89 2b       	or	r24, r25
     e82:	89 83       	std	Y+1, r24	; 0x01
     e84:	41 e0       	ldi	r20, 0x01	; 1
     e86:	50 e0       	ldi	r21, 0x00	; 0
     e88:	be 01       	movw	r22, r28
     e8a:	6f 5f       	subi	r22, 0xFF	; 255
     e8c:	7f 4f       	sbci	r23, 0xFF	; 255
     e8e:	86 e0       	ldi	r24, 0x06	; 6
     e90:	0e 94 b5 05 	call	0xb6a	; 0xb6a <_nrf24l01p_write_register>
     e94:	0f 90       	pop	r0
     e96:	df 91       	pop	r29
     e98:	cf 91       	pop	r28
     e9a:	1f 91       	pop	r17
     e9c:	08 95       	ret

00000e9e <_nrf24l01p_set_RX_pipe_address>:
     e9e:	2f 92       	push	r2
     ea0:	3f 92       	push	r3
     ea2:	4f 92       	push	r4
     ea4:	5f 92       	push	r5
     ea6:	6f 92       	push	r6
     ea8:	7f 92       	push	r7
     eaa:	8f 92       	push	r8
     eac:	9f 92       	push	r9
     eae:	af 92       	push	r10
     eb0:	bf 92       	push	r11
     eb2:	cf 92       	push	r12
     eb4:	df 92       	push	r13
     eb6:	ef 92       	push	r14
     eb8:	ff 92       	push	r15
     eba:	0f 93       	push	r16
     ebc:	1f 93       	push	r17
     ebe:	cf 93       	push	r28
     ec0:	df 93       	push	r29
     ec2:	cd b7       	in	r28, 0x3d	; 61
     ec4:	de b7       	in	r29, 0x3e	; 62
     ec6:	25 97       	sbiw	r28, 0x05	; 5
     ec8:	cd bf       	out	0x3d, r28	; 61
     eca:	de bf       	out	0x3e, r29	; 62
     ecc:	48 2e       	mov	r4, r24
     ece:	b0 2e       	mov	r11, r16
     ed0:	a2 2e       	mov	r10, r18
     ed2:	93 2e       	mov	r9, r19
     ed4:	84 2e       	mov	r8, r20
     ed6:	75 2e       	mov	r7, r21
     ed8:	66 2e       	mov	r6, r22
     eda:	57 2e       	mov	r5, r23
     edc:	81 e0       	ldi	r24, 0x01	; 1
     ede:	84 15       	cp	r24, r4
     ee0:	68 f4       	brcc	.+26     	; 0xefc <_nrf24l01p_set_RX_pipe_address+0x5e>
     ee2:	21 e0       	ldi	r18, 0x01	; 1
     ee4:	90 e0       	ldi	r25, 0x00	; 0
     ee6:	8e ef       	ldi	r24, 0xFE	; 254
     ee8:	84 0d       	add	r24, r4
     eea:	84 30       	cpi	r24, 0x04	; 4
     eec:	08 f0       	brcs	.+2      	; 0xef0 <_nrf24l01p_set_RX_pipe_address+0x52>
     eee:	20 e0       	ldi	r18, 0x00	; 0
     ef0:	c2 2e       	mov	r12, r18
     ef2:	d9 2e       	mov	r13, r25
     ef4:	1c 14       	cp	r1, r12
     ef6:	1d 04       	cpc	r1, r13
     ef8:	34 f0       	brlt	.+12     	; 0xf06 <_nrf24l01p_set_RX_pipe_address+0x68>
     efa:	21 c0       	rjmp	.+66     	; 0xf3e <_nrf24l01p_set_RX_pipe_address+0xa0>
     efc:	0f 2e       	mov	r0, r31
     efe:	f5 e0       	ldi	r31, 0x05	; 5
     f00:	cf 2e       	mov	r12, r31
     f02:	d1 2c       	mov	r13, r1
     f04:	f0 2d       	mov	r31, r0
     f06:	de 01       	movw	r26, r28
     f08:	11 96       	adiw	r26, 0x01	; 1
     f0a:	7d 01       	movw	r14, r26
     f0c:	21 2c       	mov	r2, r1
     f0e:	31 2c       	mov	r3, r1
     f10:	e0 e0       	ldi	r30, 0x00	; 0
     f12:	f0 e0       	ldi	r31, 0x00	; 0
     f14:	2b 2d       	mov	r18, r11
     f16:	31 2f       	mov	r19, r17
     f18:	4a 2d       	mov	r20, r10
     f1a:	59 2d       	mov	r21, r9
     f1c:	68 2d       	mov	r22, r8
     f1e:	77 2d       	mov	r23, r7
     f20:	86 2d       	mov	r24, r6
     f22:	95 2d       	mov	r25, r5
     f24:	02 2d       	mov	r16, r2
     f26:	0e 94 d9 23 	call	0x47b2	; 0x47b2 <__lshrdi3>
     f2a:	d7 01       	movw	r26, r14
     f2c:	2d 93       	st	X+, r18
     f2e:	7d 01       	movw	r14, r26
     f30:	31 96       	adiw	r30, 0x01	; 1
     f32:	b8 e0       	ldi	r27, 0x08	; 8
     f34:	2b 0e       	add	r2, r27
     f36:	31 1c       	adc	r3, r1
     f38:	ec 15       	cp	r30, r12
     f3a:	fd 05       	cpc	r31, r13
     f3c:	5c f3       	brlt	.-42     	; 0xf14 <_nrf24l01p_set_RX_pipe_address+0x76>
     f3e:	a6 01       	movw	r20, r12
     f40:	be 01       	movw	r22, r28
     f42:	6f 5f       	subi	r22, 0xFF	; 255
     f44:	7f 4f       	sbci	r23, 0xFF	; 255
     f46:	8a e0       	ldi	r24, 0x0A	; 10
     f48:	84 0d       	add	r24, r4
     f4a:	0e 94 b5 05 	call	0xb6a	; 0xb6a <_nrf24l01p_write_register>
     f4e:	25 96       	adiw	r28, 0x05	; 5
     f50:	cd bf       	out	0x3d, r28	; 61
     f52:	de bf       	out	0x3e, r29	; 62
     f54:	df 91       	pop	r29
     f56:	cf 91       	pop	r28
     f58:	1f 91       	pop	r17
     f5a:	0f 91       	pop	r16
     f5c:	ff 90       	pop	r15
     f5e:	ef 90       	pop	r14
     f60:	df 90       	pop	r13
     f62:	cf 90       	pop	r12
     f64:	bf 90       	pop	r11
     f66:	af 90       	pop	r10
     f68:	9f 90       	pop	r9
     f6a:	8f 90       	pop	r8
     f6c:	7f 90       	pop	r7
     f6e:	6f 90       	pop	r6
     f70:	5f 90       	pop	r5
     f72:	4f 90       	pop	r4
     f74:	3f 90       	pop	r3
     f76:	2f 90       	pop	r2
     f78:	08 95       	ret

00000f7a <_nrf24l01p_get_fifo_flag_rx_empty>:
     f7a:	cf 93       	push	r28
     f7c:	df 93       	push	r29
     f7e:	1f 92       	push	r1
     f80:	cd b7       	in	r28, 0x3d	; 61
     f82:	de b7       	in	r29, 0x3e	; 62
     f84:	41 e0       	ldi	r20, 0x01	; 1
     f86:	50 e0       	ldi	r21, 0x00	; 0
     f88:	be 01       	movw	r22, r28
     f8a:	6f 5f       	subi	r22, 0xFF	; 255
     f8c:	7f 4f       	sbci	r23, 0xFF	; 255
     f8e:	87 e1       	ldi	r24, 0x17	; 23
     f90:	0e 94 86 05 	call	0xb0c	; 0xb0c <_nrf24l01p_read_register>
     f94:	89 81       	ldd	r24, Y+1	; 0x01
     f96:	81 70       	andi	r24, 0x01	; 1
     f98:	0f 90       	pop	r0
     f9a:	df 91       	pop	r29
     f9c:	cf 91       	pop	r28
     f9e:	08 95       	ret

00000fa0 <_nrf24l01p_enable_dynamic_payload_pipe>:
     fa0:	1f 93       	push	r17
     fa2:	cf 93       	push	r28
     fa4:	df 93       	push	r29
     fa6:	1f 92       	push	r1
     fa8:	cd b7       	in	r28, 0x3d	; 61
     faa:	de b7       	in	r29, 0x3e	; 62
     fac:	18 2f       	mov	r17, r24
     fae:	41 e0       	ldi	r20, 0x01	; 1
     fb0:	50 e0       	ldi	r21, 0x00	; 0
     fb2:	be 01       	movw	r22, r28
     fb4:	6f 5f       	subi	r22, 0xFF	; 255
     fb6:	7f 4f       	sbci	r23, 0xFF	; 255
     fb8:	8c e1       	ldi	r24, 0x1C	; 28
     fba:	0e 94 86 05 	call	0xb0c	; 0xb0c <_nrf24l01p_read_register>
     fbe:	21 e0       	ldi	r18, 0x01	; 1
     fc0:	30 e0       	ldi	r19, 0x00	; 0
     fc2:	c9 01       	movw	r24, r18
     fc4:	02 c0       	rjmp	.+4      	; 0xfca <_nrf24l01p_enable_dynamic_payload_pipe+0x2a>
     fc6:	88 0f       	add	r24, r24
     fc8:	99 1f       	adc	r25, r25
     fca:	1a 95       	dec	r17
     fcc:	e2 f7       	brpl	.-8      	; 0xfc6 <_nrf24l01p_enable_dynamic_payload_pipe+0x26>
     fce:	99 81       	ldd	r25, Y+1	; 0x01
     fd0:	89 2b       	or	r24, r25
     fd2:	89 83       	std	Y+1, r24	; 0x01
     fd4:	41 e0       	ldi	r20, 0x01	; 1
     fd6:	50 e0       	ldi	r21, 0x00	; 0
     fd8:	be 01       	movw	r22, r28
     fda:	6f 5f       	subi	r22, 0xFF	; 255
     fdc:	7f 4f       	sbci	r23, 0xFF	; 255
     fde:	8c e1       	ldi	r24, 0x1C	; 28
     fe0:	0e 94 b5 05 	call	0xb6a	; 0xb6a <_nrf24l01p_write_register>
     fe4:	0f 90       	pop	r0
     fe6:	df 91       	pop	r29
     fe8:	cf 91       	pop	r28
     fea:	1f 91       	pop	r17
     fec:	08 95       	ret

00000fee <_nrf24l01p_disable_dynamic_payload_all_pipe>:
     fee:	cf 93       	push	r28
     ff0:	df 93       	push	r29
     ff2:	1f 92       	push	r1
     ff4:	cd b7       	in	r28, 0x3d	; 61
     ff6:	de b7       	in	r29, 0x3e	; 62
     ff8:	19 82       	std	Y+1, r1	; 0x01
     ffa:	41 e0       	ldi	r20, 0x01	; 1
     ffc:	50 e0       	ldi	r21, 0x00	; 0
     ffe:	be 01       	movw	r22, r28
    1000:	6f 5f       	subi	r22, 0xFF	; 255
    1002:	7f 4f       	sbci	r23, 0xFF	; 255
    1004:	8c e1       	ldi	r24, 0x1C	; 28
    1006:	0e 94 b5 05 	call	0xb6a	; 0xb6a <_nrf24l01p_write_register>
    100a:	0f 90       	pop	r0
    100c:	df 91       	pop	r29
    100e:	cf 91       	pop	r28
    1010:	08 95       	ret

00001012 <_nrf24l01p_enable_dynamic_payload>:
    1012:	cf 93       	push	r28
    1014:	df 93       	push	r29
    1016:	1f 92       	push	r1
    1018:	cd b7       	in	r28, 0x3d	; 61
    101a:	de b7       	in	r29, 0x3e	; 62
    101c:	41 e0       	ldi	r20, 0x01	; 1
    101e:	50 e0       	ldi	r21, 0x00	; 0
    1020:	be 01       	movw	r22, r28
    1022:	6f 5f       	subi	r22, 0xFF	; 255
    1024:	7f 4f       	sbci	r23, 0xFF	; 255
    1026:	8d e1       	ldi	r24, 0x1D	; 29
    1028:	0e 94 86 05 	call	0xb0c	; 0xb0c <_nrf24l01p_read_register>
    102c:	89 81       	ldd	r24, Y+1	; 0x01
    102e:	84 60       	ori	r24, 0x04	; 4
    1030:	89 83       	std	Y+1, r24	; 0x01
    1032:	41 e0       	ldi	r20, 0x01	; 1
    1034:	50 e0       	ldi	r21, 0x00	; 0
    1036:	be 01       	movw	r22, r28
    1038:	6f 5f       	subi	r22, 0xFF	; 255
    103a:	7f 4f       	sbci	r23, 0xFF	; 255
    103c:	8d e1       	ldi	r24, 0x1D	; 29
    103e:	0e 94 b5 05 	call	0xb6a	; 0xb6a <_nrf24l01p_write_register>
    1042:	0f 90       	pop	r0
    1044:	df 91       	pop	r29
    1046:	cf 91       	pop	r28
    1048:	08 95       	ret

0000104a <_nrf24l01p_enable_payload_with_ack>:
    104a:	cf 93       	push	r28
    104c:	df 93       	push	r29
    104e:	1f 92       	push	r1
    1050:	cd b7       	in	r28, 0x3d	; 61
    1052:	de b7       	in	r29, 0x3e	; 62
    1054:	41 e0       	ldi	r20, 0x01	; 1
    1056:	50 e0       	ldi	r21, 0x00	; 0
    1058:	be 01       	movw	r22, r28
    105a:	6f 5f       	subi	r22, 0xFF	; 255
    105c:	7f 4f       	sbci	r23, 0xFF	; 255
    105e:	8d e1       	ldi	r24, 0x1D	; 29
    1060:	0e 94 86 05 	call	0xb0c	; 0xb0c <_nrf24l01p_read_register>
    1064:	89 81       	ldd	r24, Y+1	; 0x01
    1066:	82 60       	ori	r24, 0x02	; 2
    1068:	89 83       	std	Y+1, r24	; 0x01
    106a:	41 e0       	ldi	r20, 0x01	; 1
    106c:	50 e0       	ldi	r21, 0x00	; 0
    106e:	be 01       	movw	r22, r28
    1070:	6f 5f       	subi	r22, 0xFF	; 255
    1072:	7f 4f       	sbci	r23, 0xFF	; 255
    1074:	8d e1       	ldi	r24, 0x1D	; 29
    1076:	0e 94 b5 05 	call	0xb6a	; 0xb6a <_nrf24l01p_write_register>
    107a:	0f 90       	pop	r0
    107c:	df 91       	pop	r29
    107e:	cf 91       	pop	r28
    1080:	08 95       	ret

00001082 <_nrf24l01p_print_info>:
    1082:	08 95       	ret

00001084 <_nrf24l01p_startup>:
    1084:	cf 93       	push	r28
    1086:	df 93       	push	r29
    1088:	1f 92       	push	r1
    108a:	cd b7       	in	r28, 0x3d	; 61
    108c:	de b7       	in	r29, 0x3e	; 62
    108e:	87 e0       	ldi	r24, 0x07	; 7
    1090:	89 83       	std	Y+1, r24	; 0x01
    1092:	41 e0       	ldi	r20, 0x01	; 1
    1094:	50 e0       	ldi	r21, 0x00	; 0
    1096:	be 01       	movw	r22, r28
    1098:	6f 5f       	subi	r22, 0xFF	; 255
    109a:	7f 4f       	sbci	r23, 0xFF	; 255
    109c:	86 e0       	ldi	r24, 0x06	; 6
    109e:	0e 94 b5 05 	call	0xb6a	; 0xb6a <_nrf24l01p_write_register>
    10a2:	19 82       	std	Y+1, r1	; 0x01
    10a4:	41 e0       	ldi	r20, 0x01	; 1
    10a6:	50 e0       	ldi	r21, 0x00	; 0
    10a8:	be 01       	movw	r22, r28
    10aa:	6f 5f       	subi	r22, 0xFF	; 255
    10ac:	7f 4f       	sbci	r23, 0xFF	; 255
    10ae:	81 e0       	ldi	r24, 0x01	; 1
    10b0:	0e 94 b5 05 	call	0xb6a	; 0xb6a <_nrf24l01p_write_register>
    10b4:	81 e0       	ldi	r24, 0x01	; 1
    10b6:	89 83       	std	Y+1, r24	; 0x01
    10b8:	41 e0       	ldi	r20, 0x01	; 1
    10ba:	50 e0       	ldi	r21, 0x00	; 0
    10bc:	be 01       	movw	r22, r28
    10be:	6f 5f       	subi	r22, 0xFF	; 255
    10c0:	7f 4f       	sbci	r23, 0xFF	; 255
    10c2:	86 e0       	ldi	r24, 0x06	; 6
    10c4:	0e 94 b5 05 	call	0xb6a	; 0xb6a <_nrf24l01p_write_register>
    10c8:	0e 94 26 06 	call	0xc4c	; 0xc4c <_nrf24l01p_power_up>
    10cc:	8f e9       	ldi	r24, 0x9F	; 159
    10ce:	9c e8       	ldi	r25, 0x8C	; 140
    10d0:	01 97       	sbiw	r24, 0x01	; 1
    10d2:	f1 f7       	brne	.-4      	; 0x10d0 <_nrf24l01p_startup+0x4c>
    10d4:	00 c0       	rjmp	.+0      	; 0x10d6 <_nrf24l01p_startup+0x52>
    10d6:	00 00       	nop
    10d8:	0e 94 6a 06 	call	0xcd4	; 0xcd4 <_nrf24l01p_rx_mode>
    10dc:	81 e0       	ldi	r24, 0x01	; 1
    10de:	0e 94 64 05 	call	0xac8	; 0xac8 <_nrf24l01p_ce_pin>
    10e2:	0f 90       	pop	r0
    10e4:	df 91       	pop	r29
    10e6:	cf 91       	pop	r28
    10e8:	08 95       	ret

000010ea <_nrf24l01p_init>:
    10ea:	cf 93       	push	r28
    10ec:	df 93       	push	r29
    10ee:	1f 92       	push	r1
    10f0:	1f 92       	push	r1
    10f2:	cd b7       	in	r28, 0x3d	; 61
    10f4:	de b7       	in	r29, 0x3e	; 62
    10f6:	e0 e4       	ldi	r30, 0x40	; 64
    10f8:	f6 e0       	ldi	r31, 0x06	; 6
    10fa:	80 eb       	ldi	r24, 0xB0	; 176
    10fc:	81 83       	std	Z+1, r24	; 0x01
    10fe:	80 e4       	ldi	r24, 0x40	; 64
    1100:	82 83       	std	Z+2, r24	; 0x02
    1102:	80 e5       	ldi	r24, 0x50	; 80
    1104:	80 93 c0 08 	sts	0x08C0, r24	; 0x8008c0 <__TEXT_REGION_LENGTH__+0x7008c0>
    1108:	80 e1       	ldi	r24, 0x10	; 16
    110a:	81 83       	std	Z+1, r24	; 0x01
    110c:	80 e8       	ldi	r24, 0x80	; 128
    110e:	80 93 21 06 	sts	0x0621, r24	; 0x800621 <__TEXT_REGION_LENGTH__+0x700621>
    1112:	80 e0       	ldi	r24, 0x00	; 0
    1114:	0e 94 64 05 	call	0xac8	; 0xac8 <_nrf24l01p_ce_pin>
    1118:	81 e0       	ldi	r24, 0x01	; 1
    111a:	0e 94 75 05 	call	0xaea	; 0xaea <_nrf24l01p_csn_pin>
    111e:	0e 94 0a 06 	call	0xc14	; 0xc14 <_nrf24l01p_flush_rx>
    1122:	0e 94 4b 06 	call	0xc96	; 0xc96 <_nrf24l01p_power_down>
    1126:	8e e0       	ldi	r24, 0x0E	; 14
    1128:	89 83       	std	Y+1, r24	; 0x01
    112a:	41 e0       	ldi	r20, 0x01	; 1
    112c:	50 e0       	ldi	r21, 0x00	; 0
    112e:	be 01       	movw	r22, r28
    1130:	6f 5f       	subi	r22, 0xFF	; 255
    1132:	7f 4f       	sbci	r23, 0xFF	; 255
    1134:	87 e0       	ldi	r24, 0x07	; 7
    1136:	0e 94 b5 05 	call	0xb6a	; 0xb6a <_nrf24l01p_write_register>
    113a:	8b e0       	ldi	r24, 0x0B	; 11
    113c:	8a 83       	std	Y+2, r24	; 0x02
    113e:	41 e0       	ldi	r20, 0x01	; 1
    1140:	50 e0       	ldi	r21, 0x00	; 0
    1142:	be 01       	movw	r22, r28
    1144:	6e 5f       	subi	r22, 0xFE	; 254
    1146:	7f 4f       	sbci	r23, 0xFF	; 255
    1148:	80 e0       	ldi	r24, 0x00	; 0
    114a:	0e 94 b5 05 	call	0xb6a	; 0xb6a <_nrf24l01p_write_register>
    114e:	0e 94 b0 06 	call	0xd60	; 0xd60 <_nrf24l01p_disable_auto_ack_all_pipes>
    1152:	0e 94 f7 07 	call	0xfee	; 0xfee <_nrf24l01p_disable_dynamic_payload_all_pipe>
    1156:	0e 94 42 08 	call	0x1084	; 0x1084 <_nrf24l01p_startup>
    115a:	0e 94 09 08 	call	0x1012	; 0x1012 <_nrf24l01p_enable_dynamic_payload>
    115e:	0e 94 25 08 	call	0x104a	; 0x104a <_nrf24l01p_enable_payload_with_ack>
    1162:	80 e0       	ldi	r24, 0x00	; 0
    1164:	0e 94 89 06 	call	0xd12	; 0xd12 <_nrf24l01p_enable_auto_ack>
    1168:	81 e0       	ldi	r24, 0x01	; 1
    116a:	0e 94 89 06 	call	0xd12	; 0xd12 <_nrf24l01p_enable_auto_ack>
    116e:	82 e0       	ldi	r24, 0x02	; 2
    1170:	0e 94 89 06 	call	0xd12	; 0xd12 <_nrf24l01p_enable_auto_ack>
    1174:	83 e0       	ldi	r24, 0x03	; 3
    1176:	0e 94 89 06 	call	0xd12	; 0xd12 <_nrf24l01p_enable_auto_ack>
    117a:	84 e0       	ldi	r24, 0x04	; 4
    117c:	0e 94 89 06 	call	0xd12	; 0xd12 <_nrf24l01p_enable_auto_ack>
    1180:	85 e0       	ldi	r24, 0x05	; 5
    1182:	0e 94 89 06 	call	0xd12	; 0xd12 <_nrf24l01p_enable_auto_ack>
    1186:	80 e0       	ldi	r24, 0x00	; 0
    1188:	0e 94 d0 07 	call	0xfa0	; 0xfa0 <_nrf24l01p_enable_dynamic_payload_pipe>
    118c:	81 e0       	ldi	r24, 0x01	; 1
    118e:	0e 94 d0 07 	call	0xfa0	; 0xfa0 <_nrf24l01p_enable_dynamic_payload_pipe>
    1192:	82 e0       	ldi	r24, 0x02	; 2
    1194:	0e 94 d0 07 	call	0xfa0	; 0xfa0 <_nrf24l01p_enable_dynamic_payload_pipe>
    1198:	83 e0       	ldi	r24, 0x03	; 3
    119a:	0e 94 d0 07 	call	0xfa0	; 0xfa0 <_nrf24l01p_enable_dynamic_payload_pipe>
    119e:	84 e0       	ldi	r24, 0x04	; 4
    11a0:	0e 94 d0 07 	call	0xfa0	; 0xfa0 <_nrf24l01p_enable_dynamic_payload_pipe>
    11a4:	85 e0       	ldi	r24, 0x05	; 5
    11a6:	0e 94 d0 07 	call	0xfa0	; 0xfa0 <_nrf24l01p_enable_dynamic_payload_pipe>
    11aa:	80 e0       	ldi	r24, 0x00	; 0
    11ac:	0e 94 c2 06 	call	0xd84	; 0xd84 <_nrf24l01p_enable_rx_on_pipe>
    11b0:	81 e0       	ldi	r24, 0x01	; 1
    11b2:	0e 94 c2 06 	call	0xd84	; 0xd84 <_nrf24l01p_enable_rx_on_pipe>
    11b6:	82 e0       	ldi	r24, 0x02	; 2
    11b8:	0e 94 c2 06 	call	0xd84	; 0xd84 <_nrf24l01p_enable_rx_on_pipe>
    11bc:	83 e0       	ldi	r24, 0x03	; 3
    11be:	0e 94 c2 06 	call	0xd84	; 0xd84 <_nrf24l01p_enable_rx_on_pipe>
    11c2:	84 e0       	ldi	r24, 0x04	; 4
    11c4:	0e 94 c2 06 	call	0xd84	; 0xd84 <_nrf24l01p_enable_rx_on_pipe>
    11c8:	85 e0       	ldi	r24, 0x05	; 5
    11ca:	0e 94 c2 06 	call	0xd84	; 0xd84 <_nrf24l01p_enable_rx_on_pipe>
    11ce:	8f e0       	ldi	r24, 0x0F	; 15
    11d0:	0e 94 e9 06 	call	0xdd2	; 0xdd2 <_nrf24l01p_set_auto_retransmission_count>
    11d4:	8f e0       	ldi	r24, 0x0F	; 15
    11d6:	0e 94 0a 07 	call	0xe14	; 0xe14 <_nrf24l01p_set_auto_retransmission_delay>
    11da:	80 e2       	ldi	r24, 0x20	; 32
    11dc:	0e 94 2e 07 	call	0xe5c	; 0xe5c <_nrf24l01p_set_DataRate>
    11e0:	0e 94 0a 06 	call	0xc14	; 0xc14 <_nrf24l01p_flush_rx>
    11e4:	0f 90       	pop	r0
    11e6:	0f 90       	pop	r0
    11e8:	df 91       	pop	r29
    11ea:	cf 91       	pop	r28
    11ec:	08 95       	ret

000011ee <_nrf24l01p_reinit_loop>:
    11ee:	01 c0       	rjmp	.+2      	; 0x11f2 <_nrf24l01p_reinit_loop+0x4>
    11f0:	00 00       	nop
    11f2:	8f ef       	ldi	r24, 0xFF	; 255
    11f4:	0e 94 4e 05 	call	0xa9c	; 0xa9c <arch_spi_master_transmit_byte_val>
    11f8:	88 23       	and	r24, r24
    11fa:	d1 f3       	breq	.-12     	; 0x11f0 <_nrf24l01p_reinit_loop+0x2>
    11fc:	0e 94 75 08 	call	0x10ea	; 0x10ea <_nrf24l01p_init>
    1200:	00 00       	nop
    1202:	08 95       	ret

00001204 <_nrf24l01p_get_status>:
    1204:	cf 93       	push	r28
    1206:	df 93       	push	r29
    1208:	80 e0       	ldi	r24, 0x00	; 0
    120a:	0e 94 75 05 	call	0xaea	; 0xaea <_nrf24l01p_csn_pin>
    120e:	8f ef       	ldi	r24, 0xFF	; 255
    1210:	0e 94 4e 05 	call	0xa9c	; 0xa9c <arch_spi_master_transmit_byte_val>
    1214:	c8 2f       	mov	r28, r24
    1216:	d0 e0       	ldi	r29, 0x00	; 0
    1218:	81 e0       	ldi	r24, 0x01	; 1
    121a:	0e 94 75 05 	call	0xaea	; 0xaea <_nrf24l01p_csn_pin>
    121e:	20 97       	sbiw	r28, 0x00	; 0
    1220:	19 f4       	brne	.+6      	; 0x1228 <_nrf24l01p_get_status+0x24>
    1222:	00 00       	nop
    1224:	0e 94 f7 08 	call	0x11ee	; 0x11ee <_nrf24l01p_reinit_loop>
    1228:	ce 01       	movw	r24, r28
    122a:	df 91       	pop	r29
    122c:	cf 91       	pop	r28
    122e:	08 95       	ret

00001230 <_nrf24l01p_clear_data_ready_flag>:
    1230:	cf 93       	push	r28
    1232:	df 93       	push	r29
    1234:	1f 92       	push	r1
    1236:	cd b7       	in	r28, 0x3d	; 61
    1238:	de b7       	in	r29, 0x3e	; 62
    123a:	0e 94 02 09 	call	0x1204	; 0x1204 <_nrf24l01p_get_status>
    123e:	80 64       	ori	r24, 0x40	; 64
    1240:	89 83       	std	Y+1, r24	; 0x01
    1242:	41 e0       	ldi	r20, 0x01	; 1
    1244:	50 e0       	ldi	r21, 0x00	; 0
    1246:	be 01       	movw	r22, r28
    1248:	6f 5f       	subi	r22, 0xFF	; 255
    124a:	7f 4f       	sbci	r23, 0xFF	; 255
    124c:	87 e0       	ldi	r24, 0x07	; 7
    124e:	0e 94 b5 05 	call	0xb6a	; 0xb6a <_nrf24l01p_write_register>
    1252:	0f 90       	pop	r0
    1254:	df 91       	pop	r29
    1256:	cf 91       	pop	r28
    1258:	08 95       	ret

0000125a <_nrf24l01p_readable>:
    125a:	cf 93       	push	r28
    125c:	86 30       	cpi	r24, 0x06	; 6
    125e:	90 f4       	brcc	.+36     	; 0x1284 <_nrf24l01p_readable+0x2a>
    1260:	c8 2f       	mov	r28, r24
    1262:	0e 94 02 09 	call	0x1204	; 0x1204 <_nrf24l01p_get_status>
    1266:	86 ff       	sbrs	r24, 6
    1268:	0f c0       	rjmp	.+30     	; 0x1288 <_nrf24l01p_readable+0x2e>
    126a:	8e 70       	andi	r24, 0x0E	; 14
    126c:	99 27       	eor	r25, r25
    126e:	ac 01       	movw	r20, r24
    1270:	55 95       	asr	r21
    1272:	47 95       	ror	r20
    1274:	2c 2f       	mov	r18, r28
    1276:	30 e0       	ldi	r19, 0x00	; 0
    1278:	81 e0       	ldi	r24, 0x01	; 1
    127a:	42 17       	cp	r20, r18
    127c:	53 07       	cpc	r21, r19
    127e:	29 f0       	breq	.+10     	; 0x128a <_nrf24l01p_readable+0x30>
    1280:	80 e0       	ldi	r24, 0x00	; 0
    1282:	03 c0       	rjmp	.+6      	; 0x128a <_nrf24l01p_readable+0x30>
    1284:	80 e0       	ldi	r24, 0x00	; 0
    1286:	01 c0       	rjmp	.+2      	; 0x128a <_nrf24l01p_readable+0x30>
    1288:	80 e0       	ldi	r24, 0x00	; 0
    128a:	cf 91       	pop	r28
    128c:	08 95       	ret

0000128e <_nrf24l01p_read_dyn_pld>:

int _nrf24l01p_read_dyn_pld(_nrf24l01p_pipe_t pipe, uint8_t *data){
    128e:	0f 93       	push	r16
    1290:	1f 93       	push	r17
    1292:	cf 93       	push	r28
    1294:	df 93       	push	r29
	
	int rxPayloadWidth;
	
	if ( ( pipe < 0 ) || ( pipe > 5 ) ) {
    1296:	86 30       	cpi	r24, 0x06	; 6
    1298:	f0 f4       	brcc	.+60     	; 0x12d6 <_nrf24l01p_read_dyn_pld+0x48>
    129a:	eb 01       	movw	r28, r22
		return -1;
	}
	
	if (_nrf24l01p_readable(pipe) ) {
    129c:	0e 94 2d 09 	call	0x125a	; 0x125a <_nrf24l01p_readable>
    12a0:	88 23       	and	r24, r24
    12a2:	e1 f0       	breq	.+56     	; 0x12dc <_nrf24l01p_read_dyn_pld+0x4e>
		asm("nop");
    12a4:	00 00       	nop
		rxPayloadWidth = _nrf24l01p_read_rx_payload_width();
    12a6:	0e 94 14 06 	call	0xc28	; 0xc28 <_nrf24l01p_read_rx_payload_width>
    12aa:	8c 01       	movw	r16, r24
	
		if ( ( rxPayloadWidth < 0 ) || ( rxPayloadWidth > _NRF24L01P_RX_FIFO_SIZE ) ) {
    12ac:	81 32       	cpi	r24, 0x21	; 33
    12ae:	91 05       	cpc	r25, r1
    12b0:	28 f0       	brcs	.+10     	; 0x12bc <_nrf24l01p_read_dyn_pld+0x2e>
			_nrf24l01p_flush_rx();
    12b2:	0e 94 0a 06 	call	0xc14	; 0xc14 <_nrf24l01p_flush_rx>
			if(_nrf24l01p_get_fifo_flag_rx_empty()) {
				_nrf24l01p_clear_data_ready_flag();
			}
		}

		return rxPayloadWidth;
    12b6:	80 2f       	mov	r24, r16
    12b8:	91 2f       	mov	r25, r17
    12ba:	15 c0       	rjmp	.+42     	; 0x12e6 <_nrf24l01p_read_dyn_pld+0x58>
	
		if ( ( rxPayloadWidth < 0 ) || ( rxPayloadWidth > _NRF24L01P_RX_FIFO_SIZE ) ) {
			_nrf24l01p_flush_rx();
		}
		else{
			_nrf24l01p_read_rx_payload(data,rxPayloadWidth);
    12bc:	bc 01       	movw	r22, r24
    12be:	ce 01       	movw	r24, r28
    12c0:	0e 94 dd 05 	call	0xbba	; 0xbba <_nrf24l01p_read_rx_payload>
					
			if(_nrf24l01p_get_fifo_flag_rx_empty()) {
    12c4:	0e 94 bd 07 	call	0xf7a	; 0xf7a <_nrf24l01p_get_fifo_flag_rx_empty>
    12c8:	88 23       	and	r24, r24
    12ca:	59 f0       	breq	.+22     	; 0x12e2 <_nrf24l01p_read_dyn_pld+0x54>
				_nrf24l01p_clear_data_ready_flag();
    12cc:	0e 94 18 09 	call	0x1230	; 0x1230 <_nrf24l01p_clear_data_ready_flag>
			}
		}

		return rxPayloadWidth;
    12d0:	80 2f       	mov	r24, r16
    12d2:	91 2f       	mov	r25, r17
    12d4:	08 c0       	rjmp	.+16     	; 0x12e6 <_nrf24l01p_read_dyn_pld+0x58>
int _nrf24l01p_read_dyn_pld(_nrf24l01p_pipe_t pipe, uint8_t *data){
	
	int rxPayloadWidth;
	
	if ( ( pipe < 0 ) || ( pipe > 5 ) ) {
		return -1;
    12d6:	8f ef       	ldi	r24, 0xFF	; 255
    12d8:	9f ef       	ldi	r25, 0xFF	; 255
    12da:	05 c0       	rjmp	.+10     	; 0x12e6 <_nrf24l01p_read_dyn_pld+0x58>
// 			_nrf24l01p_clear_data_ready_flag();
// 		}
// 		return rxPayloadWidth;
//	}
	else {//if pipe not readable
		return 0;
    12dc:	80 e0       	ldi	r24, 0x00	; 0
    12de:	90 e0       	ldi	r25, 0x00	; 0
    12e0:	02 c0       	rjmp	.+4      	; 0x12e6 <_nrf24l01p_read_dyn_pld+0x58>
			if(_nrf24l01p_get_fifo_flag_rx_empty()) {
				_nrf24l01p_clear_data_ready_flag();
			}
		}

		return rxPayloadWidth;
    12e2:	80 2f       	mov	r24, r16
    12e4:	91 2f       	mov	r25, r17
//	}
	else {//if pipe not readable
		return 0;
	}
	return 0;
}
    12e6:	df 91       	pop	r29
    12e8:	cf 91       	pop	r28
    12ea:	1f 91       	pop	r17
    12ec:	0f 91       	pop	r16
    12ee:	08 95       	ret

000012f0 <CALLBACK_USB_GetDescriptor>:
    12f0:	29 2f       	mov	r18, r25
    12f2:	33 27       	eor	r19, r19
    12f4:	22 30       	cpi	r18, 0x02	; 2
    12f6:	31 05       	cpc	r19, r1
    12f8:	59 f0       	breq	.+22     	; 0x1310 <CALLBACK_USB_GetDescriptor+0x20>
    12fa:	23 30       	cpi	r18, 0x03	; 3
    12fc:	31 05       	cpc	r19, r1
    12fe:	69 f0       	breq	.+26     	; 0x131a <CALLBACK_USB_GetDescriptor+0x2a>
    1300:	21 30       	cpi	r18, 0x01	; 1
    1302:	31 05       	cpc	r19, r1
    1304:	29 f5       	brne	.+74     	; 0x1350 <CALLBACK_USB_GetDescriptor+0x60>
    1306:	82 e1       	ldi	r24, 0x12	; 18
    1308:	90 e0       	ldi	r25, 0x00	; 0
    130a:	24 ec       	ldi	r18, 0xC4	; 196
    130c:	33 e0       	ldi	r19, 0x03	; 3
    130e:	29 c0       	rjmp	.+82     	; 0x1362 <CALLBACK_USB_GetDescriptor+0x72>
    1310:	8e e3       	ldi	r24, 0x3E	; 62
    1312:	90 e0       	ldi	r25, 0x00	; 0
    1314:	26 e8       	ldi	r18, 0x86	; 134
    1316:	33 e0       	ldi	r19, 0x03	; 3
    1318:	24 c0       	rjmp	.+72     	; 0x1362 <CALLBACK_USB_GetDescriptor+0x72>
    131a:	99 27       	eor	r25, r25
    131c:	81 30       	cpi	r24, 0x01	; 1
    131e:	91 05       	cpc	r25, r1
    1320:	59 f0       	breq	.+22     	; 0x1338 <CALLBACK_USB_GetDescriptor+0x48>
    1322:	82 30       	cpi	r24, 0x02	; 2
    1324:	91 05       	cpc	r25, r1
    1326:	71 f0       	breq	.+28     	; 0x1344 <CALLBACK_USB_GetDescriptor+0x54>
    1328:	89 2b       	or	r24, r25
    132a:	b9 f4       	brne	.+46     	; 0x135a <CALLBACK_USB_GetDescriptor+0x6a>
    132c:	e2 e8       	ldi	r30, 0x82	; 130
    132e:	f3 e0       	ldi	r31, 0x03	; 3
    1330:	84 91       	lpm	r24, Z
    1332:	90 e0       	ldi	r25, 0x00	; 0
    1334:	9f 01       	movw	r18, r30
    1336:	15 c0       	rjmp	.+42     	; 0x1362 <CALLBACK_USB_GetDescriptor+0x72>
    1338:	e8 e6       	ldi	r30, 0x68	; 104
    133a:	f3 e0       	ldi	r31, 0x03	; 3
    133c:	84 91       	lpm	r24, Z
    133e:	90 e0       	ldi	r25, 0x00	; 0
    1340:	9f 01       	movw	r18, r30
    1342:	0f c0       	rjmp	.+30     	; 0x1362 <CALLBACK_USB_GetDescriptor+0x72>
    1344:	ea e4       	ldi	r30, 0x4A	; 74
    1346:	f3 e0       	ldi	r31, 0x03	; 3
    1348:	84 91       	lpm	r24, Z
    134a:	90 e0       	ldi	r25, 0x00	; 0
    134c:	9f 01       	movw	r18, r30
    134e:	09 c0       	rjmp	.+18     	; 0x1362 <CALLBACK_USB_GetDescriptor+0x72>
    1350:	80 e0       	ldi	r24, 0x00	; 0
    1352:	90 e0       	ldi	r25, 0x00	; 0
    1354:	20 e0       	ldi	r18, 0x00	; 0
    1356:	30 e0       	ldi	r19, 0x00	; 0
    1358:	04 c0       	rjmp	.+8      	; 0x1362 <CALLBACK_USB_GetDescriptor+0x72>
    135a:	80 e0       	ldi	r24, 0x00	; 0
    135c:	90 e0       	ldi	r25, 0x00	; 0
    135e:	20 e0       	ldi	r18, 0x00	; 0
    1360:	30 e0       	ldi	r19, 0x00	; 0
    1362:	fa 01       	movw	r30, r20
    1364:	20 83       	st	Z, r18
    1366:	31 83       	std	Z+1, r19	; 0x01
    1368:	08 95       	ret

0000136a <pxPortInitialiseStack>:
    136a:	31 e1       	ldi	r19, 0x11	; 17
    136c:	fc 01       	movw	r30, r24
    136e:	30 83       	st	Z, r19
    1370:	31 97       	sbiw	r30, 0x01	; 1
    1372:	22 e2       	ldi	r18, 0x22	; 34
    1374:	20 83       	st	Z, r18
    1376:	31 97       	sbiw	r30, 0x01	; 1
    1378:	a3 e3       	ldi	r26, 0x33	; 51
    137a:	a0 83       	st	Z, r26
    137c:	31 97       	sbiw	r30, 0x01	; 1
    137e:	60 83       	st	Z, r22
    1380:	31 97       	sbiw	r30, 0x01	; 1
    1382:	70 83       	st	Z, r23
    1384:	31 97       	sbiw	r30, 0x01	; 1
    1386:	10 82       	st	Z, r1
    1388:	31 97       	sbiw	r30, 0x01	; 1
    138a:	10 82       	st	Z, r1
    138c:	31 97       	sbiw	r30, 0x01	; 1
    138e:	60 e8       	ldi	r22, 0x80	; 128
    1390:	60 83       	st	Z, r22
    1392:	31 97       	sbiw	r30, 0x01	; 1
    1394:	10 82       	st	Z, r1
    1396:	31 97       	sbiw	r30, 0x01	; 1
    1398:	62 e0       	ldi	r22, 0x02	; 2
    139a:	60 83       	st	Z, r22
    139c:	31 97       	sbiw	r30, 0x01	; 1
    139e:	63 e0       	ldi	r22, 0x03	; 3
    13a0:	60 83       	st	Z, r22
    13a2:	31 97       	sbiw	r30, 0x01	; 1
    13a4:	64 e0       	ldi	r22, 0x04	; 4
    13a6:	60 83       	st	Z, r22
    13a8:	31 97       	sbiw	r30, 0x01	; 1
    13aa:	65 e0       	ldi	r22, 0x05	; 5
    13ac:	60 83       	st	Z, r22
    13ae:	31 97       	sbiw	r30, 0x01	; 1
    13b0:	66 e0       	ldi	r22, 0x06	; 6
    13b2:	60 83       	st	Z, r22
    13b4:	31 97       	sbiw	r30, 0x01	; 1
    13b6:	67 e0       	ldi	r22, 0x07	; 7
    13b8:	60 83       	st	Z, r22
    13ba:	31 97       	sbiw	r30, 0x01	; 1
    13bc:	68 e0       	ldi	r22, 0x08	; 8
    13be:	60 83       	st	Z, r22
    13c0:	31 97       	sbiw	r30, 0x01	; 1
    13c2:	69 e0       	ldi	r22, 0x09	; 9
    13c4:	60 83       	st	Z, r22
    13c6:	31 97       	sbiw	r30, 0x01	; 1
    13c8:	60 e1       	ldi	r22, 0x10	; 16
    13ca:	60 83       	st	Z, r22
    13cc:	31 97       	sbiw	r30, 0x01	; 1
    13ce:	30 83       	st	Z, r19
    13d0:	31 97       	sbiw	r30, 0x01	; 1
    13d2:	32 e1       	ldi	r19, 0x12	; 18
    13d4:	30 83       	st	Z, r19
    13d6:	31 97       	sbiw	r30, 0x01	; 1
    13d8:	33 e1       	ldi	r19, 0x13	; 19
    13da:	30 83       	st	Z, r19
    13dc:	31 97       	sbiw	r30, 0x01	; 1
    13de:	34 e1       	ldi	r19, 0x14	; 20
    13e0:	30 83       	st	Z, r19
    13e2:	31 97       	sbiw	r30, 0x01	; 1
    13e4:	35 e1       	ldi	r19, 0x15	; 21
    13e6:	30 83       	st	Z, r19
    13e8:	31 97       	sbiw	r30, 0x01	; 1
    13ea:	36 e1       	ldi	r19, 0x16	; 22
    13ec:	30 83       	st	Z, r19
    13ee:	31 97       	sbiw	r30, 0x01	; 1
    13f0:	37 e1       	ldi	r19, 0x17	; 23
    13f2:	30 83       	st	Z, r19
    13f4:	31 97       	sbiw	r30, 0x01	; 1
    13f6:	38 e1       	ldi	r19, 0x18	; 24
    13f8:	30 83       	st	Z, r19
    13fa:	31 97       	sbiw	r30, 0x01	; 1
    13fc:	39 e1       	ldi	r19, 0x19	; 25
    13fe:	30 83       	st	Z, r19
    1400:	31 97       	sbiw	r30, 0x01	; 1
    1402:	30 e2       	ldi	r19, 0x20	; 32
    1404:	30 83       	st	Z, r19
    1406:	31 97       	sbiw	r30, 0x01	; 1
    1408:	31 e2       	ldi	r19, 0x21	; 33
    140a:	30 83       	st	Z, r19
    140c:	31 97       	sbiw	r30, 0x01	; 1
    140e:	20 83       	st	Z, r18
    1410:	31 97       	sbiw	r30, 0x01	; 1
    1412:	23 e2       	ldi	r18, 0x23	; 35
    1414:	20 83       	st	Z, r18
    1416:	31 97       	sbiw	r30, 0x01	; 1
    1418:	40 83       	st	Z, r20
    141a:	31 97       	sbiw	r30, 0x01	; 1
    141c:	50 83       	st	Z, r21
    141e:	31 97       	sbiw	r30, 0x01	; 1
    1420:	26 e2       	ldi	r18, 0x26	; 38
    1422:	20 83       	st	Z, r18
    1424:	31 97       	sbiw	r30, 0x01	; 1
    1426:	27 e2       	ldi	r18, 0x27	; 39
    1428:	20 83       	st	Z, r18
    142a:	31 97       	sbiw	r30, 0x01	; 1
    142c:	28 e2       	ldi	r18, 0x28	; 40
    142e:	20 83       	st	Z, r18
    1430:	31 97       	sbiw	r30, 0x01	; 1
    1432:	29 e2       	ldi	r18, 0x29	; 41
    1434:	20 83       	st	Z, r18
    1436:	31 97       	sbiw	r30, 0x01	; 1
    1438:	20 e3       	ldi	r18, 0x30	; 48
    143a:	20 83       	st	Z, r18
    143c:	31 97       	sbiw	r30, 0x01	; 1
    143e:	21 e3       	ldi	r18, 0x31	; 49
    1440:	20 83       	st	Z, r18
    1442:	87 97       	sbiw	r24, 0x27	; 39
    1444:	08 95       	ret

00001446 <xPortStartScheduler>:
    1446:	65 e0       	ldi	r22, 0x05	; 5
    1448:	80 e0       	ldi	r24, 0x00	; 0
    144a:	98 e0       	ldi	r25, 0x08	; 8
    144c:	0e 94 ee 1f 	call	0x3fdc	; 0x3fdc <TC0_ConfigClockSource>
    1450:	83 ef       	ldi	r24, 0xF3	; 243
    1452:	91 e0       	ldi	r25, 0x01	; 1
    1454:	80 93 26 08 	sts	0x0826, r24	; 0x800826 <__TEXT_REGION_LENGTH__+0x700826>
    1458:	90 93 27 08 	sts	0x0827, r25	; 0x800827 <__TEXT_REGION_LENGTH__+0x700827>
    145c:	61 e0       	ldi	r22, 0x01	; 1
    145e:	80 e0       	ldi	r24, 0x00	; 0
    1460:	98 e0       	ldi	r25, 0x08	; 8
    1462:	0e 94 f4 1f 	call	0x3fe8	; 0x3fe8 <TC0_SetOverflowIntLevel>
    1466:	e0 ea       	ldi	r30, 0xA0	; 160
    1468:	f0 e0       	ldi	r31, 0x00	; 0
    146a:	82 81       	ldd	r24, Z+2	; 0x02
    146c:	81 60       	ori	r24, 0x01	; 1
    146e:	82 83       	std	Z+2, r24	; 0x02
    1470:	a0 91 bd 93 	lds	r26, 0x93BD	; 0x8093bd <pxCurrentTCB>
    1474:	b0 91 be 93 	lds	r27, 0x93BE	; 0x8093be <pxCurrentTCB+0x1>
    1478:	cd 91       	ld	r28, X+
    147a:	cd bf       	out	0x3d, r28	; 61
    147c:	dd 91       	ld	r29, X+
    147e:	de bf       	out	0x3e, r29	; 62
    1480:	ff 91       	pop	r31
    1482:	ef 91       	pop	r30
    1484:	df 91       	pop	r29
    1486:	cf 91       	pop	r28
    1488:	bf 91       	pop	r27
    148a:	af 91       	pop	r26
    148c:	9f 91       	pop	r25
    148e:	8f 91       	pop	r24
    1490:	7f 91       	pop	r23
    1492:	6f 91       	pop	r22
    1494:	5f 91       	pop	r21
    1496:	4f 91       	pop	r20
    1498:	3f 91       	pop	r19
    149a:	2f 91       	pop	r18
    149c:	1f 91       	pop	r17
    149e:	0f 91       	pop	r16
    14a0:	ff 90       	pop	r15
    14a2:	ef 90       	pop	r14
    14a4:	df 90       	pop	r13
    14a6:	cf 90       	pop	r12
    14a8:	bf 90       	pop	r11
    14aa:	af 90       	pop	r10
    14ac:	9f 90       	pop	r9
    14ae:	8f 90       	pop	r8
    14b0:	7f 90       	pop	r7
    14b2:	6f 90       	pop	r6
    14b4:	5f 90       	pop	r5
    14b6:	4f 90       	pop	r4
    14b8:	3f 90       	pop	r3
    14ba:	2f 90       	pop	r2
    14bc:	1f 90       	pop	r1
    14be:	0f 90       	pop	r0
    14c0:	0f be       	out	0x3f, r0	; 63
    14c2:	0f 90       	pop	r0
    14c4:	08 95       	ret
    14c6:	81 e0       	ldi	r24, 0x01	; 1
    14c8:	08 95       	ret

000014ca <vPortYield>:
    14ca:	0f 92       	push	r0
    14cc:	0f b6       	in	r0, 0x3f	; 63
    14ce:	f8 94       	cli
    14d0:	0f 92       	push	r0
    14d2:	1f 92       	push	r1
    14d4:	11 24       	eor	r1, r1
    14d6:	2f 92       	push	r2
    14d8:	3f 92       	push	r3
    14da:	4f 92       	push	r4
    14dc:	5f 92       	push	r5
    14de:	6f 92       	push	r6
    14e0:	7f 92       	push	r7
    14e2:	8f 92       	push	r8
    14e4:	9f 92       	push	r9
    14e6:	af 92       	push	r10
    14e8:	bf 92       	push	r11
    14ea:	cf 92       	push	r12
    14ec:	df 92       	push	r13
    14ee:	ef 92       	push	r14
    14f0:	ff 92       	push	r15
    14f2:	0f 93       	push	r16
    14f4:	1f 93       	push	r17
    14f6:	2f 93       	push	r18
    14f8:	3f 93       	push	r19
    14fa:	4f 93       	push	r20
    14fc:	5f 93       	push	r21
    14fe:	6f 93       	push	r22
    1500:	7f 93       	push	r23
    1502:	8f 93       	push	r24
    1504:	9f 93       	push	r25
    1506:	af 93       	push	r26
    1508:	bf 93       	push	r27
    150a:	cf 93       	push	r28
    150c:	df 93       	push	r29
    150e:	ef 93       	push	r30
    1510:	ff 93       	push	r31
    1512:	a0 91 bd 93 	lds	r26, 0x93BD	; 0x8093bd <pxCurrentTCB>
    1516:	b0 91 be 93 	lds	r27, 0x93BE	; 0x8093be <pxCurrentTCB+0x1>
    151a:	0d b6       	in	r0, 0x3d	; 61
    151c:	0d 92       	st	X+, r0
    151e:	0e b6       	in	r0, 0x3e	; 62
    1520:	0d 92       	st	X+, r0
    1522:	0e 94 c6 0e 	call	0x1d8c	; 0x1d8c <vTaskSwitchContext>
    1526:	a0 91 bd 93 	lds	r26, 0x93BD	; 0x8093bd <pxCurrentTCB>
    152a:	b0 91 be 93 	lds	r27, 0x93BE	; 0x8093be <pxCurrentTCB+0x1>
    152e:	cd 91       	ld	r28, X+
    1530:	cd bf       	out	0x3d, r28	; 61
    1532:	dd 91       	ld	r29, X+
    1534:	de bf       	out	0x3e, r29	; 62
    1536:	ff 91       	pop	r31
    1538:	ef 91       	pop	r30
    153a:	df 91       	pop	r29
    153c:	cf 91       	pop	r28
    153e:	bf 91       	pop	r27
    1540:	af 91       	pop	r26
    1542:	9f 91       	pop	r25
    1544:	8f 91       	pop	r24
    1546:	7f 91       	pop	r23
    1548:	6f 91       	pop	r22
    154a:	5f 91       	pop	r21
    154c:	4f 91       	pop	r20
    154e:	3f 91       	pop	r19
    1550:	2f 91       	pop	r18
    1552:	1f 91       	pop	r17
    1554:	0f 91       	pop	r16
    1556:	ff 90       	pop	r15
    1558:	ef 90       	pop	r14
    155a:	df 90       	pop	r13
    155c:	cf 90       	pop	r12
    155e:	bf 90       	pop	r11
    1560:	af 90       	pop	r10
    1562:	9f 90       	pop	r9
    1564:	8f 90       	pop	r8
    1566:	7f 90       	pop	r7
    1568:	6f 90       	pop	r6
    156a:	5f 90       	pop	r5
    156c:	4f 90       	pop	r4
    156e:	3f 90       	pop	r3
    1570:	2f 90       	pop	r2
    1572:	1f 90       	pop	r1
    1574:	0f 90       	pop	r0
    1576:	0f be       	out	0x3f, r0	; 63
    1578:	0f 90       	pop	r0
    157a:	08 95       	ret

0000157c <vPortYieldFromTick>:
    157c:	0f 92       	push	r0
    157e:	0f b6       	in	r0, 0x3f	; 63
    1580:	f8 94       	cli
    1582:	0f 92       	push	r0
    1584:	1f 92       	push	r1
    1586:	11 24       	eor	r1, r1
    1588:	2f 92       	push	r2
    158a:	3f 92       	push	r3
    158c:	4f 92       	push	r4
    158e:	5f 92       	push	r5
    1590:	6f 92       	push	r6
    1592:	7f 92       	push	r7
    1594:	8f 92       	push	r8
    1596:	9f 92       	push	r9
    1598:	af 92       	push	r10
    159a:	bf 92       	push	r11
    159c:	cf 92       	push	r12
    159e:	df 92       	push	r13
    15a0:	ef 92       	push	r14
    15a2:	ff 92       	push	r15
    15a4:	0f 93       	push	r16
    15a6:	1f 93       	push	r17
    15a8:	2f 93       	push	r18
    15aa:	3f 93       	push	r19
    15ac:	4f 93       	push	r20
    15ae:	5f 93       	push	r21
    15b0:	6f 93       	push	r22
    15b2:	7f 93       	push	r23
    15b4:	8f 93       	push	r24
    15b6:	9f 93       	push	r25
    15b8:	af 93       	push	r26
    15ba:	bf 93       	push	r27
    15bc:	cf 93       	push	r28
    15be:	df 93       	push	r29
    15c0:	ef 93       	push	r30
    15c2:	ff 93       	push	r31
    15c4:	a0 91 bd 93 	lds	r26, 0x93BD	; 0x8093bd <pxCurrentTCB>
    15c8:	b0 91 be 93 	lds	r27, 0x93BE	; 0x8093be <pxCurrentTCB+0x1>
    15cc:	0d b6       	in	r0, 0x3d	; 61
    15ce:	0d 92       	st	X+, r0
    15d0:	0e b6       	in	r0, 0x3e	; 62
    15d2:	0d 92       	st	X+, r0
    15d4:	0e 94 4e 0d 	call	0x1a9c	; 0x1a9c <xTaskIncrementTick>
    15d8:	81 11       	cpse	r24, r1
    15da:	0e 94 c6 0e 	call	0x1d8c	; 0x1d8c <vTaskSwitchContext>
    15de:	a0 91 bd 93 	lds	r26, 0x93BD	; 0x8093bd <pxCurrentTCB>
    15e2:	b0 91 be 93 	lds	r27, 0x93BE	; 0x8093be <pxCurrentTCB+0x1>
    15e6:	cd 91       	ld	r28, X+
    15e8:	cd bf       	out	0x3d, r28	; 61
    15ea:	dd 91       	ld	r29, X+
    15ec:	de bf       	out	0x3e, r29	; 62
    15ee:	ff 91       	pop	r31
    15f0:	ef 91       	pop	r30
    15f2:	df 91       	pop	r29
    15f4:	cf 91       	pop	r28
    15f6:	bf 91       	pop	r27
    15f8:	af 91       	pop	r26
    15fa:	9f 91       	pop	r25
    15fc:	8f 91       	pop	r24
    15fe:	7f 91       	pop	r23
    1600:	6f 91       	pop	r22
    1602:	5f 91       	pop	r21
    1604:	4f 91       	pop	r20
    1606:	3f 91       	pop	r19
    1608:	2f 91       	pop	r18
    160a:	1f 91       	pop	r17
    160c:	0f 91       	pop	r16
    160e:	ff 90       	pop	r15
    1610:	ef 90       	pop	r14
    1612:	df 90       	pop	r13
    1614:	cf 90       	pop	r12
    1616:	bf 90       	pop	r11
    1618:	af 90       	pop	r10
    161a:	9f 90       	pop	r9
    161c:	8f 90       	pop	r8
    161e:	7f 90       	pop	r7
    1620:	6f 90       	pop	r6
    1622:	5f 90       	pop	r5
    1624:	4f 90       	pop	r4
    1626:	3f 90       	pop	r3
    1628:	2f 90       	pop	r2
    162a:	1f 90       	pop	r1
    162c:	0f 90       	pop	r0
    162e:	0f be       	out	0x3f, r0	; 63
    1630:	0f 90       	pop	r0
    1632:	08 95       	ret

00001634 <__vector_14>:
    1634:	0e 94 be 0a 	call	0x157c	; 0x157c <vPortYieldFromTick>
    1638:	18 95       	reti

0000163a <pvPortMalloc>:
    163a:	cf 93       	push	r28
    163c:	df 93       	push	r29
    163e:	ec 01       	movw	r28, r24
    1640:	0e 94 48 0d 	call	0x1a90	; 0x1a90 <vTaskSuspendAll>
    1644:	80 91 6c 23 	lds	r24, 0x236C	; 0x80236c <pucAlignedHeap.3808>
    1648:	90 91 6d 23 	lds	r25, 0x236D	; 0x80236d <pucAlignedHeap.3808+0x1>
    164c:	89 2b       	or	r24, r25
    164e:	31 f4       	brne	.+12     	; 0x165c <pvPortMalloc+0x22>
    1650:	81 e7       	ldi	r24, 0x71	; 113
    1652:	93 e2       	ldi	r25, 0x23	; 35
    1654:	80 93 6c 23 	sts	0x236C, r24	; 0x80236c <pucAlignedHeap.3808>
    1658:	90 93 6d 23 	sts	0x236D, r25	; 0x80236d <pucAlignedHeap.3808+0x1>
    165c:	20 91 6e 23 	lds	r18, 0x236E	; 0x80236e <xNextFreeByte>
    1660:	30 91 6f 23 	lds	r19, 0x236F	; 0x80236f <xNextFreeByte+0x1>
    1664:	ce 01       	movw	r24, r28
    1666:	82 0f       	add	r24, r18
    1668:	93 1f       	adc	r25, r19
    166a:	8f 3f       	cpi	r24, 0xFF	; 255
    166c:	4f e6       	ldi	r20, 0x6F	; 111
    166e:	94 07       	cpc	r25, r20
    1670:	70 f4       	brcc	.+28     	; 0x168e <pvPortMalloc+0x54>
    1672:	28 17       	cp	r18, r24
    1674:	39 07       	cpc	r19, r25
    1676:	70 f4       	brcc	.+28     	; 0x1694 <pvPortMalloc+0x5a>
    1678:	c0 91 6c 23 	lds	r28, 0x236C	; 0x80236c <pucAlignedHeap.3808>
    167c:	d0 91 6d 23 	lds	r29, 0x236D	; 0x80236d <pucAlignedHeap.3808+0x1>
    1680:	c2 0f       	add	r28, r18
    1682:	d3 1f       	adc	r29, r19
    1684:	80 93 6e 23 	sts	0x236E, r24	; 0x80236e <xNextFreeByte>
    1688:	90 93 6f 23 	sts	0x236F, r25	; 0x80236f <xNextFreeByte+0x1>
    168c:	05 c0       	rjmp	.+10     	; 0x1698 <pvPortMalloc+0x5e>
    168e:	c0 e0       	ldi	r28, 0x00	; 0
    1690:	d0 e0       	ldi	r29, 0x00	; 0
    1692:	02 c0       	rjmp	.+4      	; 0x1698 <pvPortMalloc+0x5e>
    1694:	c0 e0       	ldi	r28, 0x00	; 0
    1696:	d0 e0       	ldi	r29, 0x00	; 0
    1698:	0e 94 24 0e 	call	0x1c48	; 0x1c48 <xTaskResumeAll>
    169c:	ce 01       	movw	r24, r28
    169e:	df 91       	pop	r29
    16a0:	cf 91       	pop	r28
    16a2:	08 95       	ret

000016a4 <vPortFree>:
    16a4:	08 95       	ret

000016a6 <vListInitialise>:
    16a6:	fc 01       	movw	r30, r24
    16a8:	03 96       	adiw	r24, 0x03	; 3
    16aa:	81 83       	std	Z+1, r24	; 0x01
    16ac:	92 83       	std	Z+2, r25	; 0x02
    16ae:	2f ef       	ldi	r18, 0xFF	; 255
    16b0:	3f ef       	ldi	r19, 0xFF	; 255
    16b2:	23 83       	std	Z+3, r18	; 0x03
    16b4:	34 83       	std	Z+4, r19	; 0x04
    16b6:	85 83       	std	Z+5, r24	; 0x05
    16b8:	96 83       	std	Z+6, r25	; 0x06
    16ba:	87 83       	std	Z+7, r24	; 0x07
    16bc:	90 87       	std	Z+8, r25	; 0x08
    16be:	10 82       	st	Z, r1
    16c0:	08 95       	ret

000016c2 <vListInitialiseItem>:
    16c2:	fc 01       	movw	r30, r24
    16c4:	10 86       	std	Z+8, r1	; 0x08
    16c6:	11 86       	std	Z+9, r1	; 0x09
    16c8:	08 95       	ret

000016ca <vListInsertEnd>:
    16ca:	cf 93       	push	r28
    16cc:	df 93       	push	r29
    16ce:	9c 01       	movw	r18, r24
    16d0:	fb 01       	movw	r30, r22
    16d2:	dc 01       	movw	r26, r24
    16d4:	11 96       	adiw	r26, 0x01	; 1
    16d6:	cd 91       	ld	r28, X+
    16d8:	dc 91       	ld	r29, X
    16da:	12 97       	sbiw	r26, 0x02	; 2
    16dc:	c2 83       	std	Z+2, r28	; 0x02
    16de:	d3 83       	std	Z+3, r29	; 0x03
    16e0:	8c 81       	ldd	r24, Y+4	; 0x04
    16e2:	9d 81       	ldd	r25, Y+5	; 0x05
    16e4:	84 83       	std	Z+4, r24	; 0x04
    16e6:	95 83       	std	Z+5, r25	; 0x05
    16e8:	8c 81       	ldd	r24, Y+4	; 0x04
    16ea:	9d 81       	ldd	r25, Y+5	; 0x05
    16ec:	dc 01       	movw	r26, r24
    16ee:	12 96       	adiw	r26, 0x02	; 2
    16f0:	6d 93       	st	X+, r22
    16f2:	7c 93       	st	X, r23
    16f4:	13 97       	sbiw	r26, 0x03	; 3
    16f6:	6c 83       	std	Y+4, r22	; 0x04
    16f8:	7d 83       	std	Y+5, r23	; 0x05
    16fa:	20 87       	std	Z+8, r18	; 0x08
    16fc:	31 87       	std	Z+9, r19	; 0x09
    16fe:	f9 01       	movw	r30, r18
    1700:	80 81       	ld	r24, Z
    1702:	8f 5f       	subi	r24, 0xFF	; 255
    1704:	80 83       	st	Z, r24
    1706:	df 91       	pop	r29
    1708:	cf 91       	pop	r28
    170a:	08 95       	ret

0000170c <vListInsert>:
    170c:	cf 93       	push	r28
    170e:	df 93       	push	r29
    1710:	eb 01       	movw	r28, r22
    1712:	48 81       	ld	r20, Y
    1714:	59 81       	ldd	r21, Y+1	; 0x01
    1716:	4f 3f       	cpi	r20, 0xFF	; 255
    1718:	2f ef       	ldi	r18, 0xFF	; 255
    171a:	52 07       	cpc	r21, r18
    171c:	21 f4       	brne	.+8      	; 0x1726 <vListInsert+0x1a>
    171e:	fc 01       	movw	r30, r24
    1720:	a7 81       	ldd	r26, Z+7	; 0x07
    1722:	b0 85       	ldd	r27, Z+8	; 0x08
    1724:	0d c0       	rjmp	.+26     	; 0x1740 <vListInsert+0x34>
    1726:	dc 01       	movw	r26, r24
    1728:	13 96       	adiw	r26, 0x03	; 3
    172a:	01 c0       	rjmp	.+2      	; 0x172e <vListInsert+0x22>
    172c:	df 01       	movw	r26, r30
    172e:	12 96       	adiw	r26, 0x02	; 2
    1730:	ed 91       	ld	r30, X+
    1732:	fc 91       	ld	r31, X
    1734:	13 97       	sbiw	r26, 0x03	; 3
    1736:	20 81       	ld	r18, Z
    1738:	31 81       	ldd	r19, Z+1	; 0x01
    173a:	42 17       	cp	r20, r18
    173c:	53 07       	cpc	r21, r19
    173e:	b0 f7       	brcc	.-20     	; 0x172c <vListInsert+0x20>
    1740:	12 96       	adiw	r26, 0x02	; 2
    1742:	ed 91       	ld	r30, X+
    1744:	fc 91       	ld	r31, X
    1746:	13 97       	sbiw	r26, 0x03	; 3
    1748:	ea 83       	std	Y+2, r30	; 0x02
    174a:	fb 83       	std	Y+3, r31	; 0x03
    174c:	c4 83       	std	Z+4, r28	; 0x04
    174e:	d5 83       	std	Z+5, r29	; 0x05
    1750:	ac 83       	std	Y+4, r26	; 0x04
    1752:	bd 83       	std	Y+5, r27	; 0x05
    1754:	12 96       	adiw	r26, 0x02	; 2
    1756:	cd 93       	st	X+, r28
    1758:	dc 93       	st	X, r29
    175a:	13 97       	sbiw	r26, 0x03	; 3
    175c:	88 87       	std	Y+8, r24	; 0x08
    175e:	99 87       	std	Y+9, r25	; 0x09
    1760:	fc 01       	movw	r30, r24
    1762:	20 81       	ld	r18, Z
    1764:	2f 5f       	subi	r18, 0xFF	; 255
    1766:	20 83       	st	Z, r18
    1768:	df 91       	pop	r29
    176a:	cf 91       	pop	r28
    176c:	08 95       	ret

0000176e <uxListRemove>:
    176e:	cf 93       	push	r28
    1770:	df 93       	push	r29
    1772:	fc 01       	movw	r30, r24
    1774:	a0 85       	ldd	r26, Z+8	; 0x08
    1776:	b1 85       	ldd	r27, Z+9	; 0x09
    1778:	c2 81       	ldd	r28, Z+2	; 0x02
    177a:	d3 81       	ldd	r29, Z+3	; 0x03
    177c:	84 81       	ldd	r24, Z+4	; 0x04
    177e:	95 81       	ldd	r25, Z+5	; 0x05
    1780:	8c 83       	std	Y+4, r24	; 0x04
    1782:	9d 83       	std	Y+5, r25	; 0x05
    1784:	c4 81       	ldd	r28, Z+4	; 0x04
    1786:	d5 81       	ldd	r29, Z+5	; 0x05
    1788:	82 81       	ldd	r24, Z+2	; 0x02
    178a:	93 81       	ldd	r25, Z+3	; 0x03
    178c:	8a 83       	std	Y+2, r24	; 0x02
    178e:	9b 83       	std	Y+3, r25	; 0x03
    1790:	11 96       	adiw	r26, 0x01	; 1
    1792:	cd 91       	ld	r28, X+
    1794:	dc 91       	ld	r29, X
    1796:	12 97       	sbiw	r26, 0x02	; 2
    1798:	ce 17       	cp	r28, r30
    179a:	df 07       	cpc	r29, r31
    179c:	31 f4       	brne	.+12     	; 0x17aa <uxListRemove+0x3c>
    179e:	8c 81       	ldd	r24, Y+4	; 0x04
    17a0:	9d 81       	ldd	r25, Y+5	; 0x05
    17a2:	11 96       	adiw	r26, 0x01	; 1
    17a4:	8d 93       	st	X+, r24
    17a6:	9c 93       	st	X, r25
    17a8:	12 97       	sbiw	r26, 0x02	; 2
    17aa:	10 86       	std	Z+8, r1	; 0x08
    17ac:	11 86       	std	Z+9, r1	; 0x09
    17ae:	8c 91       	ld	r24, X
    17b0:	81 50       	subi	r24, 0x01	; 1
    17b2:	8c 93       	st	X, r24
    17b4:	df 91       	pop	r29
    17b6:	cf 91       	pop	r28
    17b8:	08 95       	ret

000017ba <prvIdleTask>:
		}
		else
		{
			mtCOVERAGE_TEST_MARKER();
		}
	}
    17ba:	ff cf       	rjmp	.-2      	; 0x17ba <prvIdleTask>

000017bc <prvAddCurrentTaskToDelayedList>:
    17bc:	cf 93       	push	r28
    17be:	df 93       	push	r29
    17c0:	ec 01       	movw	r28, r24
    17c2:	e0 91 bd 93 	lds	r30, 0x93BD	; 0x8093bd <pxCurrentTCB>
    17c6:	f0 91 be 93 	lds	r31, 0x93BE	; 0x8093be <pxCurrentTCB+0x1>
    17ca:	82 83       	std	Z+2, r24	; 0x02
    17cc:	93 83       	std	Z+3, r25	; 0x03
    17ce:	80 91 77 93 	lds	r24, 0x9377	; 0x809377 <xTickCount>
    17d2:	90 91 78 93 	lds	r25, 0x9378	; 0x809378 <xTickCount+0x1>
    17d6:	c8 17       	cp	r28, r24
    17d8:	d9 07       	cpc	r29, r25
    17da:	68 f4       	brcc	.+26     	; 0x17f6 <prvAddCurrentTaskToDelayedList+0x3a>
    17dc:	60 91 bd 93 	lds	r22, 0x93BD	; 0x8093bd <pxCurrentTCB>
    17e0:	70 91 be 93 	lds	r23, 0x93BE	; 0x8093be <pxCurrentTCB+0x1>
    17e4:	80 91 83 93 	lds	r24, 0x9383	; 0x809383 <pxOverflowDelayedTaskList>
    17e8:	90 91 84 93 	lds	r25, 0x9384	; 0x809384 <pxOverflowDelayedTaskList+0x1>
    17ec:	6e 5f       	subi	r22, 0xFE	; 254
    17ee:	7f 4f       	sbci	r23, 0xFF	; 255
    17f0:	0e 94 86 0b 	call	0x170c	; 0x170c <vListInsert>
    17f4:	17 c0       	rjmp	.+46     	; 0x1824 <prvAddCurrentTaskToDelayedList+0x68>
    17f6:	60 91 bd 93 	lds	r22, 0x93BD	; 0x8093bd <pxCurrentTCB>
    17fa:	70 91 be 93 	lds	r23, 0x93BE	; 0x8093be <pxCurrentTCB+0x1>
    17fe:	80 91 85 93 	lds	r24, 0x9385	; 0x809385 <pxDelayedTaskList>
    1802:	90 91 86 93 	lds	r25, 0x9386	; 0x809386 <pxDelayedTaskList+0x1>
    1806:	6e 5f       	subi	r22, 0xFE	; 254
    1808:	7f 4f       	sbci	r23, 0xFF	; 255
    180a:	0e 94 86 0b 	call	0x170c	; 0x170c <vListInsert>
    180e:	80 91 91 22 	lds	r24, 0x2291	; 0x802291 <xNextTaskUnblockTime>
    1812:	90 91 92 22 	lds	r25, 0x2292	; 0x802292 <xNextTaskUnblockTime+0x1>
    1816:	c8 17       	cp	r28, r24
    1818:	d9 07       	cpc	r29, r25
    181a:	20 f4       	brcc	.+8      	; 0x1824 <prvAddCurrentTaskToDelayedList+0x68>
    181c:	c0 93 91 22 	sts	0x2291, r28	; 0x802291 <xNextTaskUnblockTime>
    1820:	d0 93 92 22 	sts	0x2292, r29	; 0x802292 <xNextTaskUnblockTime+0x1>
    1824:	df 91       	pop	r29
    1826:	cf 91       	pop	r28
    1828:	08 95       	ret

0000182a <xTaskGenericCreate>:
    182a:	4f 92       	push	r4
    182c:	5f 92       	push	r5
    182e:	6f 92       	push	r6
    1830:	7f 92       	push	r7
    1832:	8f 92       	push	r8
    1834:	9f 92       	push	r9
    1836:	af 92       	push	r10
    1838:	bf 92       	push	r11
    183a:	cf 92       	push	r12
    183c:	df 92       	push	r13
    183e:	ef 92       	push	r14
    1840:	ff 92       	push	r15
    1842:	0f 93       	push	r16
    1844:	1f 93       	push	r17
    1846:	cf 93       	push	r28
    1848:	df 93       	push	r29
    184a:	4c 01       	movw	r8, r24
    184c:	eb 01       	movw	r28, r22
    184e:	5a 01       	movw	r10, r20
    1850:	29 01       	movw	r4, r18
    1852:	81 e2       	ldi	r24, 0x21	; 33
    1854:	90 e0       	ldi	r25, 0x00	; 0
    1856:	0e 94 1d 0b 	call	0x163a	; 0x163a <pvPortMalloc>
    185a:	3c 01       	movw	r6, r24
    185c:	00 97       	sbiw	r24, 0x00	; 0
    185e:	09 f4       	brne	.+2      	; 0x1862 <xTaskGenericCreate+0x38>
    1860:	da c0       	rjmp	.+436    	; 0x1a16 <xTaskGenericCreate+0x1ec>
    1862:	c1 14       	cp	r12, r1
    1864:	d1 04       	cpc	r13, r1
    1866:	09 f0       	breq	.+2      	; 0x186a <xTaskGenericCreate+0x40>
    1868:	d2 c0       	rjmp	.+420    	; 0x1a0e <xTaskGenericCreate+0x1e4>
    186a:	c5 01       	movw	r24, r10
    186c:	0e 94 1d 0b 	call	0x163a	; 0x163a <pvPortMalloc>
    1870:	f3 01       	movw	r30, r6
    1872:	87 8b       	std	Z+23, r24	; 0x17
    1874:	90 8f       	std	Z+24, r25	; 0x18
    1876:	89 2b       	or	r24, r25
    1878:	21 f4       	brne	.+8      	; 0x1882 <xTaskGenericCreate+0x58>
    187a:	c3 01       	movw	r24, r6
    187c:	0e 94 52 0b 	call	0x16a4	; 0x16a4 <vPortFree>
    1880:	ca c0       	rjmp	.+404    	; 0x1a16 <xTaskGenericCreate+0x1ec>
    1882:	f1 e0       	ldi	r31, 0x01	; 1
    1884:	af 1a       	sub	r10, r31
    1886:	b1 08       	sbc	r11, r1
    1888:	f3 01       	movw	r30, r6
    188a:	87 89       	ldd	r24, Z+23	; 0x17
    188c:	90 8d       	ldd	r25, Z+24	; 0x18
    188e:	a8 0e       	add	r10, r24
    1890:	b9 1e       	adc	r11, r25
    1892:	88 81       	ld	r24, Y
    1894:	81 8f       	std	Z+25, r24	; 0x19
    1896:	88 81       	ld	r24, Y
    1898:	88 23       	and	r24, r24
    189a:	81 f0       	breq	.+32     	; 0x18bc <xTaskGenericCreate+0x92>
    189c:	d3 01       	movw	r26, r6
    189e:	5a 96       	adiw	r26, 0x1a	; 26
    18a0:	fe 01       	movw	r30, r28
    18a2:	31 96       	adiw	r30, 0x01	; 1
    18a4:	9e 01       	movw	r18, r28
    18a6:	28 5f       	subi	r18, 0xF8	; 248
    18a8:	3f 4f       	sbci	r19, 0xFF	; 255
    18aa:	ef 01       	movw	r28, r30
    18ac:	81 91       	ld	r24, Z+
    18ae:	8d 93       	st	X+, r24
    18b0:	88 81       	ld	r24, Y
    18b2:	88 23       	and	r24, r24
    18b4:	19 f0       	breq	.+6      	; 0x18bc <xTaskGenericCreate+0x92>
    18b6:	e2 17       	cp	r30, r18
    18b8:	f3 07       	cpc	r31, r19
    18ba:	b9 f7       	brne	.-18     	; 0x18aa <xTaskGenericCreate+0x80>
    18bc:	f3 01       	movw	r30, r6
    18be:	10 a2       	std	Z+32, r1	; 0x20
    18c0:	10 2f       	mov	r17, r16
    18c2:	04 30       	cpi	r16, 0x04	; 4
    18c4:	08 f0       	brcs	.+2      	; 0x18c8 <xTaskGenericCreate+0x9e>
    18c6:	13 e0       	ldi	r17, 0x03	; 3
    18c8:	f3 01       	movw	r30, r6
    18ca:	16 8b       	std	Z+22, r17	; 0x16
    18cc:	e3 01       	movw	r28, r6
    18ce:	22 96       	adiw	r28, 0x02	; 2
    18d0:	ce 01       	movw	r24, r28
    18d2:	0e 94 61 0b 	call	0x16c2	; 0x16c2 <vListInitialiseItem>
    18d6:	c3 01       	movw	r24, r6
    18d8:	0c 96       	adiw	r24, 0x0c	; 12
    18da:	0e 94 61 0b 	call	0x16c2	; 0x16c2 <vListInitialiseItem>
    18de:	f3 01       	movw	r30, r6
    18e0:	60 86       	std	Z+8, r6	; 0x08
    18e2:	71 86       	std	Z+9, r7	; 0x09
    18e4:	84 e0       	ldi	r24, 0x04	; 4
    18e6:	90 e0       	ldi	r25, 0x00	; 0
    18e8:	81 1b       	sub	r24, r17
    18ea:	91 09       	sbc	r25, r1
    18ec:	84 87       	std	Z+12, r24	; 0x0c
    18ee:	95 87       	std	Z+13, r25	; 0x0d
    18f0:	62 8a       	std	Z+18, r6	; 0x12
    18f2:	73 8a       	std	Z+19, r7	; 0x13
    18f4:	a2 01       	movw	r20, r4
    18f6:	b4 01       	movw	r22, r8
    18f8:	c5 01       	movw	r24, r10
    18fa:	0e 94 b5 09 	call	0x136a	; 0x136a <pxPortInitialiseStack>
    18fe:	f3 01       	movw	r30, r6
    1900:	80 83       	st	Z, r24
    1902:	91 83       	std	Z+1, r25	; 0x01
    1904:	e1 14       	cp	r14, r1
    1906:	f1 04       	cpc	r15, r1
    1908:	19 f0       	breq	.+6      	; 0x1910 <xTaskGenericCreate+0xe6>
    190a:	f7 01       	movw	r30, r14
    190c:	60 82       	st	Z, r6
    190e:	71 82       	std	Z+1, r7	; 0x01
    1910:	0f b6       	in	r0, 0x3f	; 63
    1912:	f8 94       	cli
    1914:	0f 92       	push	r0
    1916:	80 91 79 93 	lds	r24, 0x9379	; 0x809379 <uxCurrentNumberOfTasks>
    191a:	8f 5f       	subi	r24, 0xFF	; 255
    191c:	80 93 79 93 	sts	0x9379, r24	; 0x809379 <uxCurrentNumberOfTasks>
    1920:	80 91 bd 93 	lds	r24, 0x93BD	; 0x8093bd <pxCurrentTCB>
    1924:	90 91 be 93 	lds	r25, 0x93BE	; 0x8093be <pxCurrentTCB+0x1>
    1928:	89 2b       	or	r24, r25
    192a:	89 f5       	brne	.+98     	; 0x198e <xTaskGenericCreate+0x164>
    192c:	60 92 bd 93 	sts	0x93BD, r6	; 0x8093bd <pxCurrentTCB>
    1930:	70 92 be 93 	sts	0x93BE, r7	; 0x8093be <pxCurrentTCB+0x1>
    1934:	80 91 79 93 	lds	r24, 0x9379	; 0x809379 <uxCurrentNumberOfTasks>
    1938:	81 30       	cpi	r24, 0x01	; 1
    193a:	c1 f5       	brne	.+112    	; 0x19ac <xTaskGenericCreate+0x182>
    193c:	89 e9       	ldi	r24, 0x99	; 153
    193e:	93 e9       	ldi	r25, 0x93	; 147
    1940:	0e 94 53 0b 	call	0x16a6	; 0x16a6 <vListInitialise>
    1944:	82 ea       	ldi	r24, 0xA2	; 162
    1946:	93 e9       	ldi	r25, 0x93	; 147
    1948:	0e 94 53 0b 	call	0x16a6	; 0x16a6 <vListInitialise>
    194c:	8b ea       	ldi	r24, 0xAB	; 171
    194e:	93 e9       	ldi	r25, 0x93	; 147
    1950:	0e 94 53 0b 	call	0x16a6	; 0x16a6 <vListInitialise>
    1954:	84 eb       	ldi	r24, 0xB4	; 180
    1956:	93 e9       	ldi	r25, 0x93	; 147
    1958:	0e 94 53 0b 	call	0x16a6	; 0x16a6 <vListInitialise>
    195c:	80 e9       	ldi	r24, 0x90	; 144
    195e:	93 e9       	ldi	r25, 0x93	; 147
    1960:	0e 94 53 0b 	call	0x16a6	; 0x16a6 <vListInitialise>
    1964:	87 e8       	ldi	r24, 0x87	; 135
    1966:	93 e9       	ldi	r25, 0x93	; 147
    1968:	0e 94 53 0b 	call	0x16a6	; 0x16a6 <vListInitialise>
    196c:	8a e7       	ldi	r24, 0x7A	; 122
    196e:	93 e9       	ldi	r25, 0x93	; 147
    1970:	0e 94 53 0b 	call	0x16a6	; 0x16a6 <vListInitialise>
    1974:	80 e9       	ldi	r24, 0x90	; 144
    1976:	93 e9       	ldi	r25, 0x93	; 147
    1978:	80 93 85 93 	sts	0x9385, r24	; 0x809385 <pxDelayedTaskList>
    197c:	90 93 86 93 	sts	0x9386, r25	; 0x809386 <pxDelayedTaskList+0x1>
    1980:	87 e8       	ldi	r24, 0x87	; 135
    1982:	93 e9       	ldi	r25, 0x93	; 147
    1984:	80 93 83 93 	sts	0x9383, r24	; 0x809383 <pxOverflowDelayedTaskList>
    1988:	90 93 84 93 	sts	0x9384, r25	; 0x809384 <pxOverflowDelayedTaskList+0x1>
    198c:	0f c0       	rjmp	.+30     	; 0x19ac <xTaskGenericCreate+0x182>
    198e:	80 91 75 93 	lds	r24, 0x9375	; 0x809375 <xSchedulerRunning>
    1992:	81 11       	cpse	r24, r1
    1994:	0b c0       	rjmp	.+22     	; 0x19ac <xTaskGenericCreate+0x182>
    1996:	e0 91 bd 93 	lds	r30, 0x93BD	; 0x8093bd <pxCurrentTCB>
    199a:	f0 91 be 93 	lds	r31, 0x93BE	; 0x8093be <pxCurrentTCB+0x1>
    199e:	86 89       	ldd	r24, Z+22	; 0x16
    19a0:	08 17       	cp	r16, r24
    19a2:	20 f0       	brcs	.+8      	; 0x19ac <xTaskGenericCreate+0x182>
    19a4:	60 92 bd 93 	sts	0x93BD, r6	; 0x8093bd <pxCurrentTCB>
    19a8:	70 92 be 93 	sts	0x93BE, r7	; 0x8093be <pxCurrentTCB+0x1>
    19ac:	80 91 71 93 	lds	r24, 0x9371	; 0x809371 <uxTaskNumber>
    19b0:	8f 5f       	subi	r24, 0xFF	; 255
    19b2:	80 93 71 93 	sts	0x9371, r24	; 0x809371 <uxTaskNumber>
    19b6:	f3 01       	movw	r30, r6
    19b8:	86 89       	ldd	r24, Z+22	; 0x16
    19ba:	90 91 76 93 	lds	r25, 0x9376	; 0x809376 <uxTopReadyPriority>
    19be:	98 17       	cp	r25, r24
    19c0:	10 f4       	brcc	.+4      	; 0x19c6 <xTaskGenericCreate+0x19c>
    19c2:	80 93 76 93 	sts	0x9376, r24	; 0x809376 <uxTopReadyPriority>
    19c6:	90 e0       	ldi	r25, 0x00	; 0
    19c8:	9c 01       	movw	r18, r24
    19ca:	22 0f       	add	r18, r18
    19cc:	33 1f       	adc	r19, r19
    19ce:	22 0f       	add	r18, r18
    19d0:	33 1f       	adc	r19, r19
    19d2:	22 0f       	add	r18, r18
    19d4:	33 1f       	adc	r19, r19
    19d6:	82 0f       	add	r24, r18
    19d8:	93 1f       	adc	r25, r19
    19da:	be 01       	movw	r22, r28
    19dc:	87 56       	subi	r24, 0x67	; 103
    19de:	9c 46       	sbci	r25, 0x6C	; 108
    19e0:	0e 94 65 0b 	call	0x16ca	; 0x16ca <vListInsertEnd>
    19e4:	0f 90       	pop	r0
    19e6:	0f be       	out	0x3f, r0	; 63
    19e8:	80 91 75 93 	lds	r24, 0x9375	; 0x809375 <xSchedulerRunning>
    19ec:	88 23       	and	r24, r24
    19ee:	59 f0       	breq	.+22     	; 0x1a06 <xTaskGenericCreate+0x1dc>
    19f0:	e0 91 bd 93 	lds	r30, 0x93BD	; 0x8093bd <pxCurrentTCB>
    19f4:	f0 91 be 93 	lds	r31, 0x93BE	; 0x8093be <pxCurrentTCB+0x1>
    19f8:	86 89       	ldd	r24, Z+22	; 0x16
    19fa:	80 17       	cp	r24, r16
    19fc:	30 f4       	brcc	.+12     	; 0x1a0a <xTaskGenericCreate+0x1e0>
    19fe:	0e 94 65 0a 	call	0x14ca	; 0x14ca <vPortYield>
    1a02:	81 e0       	ldi	r24, 0x01	; 1
    1a04:	09 c0       	rjmp	.+18     	; 0x1a18 <xTaskGenericCreate+0x1ee>
    1a06:	81 e0       	ldi	r24, 0x01	; 1
    1a08:	07 c0       	rjmp	.+14     	; 0x1a18 <xTaskGenericCreate+0x1ee>
    1a0a:	81 e0       	ldi	r24, 0x01	; 1
    1a0c:	05 c0       	rjmp	.+10     	; 0x1a18 <xTaskGenericCreate+0x1ee>
    1a0e:	fc 01       	movw	r30, r24
    1a10:	c7 8a       	std	Z+23, r12	; 0x17
    1a12:	d0 8e       	std	Z+24, r13	; 0x18
    1a14:	36 cf       	rjmp	.-404    	; 0x1882 <xTaskGenericCreate+0x58>
    1a16:	8f ef       	ldi	r24, 0xFF	; 255
    1a18:	df 91       	pop	r29
    1a1a:	cf 91       	pop	r28
    1a1c:	1f 91       	pop	r17
    1a1e:	0f 91       	pop	r16
    1a20:	ff 90       	pop	r15
    1a22:	ef 90       	pop	r14
    1a24:	df 90       	pop	r13
    1a26:	cf 90       	pop	r12
    1a28:	bf 90       	pop	r11
    1a2a:	af 90       	pop	r10
    1a2c:	9f 90       	pop	r9
    1a2e:	8f 90       	pop	r8
    1a30:	7f 90       	pop	r7
    1a32:	6f 90       	pop	r6
    1a34:	5f 90       	pop	r5
    1a36:	4f 90       	pop	r4
    1a38:	08 95       	ret

00001a3a <vTaskStartScheduler>:
    1a3a:	af 92       	push	r10
    1a3c:	bf 92       	push	r11
    1a3e:	cf 92       	push	r12
    1a40:	df 92       	push	r13
    1a42:	ef 92       	push	r14
    1a44:	ff 92       	push	r15
    1a46:	0f 93       	push	r16
    1a48:	a1 2c       	mov	r10, r1
    1a4a:	b1 2c       	mov	r11, r1
    1a4c:	c1 2c       	mov	r12, r1
    1a4e:	d1 2c       	mov	r13, r1
    1a50:	e1 2c       	mov	r14, r1
    1a52:	f1 2c       	mov	r15, r1
    1a54:	00 e0       	ldi	r16, 0x00	; 0
    1a56:	20 e0       	ldi	r18, 0x00	; 0
    1a58:	30 e0       	ldi	r19, 0x00	; 0
    1a5a:	44 e6       	ldi	r20, 0x64	; 100
    1a5c:	50 e0       	ldi	r21, 0x00	; 0
    1a5e:	69 ed       	ldi	r22, 0xD9	; 217
    1a60:	72 e2       	ldi	r23, 0x22	; 34
    1a62:	8d ed       	ldi	r24, 0xDD	; 221
    1a64:	9b e0       	ldi	r25, 0x0B	; 11
    1a66:	0e 94 15 0c 	call	0x182a	; 0x182a <xTaskGenericCreate>
    1a6a:	81 30       	cpi	r24, 0x01	; 1
    1a6c:	49 f4       	brne	.+18     	; 0x1a80 <vTaskStartScheduler+0x46>
    1a6e:	f8 94       	cli
    1a70:	80 93 75 93 	sts	0x9375, r24	; 0x809375 <xSchedulerRunning>
    1a74:	10 92 77 93 	sts	0x9377, r1	; 0x809377 <xTickCount>
    1a78:	10 92 78 93 	sts	0x9378, r1	; 0x809378 <xTickCount+0x1>
    1a7c:	0e 94 23 0a 	call	0x1446	; 0x1446 <xPortStartScheduler>
    1a80:	0f 91       	pop	r16
    1a82:	ff 90       	pop	r15
    1a84:	ef 90       	pop	r14
    1a86:	df 90       	pop	r13
    1a88:	cf 90       	pop	r12
    1a8a:	bf 90       	pop	r11
    1a8c:	af 90       	pop	r10
    1a8e:	08 95       	ret

00001a90 <vTaskSuspendAll>:
    1a90:	80 91 70 93 	lds	r24, 0x9370	; 0x809370 <uxSchedulerSuspended>
    1a94:	8f 5f       	subi	r24, 0xFF	; 255
    1a96:	80 93 70 93 	sts	0x9370, r24	; 0x809370 <uxSchedulerSuspended>
    1a9a:	08 95       	ret

00001a9c <xTaskIncrementTick>:
    1a9c:	df 92       	push	r13
    1a9e:	ef 92       	push	r14
    1aa0:	ff 92       	push	r15
    1aa2:	0f 93       	push	r16
    1aa4:	1f 93       	push	r17
    1aa6:	cf 93       	push	r28
    1aa8:	df 93       	push	r29
    1aaa:	80 91 70 93 	lds	r24, 0x9370	; 0x809370 <uxSchedulerSuspended>
    1aae:	81 11       	cpse	r24, r1
    1ab0:	b6 c0       	rjmp	.+364    	; 0x1c1e <xTaskIncrementTick+0x182>
    1ab2:	80 91 77 93 	lds	r24, 0x9377	; 0x809377 <xTickCount>
    1ab6:	90 91 78 93 	lds	r25, 0x9378	; 0x809378 <xTickCount+0x1>
    1aba:	01 96       	adiw	r24, 0x01	; 1
    1abc:	80 93 77 93 	sts	0x9377, r24	; 0x809377 <xTickCount>
    1ac0:	90 93 78 93 	sts	0x9378, r25	; 0x809378 <xTickCount+0x1>
    1ac4:	e0 90 77 93 	lds	r14, 0x9377	; 0x809377 <xTickCount>
    1ac8:	f0 90 78 93 	lds	r15, 0x9378	; 0x809378 <xTickCount+0x1>
    1acc:	e1 14       	cp	r14, r1
    1ace:	f1 04       	cpc	r15, r1
    1ad0:	99 f5       	brne	.+102    	; 0x1b38 <xTaskIncrementTick+0x9c>
    1ad2:	80 91 85 93 	lds	r24, 0x9385	; 0x809385 <pxDelayedTaskList>
    1ad6:	90 91 86 93 	lds	r25, 0x9386	; 0x809386 <pxDelayedTaskList+0x1>
    1ada:	20 91 83 93 	lds	r18, 0x9383	; 0x809383 <pxOverflowDelayedTaskList>
    1ade:	30 91 84 93 	lds	r19, 0x9384	; 0x809384 <pxOverflowDelayedTaskList+0x1>
    1ae2:	20 93 85 93 	sts	0x9385, r18	; 0x809385 <pxDelayedTaskList>
    1ae6:	30 93 86 93 	sts	0x9386, r19	; 0x809386 <pxDelayedTaskList+0x1>
    1aea:	80 93 83 93 	sts	0x9383, r24	; 0x809383 <pxOverflowDelayedTaskList>
    1aee:	90 93 84 93 	sts	0x9384, r25	; 0x809384 <pxOverflowDelayedTaskList+0x1>
    1af2:	80 91 72 93 	lds	r24, 0x9372	; 0x809372 <xNumOfOverflows>
    1af6:	8f 5f       	subi	r24, 0xFF	; 255
    1af8:	80 93 72 93 	sts	0x9372, r24	; 0x809372 <xNumOfOverflows>
    1afc:	e0 91 85 93 	lds	r30, 0x9385	; 0x809385 <pxDelayedTaskList>
    1b00:	f0 91 86 93 	lds	r31, 0x9386	; 0x809386 <pxDelayedTaskList+0x1>
    1b04:	80 81       	ld	r24, Z
    1b06:	81 11       	cpse	r24, r1
    1b08:	07 c0       	rjmp	.+14     	; 0x1b18 <xTaskIncrementTick+0x7c>
    1b0a:	8f ef       	ldi	r24, 0xFF	; 255
    1b0c:	9f ef       	ldi	r25, 0xFF	; 255
    1b0e:	80 93 91 22 	sts	0x2291, r24	; 0x802291 <xNextTaskUnblockTime>
    1b12:	90 93 92 22 	sts	0x2292, r25	; 0x802292 <xNextTaskUnblockTime+0x1>
    1b16:	10 c0       	rjmp	.+32     	; 0x1b38 <xTaskIncrementTick+0x9c>
    1b18:	e0 91 85 93 	lds	r30, 0x9385	; 0x809385 <pxDelayedTaskList>
    1b1c:	f0 91 86 93 	lds	r31, 0x9386	; 0x809386 <pxDelayedTaskList+0x1>
    1b20:	05 80       	ldd	r0, Z+5	; 0x05
    1b22:	f6 81       	ldd	r31, Z+6	; 0x06
    1b24:	e0 2d       	mov	r30, r0
    1b26:	06 80       	ldd	r0, Z+6	; 0x06
    1b28:	f7 81       	ldd	r31, Z+7	; 0x07
    1b2a:	e0 2d       	mov	r30, r0
    1b2c:	82 81       	ldd	r24, Z+2	; 0x02
    1b2e:	93 81       	ldd	r25, Z+3	; 0x03
    1b30:	80 93 91 22 	sts	0x2291, r24	; 0x802291 <xNextTaskUnblockTime>
    1b34:	90 93 92 22 	sts	0x2292, r25	; 0x802292 <xNextTaskUnblockTime+0x1>
    1b38:	80 91 91 22 	lds	r24, 0x2291	; 0x802291 <xNextTaskUnblockTime>
    1b3c:	90 91 92 22 	lds	r25, 0x2292	; 0x802292 <xNextTaskUnblockTime+0x1>
    1b40:	e8 16       	cp	r14, r24
    1b42:	f9 06       	cpc	r15, r25
    1b44:	10 f4       	brcc	.+4      	; 0x1b4a <xTaskIncrementTick+0xae>
    1b46:	d1 2c       	mov	r13, r1
    1b48:	52 c0       	rjmp	.+164    	; 0x1bee <xTaskIncrementTick+0x152>
    1b4a:	d1 2c       	mov	r13, r1
    1b4c:	e0 91 85 93 	lds	r30, 0x9385	; 0x809385 <pxDelayedTaskList>
    1b50:	f0 91 86 93 	lds	r31, 0x9386	; 0x809386 <pxDelayedTaskList+0x1>
    1b54:	90 81       	ld	r25, Z
    1b56:	91 11       	cpse	r25, r1
    1b58:	07 c0       	rjmp	.+14     	; 0x1b68 <xTaskIncrementTick+0xcc>
    1b5a:	8f ef       	ldi	r24, 0xFF	; 255
    1b5c:	9f ef       	ldi	r25, 0xFF	; 255
    1b5e:	80 93 91 22 	sts	0x2291, r24	; 0x802291 <xNextTaskUnblockTime>
    1b62:	90 93 92 22 	sts	0x2292, r25	; 0x802292 <xNextTaskUnblockTime+0x1>
    1b66:	43 c0       	rjmp	.+134    	; 0x1bee <xTaskIncrementTick+0x152>
    1b68:	e0 91 85 93 	lds	r30, 0x9385	; 0x809385 <pxDelayedTaskList>
    1b6c:	f0 91 86 93 	lds	r31, 0x9386	; 0x809386 <pxDelayedTaskList+0x1>
    1b70:	05 80       	ldd	r0, Z+5	; 0x05
    1b72:	f6 81       	ldd	r31, Z+6	; 0x06
    1b74:	e0 2d       	mov	r30, r0
    1b76:	c6 81       	ldd	r28, Z+6	; 0x06
    1b78:	d7 81       	ldd	r29, Z+7	; 0x07
    1b7a:	2a 81       	ldd	r18, Y+2	; 0x02
    1b7c:	3b 81       	ldd	r19, Y+3	; 0x03
    1b7e:	e2 16       	cp	r14, r18
    1b80:	f3 06       	cpc	r15, r19
    1b82:	28 f4       	brcc	.+10     	; 0x1b8e <xTaskIncrementTick+0xf2>
    1b84:	20 93 91 22 	sts	0x2291, r18	; 0x802291 <xNextTaskUnblockTime>
    1b88:	30 93 92 22 	sts	0x2292, r19	; 0x802292 <xNextTaskUnblockTime+0x1>
    1b8c:	30 c0       	rjmp	.+96     	; 0x1bee <xTaskIncrementTick+0x152>
    1b8e:	8e 01       	movw	r16, r28
    1b90:	0e 5f       	subi	r16, 0xFE	; 254
    1b92:	1f 4f       	sbci	r17, 0xFF	; 255
    1b94:	c8 01       	movw	r24, r16
    1b96:	0e 94 b7 0b 	call	0x176e	; 0x176e <uxListRemove>
    1b9a:	8c 89       	ldd	r24, Y+20	; 0x14
    1b9c:	9d 89       	ldd	r25, Y+21	; 0x15
    1b9e:	89 2b       	or	r24, r25
    1ba0:	21 f0       	breq	.+8      	; 0x1baa <xTaskIncrementTick+0x10e>
    1ba2:	ce 01       	movw	r24, r28
    1ba4:	0c 96       	adiw	r24, 0x0c	; 12
    1ba6:	0e 94 b7 0b 	call	0x176e	; 0x176e <uxListRemove>
    1baa:	2e 89       	ldd	r18, Y+22	; 0x16
    1bac:	80 91 76 93 	lds	r24, 0x9376	; 0x809376 <uxTopReadyPriority>
    1bb0:	82 17       	cp	r24, r18
    1bb2:	10 f4       	brcc	.+4      	; 0x1bb8 <xTaskIncrementTick+0x11c>
    1bb4:	20 93 76 93 	sts	0x9376, r18	; 0x809376 <uxTopReadyPriority>
    1bb8:	30 e0       	ldi	r19, 0x00	; 0
    1bba:	c9 01       	movw	r24, r18
    1bbc:	88 0f       	add	r24, r24
    1bbe:	99 1f       	adc	r25, r25
    1bc0:	88 0f       	add	r24, r24
    1bc2:	99 1f       	adc	r25, r25
    1bc4:	88 0f       	add	r24, r24
    1bc6:	99 1f       	adc	r25, r25
    1bc8:	82 0f       	add	r24, r18
    1bca:	93 1f       	adc	r25, r19
    1bcc:	b8 01       	movw	r22, r16
    1bce:	87 56       	subi	r24, 0x67	; 103
    1bd0:	9c 46       	sbci	r25, 0x6C	; 108
    1bd2:	0e 94 65 0b 	call	0x16ca	; 0x16ca <vListInsertEnd>
    1bd6:	e0 91 bd 93 	lds	r30, 0x93BD	; 0x8093bd <pxCurrentTCB>
    1bda:	f0 91 be 93 	lds	r31, 0x93BE	; 0x8093be <pxCurrentTCB+0x1>
    1bde:	9e 89       	ldd	r25, Y+22	; 0x16
    1be0:	86 89       	ldd	r24, Z+22	; 0x16
    1be2:	98 17       	cp	r25, r24
    1be4:	08 f4       	brcc	.+2      	; 0x1be8 <xTaskIncrementTick+0x14c>
    1be6:	b2 cf       	rjmp	.-156    	; 0x1b4c <xTaskIncrementTick+0xb0>
    1be8:	dd 24       	eor	r13, r13
    1bea:	d3 94       	inc	r13
    1bec:	af cf       	rjmp	.-162    	; 0x1b4c <xTaskIncrementTick+0xb0>
    1bee:	e0 91 bd 93 	lds	r30, 0x93BD	; 0x8093bd <pxCurrentTCB>
    1bf2:	f0 91 be 93 	lds	r31, 0x93BE	; 0x8093be <pxCurrentTCB+0x1>
    1bf6:	86 89       	ldd	r24, Z+22	; 0x16
    1bf8:	90 e0       	ldi	r25, 0x00	; 0
    1bfa:	fc 01       	movw	r30, r24
    1bfc:	ee 0f       	add	r30, r30
    1bfe:	ff 1f       	adc	r31, r31
    1c00:	ee 0f       	add	r30, r30
    1c02:	ff 1f       	adc	r31, r31
    1c04:	ee 0f       	add	r30, r30
    1c06:	ff 1f       	adc	r31, r31
    1c08:	8e 0f       	add	r24, r30
    1c0a:	9f 1f       	adc	r25, r31
    1c0c:	fc 01       	movw	r30, r24
    1c0e:	e7 56       	subi	r30, 0x67	; 103
    1c10:	fc 46       	sbci	r31, 0x6C	; 108
    1c12:	80 81       	ld	r24, Z
    1c14:	82 30       	cpi	r24, 0x02	; 2
    1c16:	48 f0       	brcs	.+18     	; 0x1c2a <xTaskIncrementTick+0x18e>
    1c18:	dd 24       	eor	r13, r13
    1c1a:	d3 94       	inc	r13
    1c1c:	06 c0       	rjmp	.+12     	; 0x1c2a <xTaskIncrementTick+0x18e>
    1c1e:	80 91 74 93 	lds	r24, 0x9374	; 0x809374 <uxPendedTicks>
    1c22:	8f 5f       	subi	r24, 0xFF	; 255
    1c24:	80 93 74 93 	sts	0x9374, r24	; 0x809374 <uxPendedTicks>
    1c28:	d1 2c       	mov	r13, r1
    1c2a:	80 91 73 93 	lds	r24, 0x9373	; 0x809373 <xYieldPending>
    1c2e:	88 23       	and	r24, r24
    1c30:	11 f0       	breq	.+4      	; 0x1c36 <xTaskIncrementTick+0x19a>
    1c32:	dd 24       	eor	r13, r13
    1c34:	d3 94       	inc	r13
    1c36:	8d 2d       	mov	r24, r13
    1c38:	df 91       	pop	r29
    1c3a:	cf 91       	pop	r28
    1c3c:	1f 91       	pop	r17
    1c3e:	0f 91       	pop	r16
    1c40:	ff 90       	pop	r15
    1c42:	ef 90       	pop	r14
    1c44:	df 90       	pop	r13
    1c46:	08 95       	ret

00001c48 <xTaskResumeAll>:
    1c48:	df 92       	push	r13
    1c4a:	ef 92       	push	r14
    1c4c:	ff 92       	push	r15
    1c4e:	0f 93       	push	r16
    1c50:	1f 93       	push	r17
    1c52:	cf 93       	push	r28
    1c54:	df 93       	push	r29
    1c56:	0f b6       	in	r0, 0x3f	; 63
    1c58:	f8 94       	cli
    1c5a:	0f 92       	push	r0
    1c5c:	80 91 70 93 	lds	r24, 0x9370	; 0x809370 <uxSchedulerSuspended>
    1c60:	81 50       	subi	r24, 0x01	; 1
    1c62:	80 93 70 93 	sts	0x9370, r24	; 0x809370 <uxSchedulerSuspended>
    1c66:	80 91 70 93 	lds	r24, 0x9370	; 0x809370 <uxSchedulerSuspended>
    1c6a:	81 11       	cpse	r24, r1
    1c6c:	62 c0       	rjmp	.+196    	; 0x1d32 <xTaskResumeAll+0xea>
    1c6e:	80 91 79 93 	lds	r24, 0x9379	; 0x809379 <uxCurrentNumberOfTasks>
    1c72:	81 11       	cpse	r24, r1
    1c74:	33 c0       	rjmp	.+102    	; 0x1cdc <xTaskResumeAll+0x94>
    1c76:	60 c0       	rjmp	.+192    	; 0x1d38 <xTaskResumeAll+0xf0>
    1c78:	d7 01       	movw	r26, r14
    1c7a:	15 96       	adiw	r26, 0x05	; 5
    1c7c:	ed 91       	ld	r30, X+
    1c7e:	fc 91       	ld	r31, X
    1c80:	16 97       	sbiw	r26, 0x06	; 6
    1c82:	c6 81       	ldd	r28, Z+6	; 0x06
    1c84:	d7 81       	ldd	r29, Z+7	; 0x07
    1c86:	ce 01       	movw	r24, r28
    1c88:	0c 96       	adiw	r24, 0x0c	; 12
    1c8a:	0e 94 b7 0b 	call	0x176e	; 0x176e <uxListRemove>
    1c8e:	8e 01       	movw	r16, r28
    1c90:	0e 5f       	subi	r16, 0xFE	; 254
    1c92:	1f 4f       	sbci	r17, 0xFF	; 255
    1c94:	c8 01       	movw	r24, r16
    1c96:	0e 94 b7 0b 	call	0x176e	; 0x176e <uxListRemove>
    1c9a:	2e 89       	ldd	r18, Y+22	; 0x16
    1c9c:	80 91 76 93 	lds	r24, 0x9376	; 0x809376 <uxTopReadyPriority>
    1ca0:	82 17       	cp	r24, r18
    1ca2:	10 f4       	brcc	.+4      	; 0x1ca8 <xTaskResumeAll+0x60>
    1ca4:	20 93 76 93 	sts	0x9376, r18	; 0x809376 <uxTopReadyPriority>
    1ca8:	30 e0       	ldi	r19, 0x00	; 0
    1caa:	c9 01       	movw	r24, r18
    1cac:	88 0f       	add	r24, r24
    1cae:	99 1f       	adc	r25, r25
    1cb0:	88 0f       	add	r24, r24
    1cb2:	99 1f       	adc	r25, r25
    1cb4:	88 0f       	add	r24, r24
    1cb6:	99 1f       	adc	r25, r25
    1cb8:	82 0f       	add	r24, r18
    1cba:	93 1f       	adc	r25, r19
    1cbc:	b8 01       	movw	r22, r16
    1cbe:	87 56       	subi	r24, 0x67	; 103
    1cc0:	9c 46       	sbci	r25, 0x6C	; 108
    1cc2:	0e 94 65 0b 	call	0x16ca	; 0x16ca <vListInsertEnd>
    1cc6:	e0 91 bd 93 	lds	r30, 0x93BD	; 0x8093bd <pxCurrentTCB>
    1cca:	f0 91 be 93 	lds	r31, 0x93BE	; 0x8093be <pxCurrentTCB+0x1>
    1cce:	9e 89       	ldd	r25, Y+22	; 0x16
    1cd0:	86 89       	ldd	r24, Z+22	; 0x16
    1cd2:	98 17       	cp	r25, r24
    1cd4:	58 f0       	brcs	.+22     	; 0x1cec <xTaskResumeAll+0xa4>
    1cd6:	d0 92 73 93 	sts	0x9373, r13	; 0x809373 <xYieldPending>
    1cda:	08 c0       	rjmp	.+16     	; 0x1cec <xTaskResumeAll+0xa4>
    1cdc:	0f 2e       	mov	r0, r31
    1cde:	fa e7       	ldi	r31, 0x7A	; 122
    1ce0:	ef 2e       	mov	r14, r31
    1ce2:	f3 e9       	ldi	r31, 0x93	; 147
    1ce4:	ff 2e       	mov	r15, r31
    1ce6:	f0 2d       	mov	r31, r0
    1ce8:	dd 24       	eor	r13, r13
    1cea:	d3 94       	inc	r13
    1cec:	f7 01       	movw	r30, r14
    1cee:	80 81       	ld	r24, Z
    1cf0:	81 11       	cpse	r24, r1
    1cf2:	c2 cf       	rjmp	.-124    	; 0x1c78 <xTaskResumeAll+0x30>
    1cf4:	80 91 74 93 	lds	r24, 0x9374	; 0x809374 <uxPendedTicks>
    1cf8:	88 23       	and	r24, r24
    1cfa:	99 f0       	breq	.+38     	; 0x1d22 <xTaskResumeAll+0xda>
    1cfc:	80 91 74 93 	lds	r24, 0x9374	; 0x809374 <uxPendedTicks>
    1d00:	88 23       	and	r24, r24
    1d02:	79 f0       	breq	.+30     	; 0x1d22 <xTaskResumeAll+0xda>
    1d04:	c1 e0       	ldi	r28, 0x01	; 1
    1d06:	0e 94 4e 0d 	call	0x1a9c	; 0x1a9c <xTaskIncrementTick>
    1d0a:	81 11       	cpse	r24, r1
    1d0c:	c0 93 73 93 	sts	0x9373, r28	; 0x809373 <xYieldPending>
    1d10:	80 91 74 93 	lds	r24, 0x9374	; 0x809374 <uxPendedTicks>
    1d14:	81 50       	subi	r24, 0x01	; 1
    1d16:	80 93 74 93 	sts	0x9374, r24	; 0x809374 <uxPendedTicks>
    1d1a:	80 91 74 93 	lds	r24, 0x9374	; 0x809374 <uxPendedTicks>
    1d1e:	81 11       	cpse	r24, r1
    1d20:	f2 cf       	rjmp	.-28     	; 0x1d06 <xTaskResumeAll+0xbe>
    1d22:	80 91 73 93 	lds	r24, 0x9373	; 0x809373 <xYieldPending>
    1d26:	81 30       	cpi	r24, 0x01	; 1
    1d28:	31 f4       	brne	.+12     	; 0x1d36 <xTaskResumeAll+0xee>
    1d2a:	0e 94 65 0a 	call	0x14ca	; 0x14ca <vPortYield>
    1d2e:	81 e0       	ldi	r24, 0x01	; 1
    1d30:	03 c0       	rjmp	.+6      	; 0x1d38 <xTaskResumeAll+0xf0>
    1d32:	80 e0       	ldi	r24, 0x00	; 0
    1d34:	01 c0       	rjmp	.+2      	; 0x1d38 <xTaskResumeAll+0xf0>
    1d36:	80 e0       	ldi	r24, 0x00	; 0
    1d38:	0f 90       	pop	r0
    1d3a:	0f be       	out	0x3f, r0	; 63
    1d3c:	df 91       	pop	r29
    1d3e:	cf 91       	pop	r28
    1d40:	1f 91       	pop	r17
    1d42:	0f 91       	pop	r16
    1d44:	ff 90       	pop	r15
    1d46:	ef 90       	pop	r14
    1d48:	df 90       	pop	r13
    1d4a:	08 95       	ret

00001d4c <vTaskDelay>:
/*-----------------------------------------------------------*/

#if ( INCLUDE_vTaskDelay == 1 )

	void vTaskDelay( const TickType_t xTicksToDelay )
	{
    1d4c:	cf 93       	push	r28
    1d4e:	df 93       	push	r29
    1d50:	ec 01       	movw	r28, r24
	TickType_t xTimeToWake;
	BaseType_t xAlreadyYielded = pdFALSE;


		/* A delay time of zero just forces a reschedule. */
		if( xTicksToDelay > ( TickType_t ) 0U )
    1d52:	89 2b       	or	r24, r25
    1d54:	b1 f0       	breq	.+44     	; 0x1d82 <vTaskDelay+0x36>
		{
			configASSERT( uxSchedulerSuspended == 0 );
			vTaskSuspendAll();
    1d56:	0e 94 48 0d 	call	0x1a90	; 0x1a90 <vTaskSuspendAll>
				This task cannot be in an event list as it is the currently
				executing task. */

				/* Calculate the time to wake - this may overflow but this is
				not a problem. */
				xTimeToWake = xTickCount + xTicksToDelay;
    1d5a:	80 91 77 93 	lds	r24, 0x9377	; 0x809377 <xTickCount>
    1d5e:	90 91 78 93 	lds	r25, 0x9378	; 0x809378 <xTickCount+0x1>
    1d62:	c8 0f       	add	r28, r24
    1d64:	d9 1f       	adc	r29, r25

				/* We must remove ourselves from the ready list before adding
				ourselves to the blocked list as the same list item is used for
				both lists. */
				if( uxListRemove( &( pxCurrentTCB->xGenericListItem ) ) == ( UBaseType_t ) 0 )
    1d66:	80 91 bd 93 	lds	r24, 0x93BD	; 0x8093bd <pxCurrentTCB>
    1d6a:	90 91 be 93 	lds	r25, 0x93BE	; 0x8093be <pxCurrentTCB+0x1>
    1d6e:	02 96       	adiw	r24, 0x02	; 2
    1d70:	0e 94 b7 0b 	call	0x176e	; 0x176e <uxListRemove>
				}
				else
				{
					mtCOVERAGE_TEST_MARKER();
				}
				prvAddCurrentTaskToDelayedList( xTimeToWake );
    1d74:	ce 01       	movw	r24, r28
    1d76:	0e 94 de 0b 	call	0x17bc	; 0x17bc <prvAddCurrentTaskToDelayedList>
			}
			xAlreadyYielded = xTaskResumeAll();
    1d7a:	0e 94 24 0e 	call	0x1c48	; 0x1c48 <xTaskResumeAll>
			mtCOVERAGE_TEST_MARKER();
		}

		/* Force a reschedule if xTaskResumeAll has not already done so, we may
		have put ourselves to sleep. */
		if( xAlreadyYielded == pdFALSE )
    1d7e:	81 11       	cpse	r24, r1
    1d80:	02 c0       	rjmp	.+4      	; 0x1d86 <vTaskDelay+0x3a>
		{
			portYIELD_WITHIN_API();
    1d82:	0e 94 65 0a 	call	0x14ca	; 0x14ca <vPortYield>
		}
		else
		{
			mtCOVERAGE_TEST_MARKER();
		}
	}
    1d86:	df 91       	pop	r29
    1d88:	cf 91       	pop	r28
    1d8a:	08 95       	ret

00001d8c <vTaskSwitchContext>:
#endif /* configUSE_APPLICATION_TASK_TAG */
/*-----------------------------------------------------------*/

void vTaskSwitchContext( void )
{
	if( uxSchedulerSuspended != ( UBaseType_t ) pdFALSE )
    1d8c:	80 91 70 93 	lds	r24, 0x9370	; 0x809370 <uxSchedulerSuspended>
    1d90:	88 23       	and	r24, r24
    1d92:	21 f0       	breq	.+8      	; 0x1d9c <vTaskSwitchContext+0x10>
	{
		/* The scheduler is currently suspended - do not allow a context
		switch. */
		xYieldPending = pdTRUE;
    1d94:	81 e0       	ldi	r24, 0x01	; 1
    1d96:	80 93 73 93 	sts	0x9373, r24	; 0x809373 <xYieldPending>
    1d9a:	08 95       	ret
	}
	else
	{
		xYieldPending = pdFALSE;
    1d9c:	10 92 73 93 	sts	0x9373, r1	; 0x809373 <xYieldPending>
		taskFIRST_CHECK_FOR_STACK_OVERFLOW();
		taskSECOND_CHECK_FOR_STACK_OVERFLOW();

		/* Select a new task to run using either the generic C or port
		optimised asm code. */
		taskSELECT_HIGHEST_PRIORITY_TASK();
    1da0:	80 91 76 93 	lds	r24, 0x9376	; 0x809376 <uxTopReadyPriority>
    1da4:	90 e0       	ldi	r25, 0x00	; 0
    1da6:	fc 01       	movw	r30, r24
    1da8:	ee 0f       	add	r30, r30
    1daa:	ff 1f       	adc	r31, r31
    1dac:	ee 0f       	add	r30, r30
    1dae:	ff 1f       	adc	r31, r31
    1db0:	ee 0f       	add	r30, r30
    1db2:	ff 1f       	adc	r31, r31
    1db4:	8e 0f       	add	r24, r30
    1db6:	9f 1f       	adc	r25, r31
    1db8:	fc 01       	movw	r30, r24
    1dba:	e7 56       	subi	r30, 0x67	; 103
    1dbc:	fc 46       	sbci	r31, 0x6C	; 108
    1dbe:	80 81       	ld	r24, Z
    1dc0:	81 11       	cpse	r24, r1
    1dc2:	17 c0       	rjmp	.+46     	; 0x1df2 <vTaskSwitchContext+0x66>
    1dc4:	80 91 76 93 	lds	r24, 0x9376	; 0x809376 <uxTopReadyPriority>
    1dc8:	81 50       	subi	r24, 0x01	; 1
    1dca:	80 93 76 93 	sts	0x9376, r24	; 0x809376 <uxTopReadyPriority>
    1dce:	80 91 76 93 	lds	r24, 0x9376	; 0x809376 <uxTopReadyPriority>
    1dd2:	90 e0       	ldi	r25, 0x00	; 0
    1dd4:	fc 01       	movw	r30, r24
    1dd6:	ee 0f       	add	r30, r30
    1dd8:	ff 1f       	adc	r31, r31
    1dda:	ee 0f       	add	r30, r30
    1ddc:	ff 1f       	adc	r31, r31
    1dde:	ee 0f       	add	r30, r30
    1de0:	ff 1f       	adc	r31, r31
    1de2:	8e 0f       	add	r24, r30
    1de4:	9f 1f       	adc	r25, r31
    1de6:	fc 01       	movw	r30, r24
    1de8:	e7 56       	subi	r30, 0x67	; 103
    1dea:	fc 46       	sbci	r31, 0x6C	; 108
    1dec:	80 81       	ld	r24, Z
    1dee:	88 23       	and	r24, r24
    1df0:	49 f3       	breq	.-46     	; 0x1dc4 <vTaskSwitchContext+0x38>
    1df2:	80 91 76 93 	lds	r24, 0x9376	; 0x809376 <uxTopReadyPriority>
    1df6:	90 e0       	ldi	r25, 0x00	; 0
    1df8:	9c 01       	movw	r18, r24
    1dfa:	22 0f       	add	r18, r18
    1dfc:	33 1f       	adc	r19, r19
    1dfe:	22 0f       	add	r18, r18
    1e00:	33 1f       	adc	r19, r19
    1e02:	22 0f       	add	r18, r18
    1e04:	33 1f       	adc	r19, r19
    1e06:	28 0f       	add	r18, r24
    1e08:	39 1f       	adc	r19, r25
    1e0a:	d9 01       	movw	r26, r18
    1e0c:	a7 56       	subi	r26, 0x67	; 103
    1e0e:	bc 46       	sbci	r27, 0x6C	; 108
    1e10:	11 96       	adiw	r26, 0x01	; 1
    1e12:	ed 91       	ld	r30, X+
    1e14:	fc 91       	ld	r31, X
    1e16:	12 97       	sbiw	r26, 0x02	; 2
    1e18:	02 80       	ldd	r0, Z+2	; 0x02
    1e1a:	f3 81       	ldd	r31, Z+3	; 0x03
    1e1c:	e0 2d       	mov	r30, r0
    1e1e:	11 96       	adiw	r26, 0x01	; 1
    1e20:	ed 93       	st	X+, r30
    1e22:	fc 93       	st	X, r31
    1e24:	12 97       	sbiw	r26, 0x02	; 2
    1e26:	24 56       	subi	r18, 0x64	; 100
    1e28:	3c 46       	sbci	r19, 0x6C	; 108
    1e2a:	e2 17       	cp	r30, r18
    1e2c:	f3 07       	cpc	r31, r19
    1e2e:	29 f4       	brne	.+10     	; 0x1e3a <vTaskSwitchContext+0xae>
    1e30:	22 81       	ldd	r18, Z+2	; 0x02
    1e32:	33 81       	ldd	r19, Z+3	; 0x03
    1e34:	fd 01       	movw	r30, r26
    1e36:	21 83       	std	Z+1, r18	; 0x01
    1e38:	32 83       	std	Z+2, r19	; 0x02
    1e3a:	fc 01       	movw	r30, r24
    1e3c:	ee 0f       	add	r30, r30
    1e3e:	ff 1f       	adc	r31, r31
    1e40:	ee 0f       	add	r30, r30
    1e42:	ff 1f       	adc	r31, r31
    1e44:	ee 0f       	add	r30, r30
    1e46:	ff 1f       	adc	r31, r31
    1e48:	8e 0f       	add	r24, r30
    1e4a:	9f 1f       	adc	r25, r31
    1e4c:	fc 01       	movw	r30, r24
    1e4e:	e7 56       	subi	r30, 0x67	; 103
    1e50:	fc 46       	sbci	r31, 0x6C	; 108
    1e52:	01 80       	ldd	r0, Z+1	; 0x01
    1e54:	f2 81       	ldd	r31, Z+2	; 0x02
    1e56:	e0 2d       	mov	r30, r0
    1e58:	86 81       	ldd	r24, Z+6	; 0x06
    1e5a:	97 81       	ldd	r25, Z+7	; 0x07
    1e5c:	80 93 bd 93 	sts	0x93BD, r24	; 0x8093bd <pxCurrentTCB>
    1e60:	90 93 be 93 	sts	0x93BE, r25	; 0x8093be <pxCurrentTCB+0x1>
    1e64:	08 95       	ret

00001e66 <CDC_Device_ConfigureEndpoints>:
    1e66:	cf 93       	push	r28
    1e68:	df 93       	push	r29
    1e6a:	ec 01       	movw	r28, r24
    1e6c:	fc 01       	movw	r30, r24
    1e6e:	70 96       	adiw	r30, 0x10	; 16
    1e70:	8b e0       	ldi	r24, 0x0B	; 11
    1e72:	df 01       	movw	r26, r30
    1e74:	1d 92       	st	X+, r1
    1e76:	8a 95       	dec	r24
    1e78:	e9 f7       	brne	.-6      	; 0x1e74 <CDC_Device_ConfigureEndpoints+0xe>
    1e7a:	82 e0       	ldi	r24, 0x02	; 2
    1e7c:	8c 83       	std	Y+4, r24	; 0x04
    1e7e:	89 87       	std	Y+9, r24	; 0x09
    1e80:	83 e0       	ldi	r24, 0x03	; 3
    1e82:	8e 87       	std	Y+14, r24	; 0x0e
    1e84:	61 e0       	ldi	r22, 0x01	; 1
    1e86:	ce 01       	movw	r24, r28
    1e88:	01 96       	adiw	r24, 0x01	; 1
    1e8a:	0e 94 29 15 	call	0x2a52	; 0x2a52 <Endpoint_ConfigureEndpointTable>
    1e8e:	88 23       	and	r24, r24
    1e90:	61 f0       	breq	.+24     	; 0x1eaa <CDC_Device_ConfigureEndpoints+0x44>
    1e92:	61 e0       	ldi	r22, 0x01	; 1
    1e94:	ce 01       	movw	r24, r28
    1e96:	06 96       	adiw	r24, 0x06	; 6
    1e98:	0e 94 29 15 	call	0x2a52	; 0x2a52 <Endpoint_ConfigureEndpointTable>
    1e9c:	88 23       	and	r24, r24
    1e9e:	29 f0       	breq	.+10     	; 0x1eaa <CDC_Device_ConfigureEndpoints+0x44>
    1ea0:	61 e0       	ldi	r22, 0x01	; 1
    1ea2:	ce 01       	movw	r24, r28
    1ea4:	0b 96       	adiw	r24, 0x0b	; 11
    1ea6:	0e 94 29 15 	call	0x2a52	; 0x2a52 <Endpoint_ConfigureEndpointTable>
    1eaa:	df 91       	pop	r29
    1eac:	cf 91       	pop	r28
    1eae:	08 95       	ret

00001eb0 <CDC_Device_SendByte>:
    1eb0:	cf 93       	push	r28
    1eb2:	fc 01       	movw	r30, r24
    1eb4:	90 91 dd 95 	lds	r25, 0x95DD	; 0x8095dd <USB_DeviceState>
    1eb8:	94 30       	cpi	r25, 0x04	; 4
    1eba:	19 f5       	brne	.+70     	; 0x1f02 <CDC_Device_SendByte+0x52>
    1ebc:	84 89       	ldd	r24, Z+20	; 0x14
    1ebe:	95 89       	ldd	r25, Z+21	; 0x15
    1ec0:	a6 89       	ldd	r26, Z+22	; 0x16
    1ec2:	b7 89       	ldd	r27, Z+23	; 0x17
    1ec4:	89 2b       	or	r24, r25
    1ec6:	8a 2b       	or	r24, r26
    1ec8:	8b 2b       	or	r24, r27
    1eca:	e9 f0       	breq	.+58     	; 0x1f06 <CDC_Device_SendByte+0x56>
    1ecc:	c6 2f       	mov	r28, r22
    1ece:	81 81       	ldd	r24, Z+1	; 0x01
    1ed0:	0e 94 18 14 	call	0x2830	; 0x2830 <Endpoint_SelectEndpoint>
    1ed4:	80 91 e6 95 	lds	r24, 0x95E6	; 0x8095e6 <USB_Endpoint_SelectedFIFO>
    1ed8:	90 91 e7 95 	lds	r25, 0x95E7	; 0x8095e7 <USB_Endpoint_SelectedFIFO+0x1>
    1edc:	fc 01       	movw	r30, r24
    1ede:	ef 5b       	subi	r30, 0xBF	; 191
    1ee0:	ff 4f       	sbci	r31, 0xFF	; 255
    1ee2:	20 81       	ld	r18, Z
    1ee4:	31 97       	sbiw	r30, 0x01	; 1
    1ee6:	80 81       	ld	r24, Z
    1ee8:	28 17       	cp	r18, r24
    1eea:	30 f0       	brcs	.+12     	; 0x1ef8 <CDC_Device_SendByte+0x48>
    1eec:	0e 94 d0 13 	call	0x27a0	; 0x27a0 <Endpoint_ClearIN>
    1ef0:	0e 94 d8 15 	call	0x2bb0	; 0x2bb0 <Endpoint_WaitUntilReady>
    1ef4:	81 11       	cpse	r24, r1
    1ef6:	08 c0       	rjmp	.+16     	; 0x1f08 <CDC_Device_SendByte+0x58>
    1ef8:	8c 2f       	mov	r24, r28
    1efa:	0e 94 08 14 	call	0x2810	; 0x2810 <Endpoint_Write_8>
    1efe:	80 e0       	ldi	r24, 0x00	; 0
    1f00:	03 c0       	rjmp	.+6      	; 0x1f08 <CDC_Device_SendByte+0x58>
    1f02:	82 e0       	ldi	r24, 0x02	; 2
    1f04:	01 c0       	rjmp	.+2      	; 0x1f08 <CDC_Device_SendByte+0x58>
    1f06:	82 e0       	ldi	r24, 0x02	; 2
    1f08:	cf 91       	pop	r28
    1f0a:	08 95       	ret

00001f0c <CDC_Device_putchar>:
    1f0c:	fb 01       	movw	r30, r22
    1f0e:	68 2f       	mov	r22, r24
    1f10:	84 85       	ldd	r24, Z+12	; 0x0c
    1f12:	95 85       	ldd	r25, Z+13	; 0x0d
    1f14:	0e 94 58 0f 	call	0x1eb0	; 0x1eb0 <CDC_Device_SendByte>
    1f18:	21 e0       	ldi	r18, 0x01	; 1
    1f1a:	30 e0       	ldi	r19, 0x00	; 0
    1f1c:	81 11       	cpse	r24, r1
    1f1e:	02 c0       	rjmp	.+4      	; 0x1f24 <CDC_Device_putchar+0x18>
    1f20:	20 e0       	ldi	r18, 0x00	; 0
    1f22:	30 e0       	ldi	r19, 0x00	; 0
    1f24:	88 27       	eor	r24, r24
    1f26:	99 27       	eor	r25, r25
    1f28:	82 1b       	sub	r24, r18
    1f2a:	93 0b       	sbc	r25, r19
    1f2c:	08 95       	ret

00001f2e <CDC_Device_Flush>:
    1f2e:	cf 93       	push	r28
    1f30:	df 93       	push	r29
    1f32:	fc 01       	movw	r30, r24
    1f34:	90 91 dd 95 	lds	r25, 0x95DD	; 0x8095dd <USB_DeviceState>
    1f38:	94 30       	cpi	r25, 0x04	; 4
    1f3a:	f1 f5       	brne	.+124    	; 0x1fb8 <CDC_Device_Flush+0x8a>
    1f3c:	84 89       	ldd	r24, Z+20	; 0x14
    1f3e:	95 89       	ldd	r25, Z+21	; 0x15
    1f40:	a6 89       	ldd	r26, Z+22	; 0x16
    1f42:	b7 89       	ldd	r27, Z+23	; 0x17
    1f44:	89 2b       	or	r24, r25
    1f46:	8a 2b       	or	r24, r26
    1f48:	8b 2b       	or	r24, r27
    1f4a:	c1 f1       	breq	.+112    	; 0x1fbc <CDC_Device_Flush+0x8e>
    1f4c:	81 81       	ldd	r24, Z+1	; 0x01
    1f4e:	0e 94 18 14 	call	0x2830	; 0x2830 <Endpoint_SelectEndpoint>
    1f52:	80 91 ea 95 	lds	r24, 0x95EA	; 0x8095ea <USB_Endpoint_SelectedEndpoint>
    1f56:	88 23       	and	r24, r24
    1f58:	4c f4       	brge	.+18     	; 0x1f6c <CDC_Device_Flush+0x3e>
    1f5a:	e0 91 e6 95 	lds	r30, 0x95E6	; 0x8095e6 <USB_Endpoint_SelectedFIFO>
    1f5e:	f0 91 e7 95 	lds	r31, 0x95E7	; 0x8095e7 <USB_Endpoint_SelectedFIFO+0x1>
    1f62:	ef 5b       	subi	r30, 0xBF	; 191
    1f64:	ff 4f       	sbci	r31, 0xFF	; 255
    1f66:	80 81       	ld	r24, Z
    1f68:	90 e0       	ldi	r25, 0x00	; 0
    1f6a:	0d c0       	rjmp	.+26     	; 0x1f86 <CDC_Device_Flush+0x58>
    1f6c:	20 91 e6 95 	lds	r18, 0x95E6	; 0x8095e6 <USB_Endpoint_SelectedFIFO>
    1f70:	30 91 e7 95 	lds	r19, 0x95E7	; 0x8095e7 <USB_Endpoint_SelectedFIFO+0x1>
    1f74:	f9 01       	movw	r30, r18
    1f76:	e0 5c       	subi	r30, 0xC0	; 192
    1f78:	ff 4f       	sbci	r31, 0xFF	; 255
    1f7a:	80 81       	ld	r24, Z
    1f7c:	31 96       	adiw	r30, 0x01	; 1
    1f7e:	20 81       	ld	r18, Z
    1f80:	90 e0       	ldi	r25, 0x00	; 0
    1f82:	82 1b       	sub	r24, r18
    1f84:	91 09       	sbc	r25, r1
    1f86:	89 2b       	or	r24, r25
    1f88:	d9 f0       	breq	.+54     	; 0x1fc0 <CDC_Device_Flush+0x92>
    1f8a:	80 91 e6 95 	lds	r24, 0x95E6	; 0x8095e6 <USB_Endpoint_SelectedFIFO>
    1f8e:	90 91 e7 95 	lds	r25, 0x95E7	; 0x8095e7 <USB_Endpoint_SelectedFIFO+0x1>
    1f92:	fc 01       	movw	r30, r24
    1f94:	ef 5b       	subi	r30, 0xBF	; 191
    1f96:	ff 4f       	sbci	r31, 0xFF	; 255
    1f98:	d0 81       	ld	r29, Z
    1f9a:	31 97       	sbiw	r30, 0x01	; 1
    1f9c:	c0 81       	ld	r28, Z
    1f9e:	0e 94 d0 13 	call	0x27a0	; 0x27a0 <Endpoint_ClearIN>
    1fa2:	dc 17       	cp	r29, r28
    1fa4:	78 f0       	brcs	.+30     	; 0x1fc4 <CDC_Device_Flush+0x96>
    1fa6:	0e 94 d8 15 	call	0x2bb0	; 0x2bb0 <Endpoint_WaitUntilReady>
    1faa:	c8 2f       	mov	r28, r24
    1fac:	81 11       	cpse	r24, r1
    1fae:	0c c0       	rjmp	.+24     	; 0x1fc8 <CDC_Device_Flush+0x9a>
    1fb0:	0e 94 d0 13 	call	0x27a0	; 0x27a0 <Endpoint_ClearIN>
    1fb4:	8c 2f       	mov	r24, r28
    1fb6:	08 c0       	rjmp	.+16     	; 0x1fc8 <CDC_Device_Flush+0x9a>
    1fb8:	82 e0       	ldi	r24, 0x02	; 2
    1fba:	06 c0       	rjmp	.+12     	; 0x1fc8 <CDC_Device_Flush+0x9a>
    1fbc:	82 e0       	ldi	r24, 0x02	; 2
    1fbe:	04 c0       	rjmp	.+8      	; 0x1fc8 <CDC_Device_Flush+0x9a>
    1fc0:	80 e0       	ldi	r24, 0x00	; 0
    1fc2:	02 c0       	rjmp	.+4      	; 0x1fc8 <CDC_Device_Flush+0x9a>
    1fc4:	80 e0       	ldi	r24, 0x00	; 0
    1fc6:	00 c0       	rjmp	.+0      	; 0x1fc8 <CDC_Device_Flush+0x9a>
    1fc8:	df 91       	pop	r29
    1fca:	cf 91       	pop	r28
    1fcc:	08 95       	ret

00001fce <CDC_Device_USBTask>:
    1fce:	cf 93       	push	r28
    1fd0:	df 93       	push	r29
    1fd2:	fc 01       	movw	r30, r24
    1fd4:	90 91 dd 95 	lds	r25, 0x95DD	; 0x8095dd <USB_DeviceState>
    1fd8:	94 30       	cpi	r25, 0x04	; 4
    1fda:	99 f4       	brne	.+38     	; 0x2002 <CDC_Device_USBTask+0x34>
    1fdc:	84 89       	ldd	r24, Z+20	; 0x14
    1fde:	95 89       	ldd	r25, Z+21	; 0x15
    1fe0:	a6 89       	ldd	r26, Z+22	; 0x16
    1fe2:	b7 89       	ldd	r27, Z+23	; 0x17
    1fe4:	89 2b       	or	r24, r25
    1fe6:	8a 2b       	or	r24, r26
    1fe8:	8b 2b       	or	r24, r27
    1fea:	59 f0       	breq	.+22     	; 0x2002 <CDC_Device_USBTask+0x34>
    1fec:	ef 01       	movw	r28, r30
    1fee:	81 81       	ldd	r24, Z+1	; 0x01
    1ff0:	0e 94 18 14 	call	0x2830	; 0x2830 <Endpoint_SelectEndpoint>
    1ff4:	0e 94 58 14 	call	0x28b0	; 0x28b0 <Endpoint_IsINReady>
    1ff8:	88 23       	and	r24, r24
    1ffa:	19 f0       	breq	.+6      	; 0x2002 <CDC_Device_USBTask+0x34>
    1ffc:	ce 01       	movw	r24, r28
    1ffe:	0e 94 97 0f 	call	0x1f2e	; 0x1f2e <CDC_Device_Flush>
    2002:	df 91       	pop	r29
    2004:	cf 91       	pop	r28
    2006:	08 95       	ret

00002008 <CDC_Device_ReceiveByte>:
    2008:	cf 93       	push	r28
    200a:	df 93       	push	r29
    200c:	20 91 dd 95 	lds	r18, 0x95DD	; 0x8095dd <USB_DeviceState>
    2010:	24 30       	cpi	r18, 0x04	; 4
    2012:	09 f0       	breq	.+2      	; 0x2016 <CDC_Device_ReceiveByte+0xe>
    2014:	56 c0       	rjmp	.+172    	; 0x20c2 <CDC_Device_ReceiveByte+0xba>
    2016:	fc 01       	movw	r30, r24
    2018:	44 89       	ldd	r20, Z+20	; 0x14
    201a:	55 89       	ldd	r21, Z+21	; 0x15
    201c:	66 89       	ldd	r22, Z+22	; 0x16
    201e:	77 89       	ldd	r23, Z+23	; 0x17
    2020:	45 2b       	or	r20, r21
    2022:	46 2b       	or	r20, r22
    2024:	47 2b       	or	r20, r23
    2026:	09 f4       	brne	.+2      	; 0x202a <CDC_Device_ReceiveByte+0x22>
    2028:	4f c0       	rjmp	.+158    	; 0x20c8 <CDC_Device_ReceiveByte+0xc0>
    202a:	86 81       	ldd	r24, Z+6	; 0x06
    202c:	0e 94 18 14 	call	0x2830	; 0x2830 <Endpoint_SelectEndpoint>
    2030:	0e 94 65 14 	call	0x28ca	; 0x28ca <Endpoint_IsOUTReceived>
    2034:	88 23       	and	r24, r24
    2036:	09 f4       	brne	.+2      	; 0x203a <CDC_Device_ReceiveByte+0x32>
    2038:	4a c0       	rjmp	.+148    	; 0x20ce <CDC_Device_ReceiveByte+0xc6>
    203a:	80 91 ea 95 	lds	r24, 0x95EA	; 0x8095ea <USB_Endpoint_SelectedEndpoint>
    203e:	88 23       	and	r24, r24
    2040:	4c f4       	brge	.+18     	; 0x2054 <CDC_Device_ReceiveByte+0x4c>
    2042:	e0 91 e6 95 	lds	r30, 0x95E6	; 0x8095e6 <USB_Endpoint_SelectedFIFO>
    2046:	f0 91 e7 95 	lds	r31, 0x95E7	; 0x8095e7 <USB_Endpoint_SelectedFIFO+0x1>
    204a:	ef 5b       	subi	r30, 0xBF	; 191
    204c:	ff 4f       	sbci	r31, 0xFF	; 255
    204e:	80 81       	ld	r24, Z
    2050:	90 e0       	ldi	r25, 0x00	; 0
    2052:	0d c0       	rjmp	.+26     	; 0x206e <CDC_Device_ReceiveByte+0x66>
    2054:	20 91 e6 95 	lds	r18, 0x95E6	; 0x8095e6 <USB_Endpoint_SelectedFIFO>
    2058:	30 91 e7 95 	lds	r19, 0x95E7	; 0x8095e7 <USB_Endpoint_SelectedFIFO+0x1>
    205c:	f9 01       	movw	r30, r18
    205e:	e0 5c       	subi	r30, 0xC0	; 192
    2060:	ff 4f       	sbci	r31, 0xFF	; 255
    2062:	80 81       	ld	r24, Z
    2064:	31 96       	adiw	r30, 0x01	; 1
    2066:	20 81       	ld	r18, Z
    2068:	90 e0       	ldi	r25, 0x00	; 0
    206a:	82 1b       	sub	r24, r18
    206c:	91 09       	sbc	r25, r1
    206e:	89 2b       	or	r24, r25
    2070:	29 f0       	breq	.+10     	; 0x207c <CDC_Device_ReceiveByte+0x74>
    2072:	0e 94 f8 13 	call	0x27f0	; 0x27f0 <Endpoint_Read_8>
    2076:	c8 2f       	mov	r28, r24
    2078:	d0 e0       	ldi	r29, 0x00	; 0
    207a:	02 c0       	rjmp	.+4      	; 0x2080 <CDC_Device_ReceiveByte+0x78>
    207c:	cf ef       	ldi	r28, 0xFF	; 255
    207e:	df ef       	ldi	r29, 0xFF	; 255
    2080:	80 91 ea 95 	lds	r24, 0x95EA	; 0x8095ea <USB_Endpoint_SelectedEndpoint>
    2084:	88 23       	and	r24, r24
    2086:	4c f4       	brge	.+18     	; 0x209a <CDC_Device_ReceiveByte+0x92>
    2088:	e0 91 e6 95 	lds	r30, 0x95E6	; 0x8095e6 <USB_Endpoint_SelectedFIFO>
    208c:	f0 91 e7 95 	lds	r31, 0x95E7	; 0x8095e7 <USB_Endpoint_SelectedFIFO+0x1>
    2090:	ef 5b       	subi	r30, 0xBF	; 191
    2092:	ff 4f       	sbci	r31, 0xFF	; 255
    2094:	20 81       	ld	r18, Z
    2096:	30 e0       	ldi	r19, 0x00	; 0
    2098:	0d c0       	rjmp	.+26     	; 0x20b4 <CDC_Device_ReceiveByte+0xac>
    209a:	40 91 e6 95 	lds	r20, 0x95E6	; 0x8095e6 <USB_Endpoint_SelectedFIFO>
    209e:	50 91 e7 95 	lds	r21, 0x95E7	; 0x8095e7 <USB_Endpoint_SelectedFIFO+0x1>
    20a2:	fa 01       	movw	r30, r20
    20a4:	e0 5c       	subi	r30, 0xC0	; 192
    20a6:	ff 4f       	sbci	r31, 0xFF	; 255
    20a8:	20 81       	ld	r18, Z
    20aa:	31 96       	adiw	r30, 0x01	; 1
    20ac:	80 81       	ld	r24, Z
    20ae:	30 e0       	ldi	r19, 0x00	; 0
    20b0:	28 1b       	sub	r18, r24
    20b2:	31 09       	sbc	r19, r1
    20b4:	23 2b       	or	r18, r19
    20b6:	71 f4       	brne	.+28     	; 0x20d4 <CDC_Device_ReceiveByte+0xcc>
    20b8:	0e 94 e9 13 	call	0x27d2	; 0x27d2 <Endpoint_ClearOUT>
    20bc:	8c 2f       	mov	r24, r28
    20be:	9d 2f       	mov	r25, r29
    20c0:	0b c0       	rjmp	.+22     	; 0x20d8 <CDC_Device_ReceiveByte+0xd0>
    20c2:	8f ef       	ldi	r24, 0xFF	; 255
    20c4:	9f ef       	ldi	r25, 0xFF	; 255
    20c6:	08 c0       	rjmp	.+16     	; 0x20d8 <CDC_Device_ReceiveByte+0xd0>
    20c8:	8f ef       	ldi	r24, 0xFF	; 255
    20ca:	9f ef       	ldi	r25, 0xFF	; 255
    20cc:	05 c0       	rjmp	.+10     	; 0x20d8 <CDC_Device_ReceiveByte+0xd0>
    20ce:	8f ef       	ldi	r24, 0xFF	; 255
    20d0:	9f ef       	ldi	r25, 0xFF	; 255
    20d2:	02 c0       	rjmp	.+4      	; 0x20d8 <CDC_Device_ReceiveByte+0xd0>
    20d4:	8c 2f       	mov	r24, r28
    20d6:	9d 2f       	mov	r25, r29
    20d8:	df 91       	pop	r29
    20da:	cf 91       	pop	r28
    20dc:	08 95       	ret

000020de <CDC_Device_getchar>:
    20de:	fc 01       	movw	r30, r24
    20e0:	84 85       	ldd	r24, Z+12	; 0x0c
    20e2:	95 85       	ldd	r25, Z+13	; 0x0d
    20e4:	0e 94 04 10 	call	0x2008	; 0x2008 <CDC_Device_ReceiveByte>
    20e8:	99 23       	and	r25, r25
    20ea:	14 f4       	brge	.+4      	; 0x20f0 <CDC_Device_getchar+0x12>
    20ec:	8e ef       	ldi	r24, 0xFE	; 254
    20ee:	9f ef       	ldi	r25, 0xFF	; 255
    20f0:	08 95       	ret

000020f2 <CDC_Device_CreateStream>:
    20f2:	fb 01       	movw	r30, r22
    20f4:	2e e0       	ldi	r18, 0x0E	; 14
    20f6:	db 01       	movw	r26, r22
    20f8:	1d 92       	st	X+, r1
    20fa:	2a 95       	dec	r18
    20fc:	e9 f7       	brne	.-6      	; 0x20f8 <CDC_Device_CreateStream+0x6>
    20fe:	23 e0       	ldi	r18, 0x03	; 3
    2100:	23 83       	std	Z+3, r18	; 0x03
    2102:	26 e8       	ldi	r18, 0x86	; 134
    2104:	3f e0       	ldi	r19, 0x0F	; 15
    2106:	20 87       	std	Z+8, r18	; 0x08
    2108:	31 87       	std	Z+9, r19	; 0x09
    210a:	2f e6       	ldi	r18, 0x6F	; 111
    210c:	30 e1       	ldi	r19, 0x10	; 16
    210e:	22 87       	std	Z+10, r18	; 0x0a
    2110:	33 87       	std	Z+11, r19	; 0x0b
    2112:	84 87       	std	Z+12, r24	; 0x0c
    2114:	95 87       	std	Z+13, r25	; 0x0d
    2116:	08 95       	ret

00002118 <CDC_Device_Event_Stub>:
    2118:	08 95       	ret

0000211a <CDC_Device_ProcessControlRequest>:
    211a:	ff 92       	push	r15
    211c:	0f 93       	push	r16
    211e:	1f 93       	push	r17
    2120:	cf 93       	push	r28
    2122:	df 93       	push	r29
    2124:	ec 01       	movw	r28, r24
    2126:	0e 94 7f 14 	call	0x28fe	; 0x28fe <Endpoint_IsSETUPReceived>
    212a:	88 23       	and	r24, r24
    212c:	09 f4       	brne	.+2      	; 0x2130 <CDC_Device_ProcessControlRequest+0x16>
    212e:	9b c0       	rjmp	.+310    	; 0x2266 <CDC_Device_ProcessControlRequest+0x14c>
    2130:	28 81       	ld	r18, Y
    2132:	30 e0       	ldi	r19, 0x00	; 0
    2134:	80 91 e2 95 	lds	r24, 0x95E2	; 0x8095e2 <USB_ControlRequest+0x4>
    2138:	90 91 e3 95 	lds	r25, 0x95E3	; 0x8095e3 <USB_ControlRequest+0x5>
    213c:	82 17       	cp	r24, r18
    213e:	93 07       	cpc	r25, r19
    2140:	09 f0       	breq	.+2      	; 0x2144 <CDC_Device_ProcessControlRequest+0x2a>
    2142:	91 c0       	rjmp	.+290    	; 0x2266 <CDC_Device_ProcessControlRequest+0x14c>
    2144:	80 91 df 95 	lds	r24, 0x95DF	; 0x8095df <USB_ControlRequest+0x1>
    2148:	81 32       	cpi	r24, 0x21	; 33
    214a:	59 f0       	breq	.+22     	; 0x2162 <CDC_Device_ProcessControlRequest+0x48>
    214c:	18 f4       	brcc	.+6      	; 0x2154 <CDC_Device_ProcessControlRequest+0x3a>
    214e:	80 32       	cpi	r24, 0x20	; 32
    2150:	81 f1       	breq	.+96     	; 0x21b2 <CDC_Device_ProcessControlRequest+0x98>
    2152:	89 c0       	rjmp	.+274    	; 0x2266 <CDC_Device_ProcessControlRequest+0x14c>
    2154:	82 32       	cpi	r24, 0x22	; 34
    2156:	09 f4       	brne	.+2      	; 0x215a <CDC_Device_ProcessControlRequest+0x40>
    2158:	67 c0       	rjmp	.+206    	; 0x2228 <CDC_Device_ProcessControlRequest+0x10e>
    215a:	83 32       	cpi	r24, 0x23	; 35
    215c:	09 f4       	brne	.+2      	; 0x2160 <CDC_Device_ProcessControlRequest+0x46>
    215e:	76 c0       	rjmp	.+236    	; 0x224c <CDC_Device_ProcessControlRequest+0x132>
    2160:	82 c0       	rjmp	.+260    	; 0x2266 <CDC_Device_ProcessControlRequest+0x14c>
    2162:	80 91 de 95 	lds	r24, 0x95DE	; 0x8095de <USB_ControlRequest>
    2166:	81 3a       	cpi	r24, 0xA1	; 161
    2168:	09 f0       	breq	.+2      	; 0x216c <CDC_Device_ProcessControlRequest+0x52>
    216a:	7d c0       	rjmp	.+250    	; 0x2266 <CDC_Device_ProcessControlRequest+0x14c>
    216c:	0e 94 99 14 	call	0x2932	; 0x2932 <Endpoint_ClearSETUP>
    2170:	0e 94 58 14 	call	0x28b0	; 0x28b0 <Endpoint_IsINReady>
    2174:	88 23       	and	r24, r24
    2176:	e1 f3       	breq	.-8      	; 0x2170 <CDC_Device_ProcessControlRequest+0x56>
    2178:	8c 89       	ldd	r24, Y+20	; 0x14
    217a:	fd 88       	ldd	r15, Y+21	; 0x15
    217c:	0e 89       	ldd	r16, Y+22	; 0x16
    217e:	1f 89       	ldd	r17, Y+23	; 0x17
    2180:	0e 94 08 14 	call	0x2810	; 0x2810 <Endpoint_Write_8>
    2184:	8f 2d       	mov	r24, r15
    2186:	0e 94 08 14 	call	0x2810	; 0x2810 <Endpoint_Write_8>
    218a:	80 2f       	mov	r24, r16
    218c:	0e 94 08 14 	call	0x2810	; 0x2810 <Endpoint_Write_8>
    2190:	81 2f       	mov	r24, r17
    2192:	0e 94 08 14 	call	0x2810	; 0x2810 <Endpoint_Write_8>
    2196:	88 8d       	ldd	r24, Y+24	; 0x18
    2198:	0e 94 08 14 	call	0x2810	; 0x2810 <Endpoint_Write_8>
    219c:	89 8d       	ldd	r24, Y+25	; 0x19
    219e:	0e 94 08 14 	call	0x2810	; 0x2810 <Endpoint_Write_8>
    21a2:	8a 8d       	ldd	r24, Y+26	; 0x1a
    21a4:	0e 94 08 14 	call	0x2810	; 0x2810 <Endpoint_Write_8>
    21a8:	0e 94 d0 13 	call	0x27a0	; 0x27a0 <Endpoint_ClearIN>
    21ac:	0e 94 bd 15 	call	0x2b7a	; 0x2b7a <Endpoint_ClearStatusStage>
    21b0:	5a c0       	rjmp	.+180    	; 0x2266 <CDC_Device_ProcessControlRequest+0x14c>
    21b2:	80 91 de 95 	lds	r24, 0x95DE	; 0x8095de <USB_ControlRequest>
    21b6:	81 32       	cpi	r24, 0x21	; 33
    21b8:	09 f0       	breq	.+2      	; 0x21bc <CDC_Device_ProcessControlRequest+0xa2>
    21ba:	55 c0       	rjmp	.+170    	; 0x2266 <CDC_Device_ProcessControlRequest+0x14c>
    21bc:	0e 94 99 14 	call	0x2932	; 0x2932 <Endpoint_ClearSETUP>
    21c0:	05 c0       	rjmp	.+10     	; 0x21cc <CDC_Device_ProcessControlRequest+0xb2>
    21c2:	80 91 dd 95 	lds	r24, 0x95DD	; 0x8095dd <USB_DeviceState>
    21c6:	88 23       	and	r24, r24
    21c8:	09 f4       	brne	.+2      	; 0x21cc <CDC_Device_ProcessControlRequest+0xb2>
    21ca:	4d c0       	rjmp	.+154    	; 0x2266 <CDC_Device_ProcessControlRequest+0x14c>
    21cc:	0e 94 65 14 	call	0x28ca	; 0x28ca <Endpoint_IsOUTReceived>
    21d0:	88 23       	and	r24, r24
    21d2:	b9 f3       	breq	.-18     	; 0x21c2 <CDC_Device_ProcessControlRequest+0xa8>
    21d4:	0e 94 f8 13 	call	0x27f0	; 0x27f0 <Endpoint_Read_8>
    21d8:	f8 2e       	mov	r15, r24
    21da:	0e 94 f8 13 	call	0x27f0	; 0x27f0 <Endpoint_Read_8>
    21de:	18 2f       	mov	r17, r24
    21e0:	0e 94 f8 13 	call	0x27f0	; 0x27f0 <Endpoint_Read_8>
    21e4:	08 2f       	mov	r16, r24
    21e6:	0e 94 f8 13 	call	0x27f0	; 0x27f0 <Endpoint_Read_8>
    21ea:	40 2f       	mov	r20, r16
    21ec:	50 e0       	ldi	r21, 0x00	; 0
    21ee:	60 e0       	ldi	r22, 0x00	; 0
    21f0:	70 e0       	ldi	r23, 0x00	; 0
    21f2:	ba 01       	movw	r22, r20
    21f4:	55 27       	eor	r21, r21
    21f6:	44 27       	eor	r20, r20
    21f8:	78 2b       	or	r23, r24
    21fa:	4f 29       	or	r20, r15
    21fc:	51 2b       	or	r21, r17
    21fe:	4c 8b       	std	Y+20, r20	; 0x14
    2200:	5d 8b       	std	Y+21, r21	; 0x15
    2202:	6e 8b       	std	Y+22, r22	; 0x16
    2204:	7f 8b       	std	Y+23, r23	; 0x17
    2206:	0e 94 f8 13 	call	0x27f0	; 0x27f0 <Endpoint_Read_8>
    220a:	88 8f       	std	Y+24, r24	; 0x18
    220c:	0e 94 f8 13 	call	0x27f0	; 0x27f0 <Endpoint_Read_8>
    2210:	89 8f       	std	Y+25, r24	; 0x19
    2212:	0e 94 f8 13 	call	0x27f0	; 0x27f0 <Endpoint_Read_8>
    2216:	8a 8f       	std	Y+26, r24	; 0x1a
    2218:	0e 94 e9 13 	call	0x27d2	; 0x27d2 <Endpoint_ClearOUT>
    221c:	0e 94 bd 15 	call	0x2b7a	; 0x2b7a <Endpoint_ClearStatusStage>
    2220:	ce 01       	movw	r24, r28
    2222:	0e 94 8c 10 	call	0x2118	; 0x2118 <CDC_Device_Event_Stub>
    2226:	1f c0       	rjmp	.+62     	; 0x2266 <CDC_Device_ProcessControlRequest+0x14c>
    2228:	80 91 de 95 	lds	r24, 0x95DE	; 0x8095de <USB_ControlRequest>
    222c:	81 32       	cpi	r24, 0x21	; 33
    222e:	d9 f4       	brne	.+54     	; 0x2266 <CDC_Device_ProcessControlRequest+0x14c>
    2230:	0e 94 99 14 	call	0x2932	; 0x2932 <Endpoint_ClearSETUP>
    2234:	0e 94 bd 15 	call	0x2b7a	; 0x2b7a <Endpoint_ClearStatusStage>
    2238:	80 91 e0 95 	lds	r24, 0x95E0	; 0x8095e0 <USB_ControlRequest+0x2>
    223c:	90 91 e1 95 	lds	r25, 0x95E1	; 0x8095e1 <USB_ControlRequest+0x3>
    2240:	88 8b       	std	Y+16, r24	; 0x10
    2242:	99 8b       	std	Y+17, r25	; 0x11
    2244:	ce 01       	movw	r24, r28
    2246:	0e 94 c2 1e 	call	0x3d84	; 0x3d84 <EVENT_CDC_Device_ControLineStateChanged>
    224a:	0d c0       	rjmp	.+26     	; 0x2266 <CDC_Device_ProcessControlRequest+0x14c>
    224c:	80 91 de 95 	lds	r24, 0x95DE	; 0x8095de <USB_ControlRequest>
    2250:	81 32       	cpi	r24, 0x21	; 33
    2252:	49 f4       	brne	.+18     	; 0x2266 <CDC_Device_ProcessControlRequest+0x14c>
    2254:	0e 94 99 14 	call	0x2932	; 0x2932 <Endpoint_ClearSETUP>
    2258:	0e 94 bd 15 	call	0x2b7a	; 0x2b7a <Endpoint_ClearStatusStage>
    225c:	60 91 e0 95 	lds	r22, 0x95E0	; 0x8095e0 <USB_ControlRequest+0x2>
    2260:	ce 01       	movw	r24, r28
    2262:	0e 94 8c 10 	call	0x2118	; 0x2118 <CDC_Device_Event_Stub>
    2266:	df 91       	pop	r29
    2268:	cf 91       	pop	r28
    226a:	1f 91       	pop	r17
    226c:	0f 91       	pop	r16
    226e:	ff 90       	pop	r15
    2270:	08 95       	ret

00002272 <USB_Device_ProcessControlRequest>:
    2272:	ef 92       	push	r14
    2274:	ff 92       	push	r15
    2276:	0f 93       	push	r16
    2278:	1f 93       	push	r17
    227a:	cf 93       	push	r28
    227c:	df 93       	push	r29
    227e:	cd b7       	in	r28, 0x3d	; 61
    2280:	de b7       	in	r29, 0x3e	; 62
    2282:	ea 97       	sbiw	r28, 0x3a	; 58
    2284:	cd bf       	out	0x3d, r28	; 61
    2286:	de bf       	out	0x3e, r29	; 62
    2288:	0e ed       	ldi	r16, 0xDE	; 222
    228a:	15 e9       	ldi	r17, 0x95	; 149
    228c:	0f 2e       	mov	r0, r31
    228e:	f6 ee       	ldi	r31, 0xE6	; 230
    2290:	ef 2e       	mov	r14, r31
    2292:	f5 e9       	ldi	r31, 0x95	; 149
    2294:	ff 2e       	mov	r15, r31
    2296:	f0 2d       	mov	r31, r0
    2298:	0e 94 f8 13 	call	0x27f0	; 0x27f0 <Endpoint_Read_8>
    229c:	f8 01       	movw	r30, r16
    229e:	81 93       	st	Z+, r24
    22a0:	8f 01       	movw	r16, r30
    22a2:	ee 15       	cp	r30, r14
    22a4:	ff 05       	cpc	r31, r15
    22a6:	c1 f7       	brne	.-16     	; 0x2298 <USB_Device_ProcessControlRequest+0x26>
    22a8:	0e 94 bd 1e 	call	0x3d7a	; 0x3d7a <EVENT_USB_Device_ControlRequest>
    22ac:	0e 94 7f 14 	call	0x28fe	; 0x28fe <Endpoint_IsSETUPReceived>
    22b0:	88 23       	and	r24, r24
    22b2:	09 f4       	brne	.+2      	; 0x22b6 <USB_Device_ProcessControlRequest+0x44>
    22b4:	13 c1       	rjmp	.+550    	; 0x24dc <USB_Device_ProcessControlRequest+0x26a>
    22b6:	ee ed       	ldi	r30, 0xDE	; 222
    22b8:	f5 e9       	ldi	r31, 0x95	; 149
    22ba:	20 81       	ld	r18, Z
    22bc:	31 81       	ldd	r19, Z+1	; 0x01
    22be:	83 2f       	mov	r24, r19
    22c0:	90 e0       	ldi	r25, 0x00	; 0
    22c2:	8a 30       	cpi	r24, 0x0A	; 10
    22c4:	91 05       	cpc	r25, r1
    22c6:	08 f0       	brcs	.+2      	; 0x22ca <USB_Device_ProcessControlRequest+0x58>
    22c8:	09 c1       	rjmp	.+530    	; 0x24dc <USB_Device_ProcessControlRequest+0x26a>
    22ca:	fc 01       	movw	r30, r24
    22cc:	88 27       	eor	r24, r24
    22ce:	e2 50       	subi	r30, 0x02	; 2
    22d0:	ff 4f       	sbci	r31, 0xFF	; 255
    22d2:	8f 4f       	sbci	r24, 0xFF	; 255
    22d4:	0c 94 cf 23 	jmp	0x479e	; 0x479e <__tablejump2__>
    22d8:	20 38       	cpi	r18, 0x80	; 128
    22da:	21 f0       	breq	.+8      	; 0x22e4 <USB_Device_ProcessControlRequest+0x72>
    22dc:	22 38       	cpi	r18, 0x82	; 130
    22de:	09 f0       	breq	.+2      	; 0x22e2 <USB_Device_ProcessControlRequest+0x70>
    22e0:	fd c0       	rjmp	.+506    	; 0x24dc <USB_Device_ProcessControlRequest+0x26a>
    22e2:	08 c0       	rjmp	.+16     	; 0x22f4 <USB_Device_ProcessControlRequest+0x82>
    22e4:	10 91 da 95 	lds	r17, 0x95DA	; 0x8095da <USB_Device_CurrentlySelfPowered>
    22e8:	80 91 db 95 	lds	r24, 0x95DB	; 0x8095db <USB_Device_RemoteWakeupEnabled>
    22ec:	88 23       	and	r24, r24
    22ee:	91 f0       	breq	.+36     	; 0x2314 <USB_Device_ProcessControlRequest+0xa2>
    22f0:	12 60       	ori	r17, 0x02	; 2
    22f2:	10 c0       	rjmp	.+32     	; 0x2314 <USB_Device_ProcessControlRequest+0xa2>
    22f4:	80 91 e2 95 	lds	r24, 0x95E2	; 0x8095e2 <USB_ControlRequest+0x4>
    22f8:	8f 70       	andi	r24, 0x0F	; 15
    22fa:	0e 94 18 14 	call	0x2830	; 0x2830 <Endpoint_SelectEndpoint>
    22fe:	e0 91 e8 95 	lds	r30, 0x95E8	; 0x8095e8 <USB_Endpoint_SelectedHandle>
    2302:	f0 91 e9 95 	lds	r31, 0x95E9	; 0x8095e9 <USB_Endpoint_SelectedHandle+0x1>
    2306:	11 81       	ldd	r17, Z+1	; 0x01
    2308:	12 fb       	bst	r17, 2
    230a:	11 27       	eor	r17, r17
    230c:	10 f9       	bld	r17, 0
    230e:	80 e0       	ldi	r24, 0x00	; 0
    2310:	0e 94 18 14 	call	0x2830	; 0x2830 <Endpoint_SelectEndpoint>
    2314:	0e 94 99 14 	call	0x2932	; 0x2932 <Endpoint_ClearSETUP>
    2318:	81 2f       	mov	r24, r17
    231a:	0e 94 08 14 	call	0x2810	; 0x2810 <Endpoint_Write_8>
    231e:	80 e0       	ldi	r24, 0x00	; 0
    2320:	0e 94 08 14 	call	0x2810	; 0x2810 <Endpoint_Write_8>
    2324:	0e 94 d0 13 	call	0x27a0	; 0x27a0 <Endpoint_ClearIN>
    2328:	0e 94 bd 15 	call	0x2b7a	; 0x2b7a <Endpoint_ClearStatusStage>
    232c:	d7 c0       	rjmp	.+430    	; 0x24dc <USB_Device_ProcessControlRequest+0x26a>
    232e:	22 23       	and	r18, r18
    2330:	09 f4       	brne	.+2      	; 0x2334 <USB_Device_ProcessControlRequest+0xc2>
    2332:	dd c0       	rjmp	.+442    	; 0x24ee <USB_Device_ProcessControlRequest+0x27c>
    2334:	22 30       	cpi	r18, 0x02	; 2
    2336:	09 f0       	breq	.+2      	; 0x233a <USB_Device_ProcessControlRequest+0xc8>
    2338:	d1 c0       	rjmp	.+418    	; 0x24dc <USB_Device_ProcessControlRequest+0x26a>
    233a:	de c0       	rjmp	.+444    	; 0x24f8 <USB_Device_ProcessControlRequest+0x286>
    233c:	81 e0       	ldi	r24, 0x01	; 1
    233e:	33 30       	cpi	r19, 0x03	; 3
    2340:	09 f0       	breq	.+2      	; 0x2344 <USB_Device_ProcessControlRequest+0xd2>
    2342:	80 e0       	ldi	r24, 0x00	; 0
    2344:	80 93 db 95 	sts	0x95DB, r24	; 0x8095db <USB_Device_RemoteWakeupEnabled>
    2348:	25 c0       	rjmp	.+74     	; 0x2394 <USB_Device_ProcessControlRequest+0x122>
    234a:	e0 91 e2 95 	lds	r30, 0x95E2	; 0x8095e2 <USB_ControlRequest+0x4>
    234e:	1e 2f       	mov	r17, r30
    2350:	1f 70       	andi	r17, 0x0F	; 15
    2352:	09 f4       	brne	.+2      	; 0x2356 <USB_Device_ProcessControlRequest+0xe4>
    2354:	c3 c0       	rjmp	.+390    	; 0x24dc <USB_Device_ProcessControlRequest+0x26a>
    2356:	81 2f       	mov	r24, r17
    2358:	0e 94 18 14 	call	0x2830	; 0x2830 <Endpoint_SelectEndpoint>
    235c:	80 91 df 95 	lds	r24, 0x95DF	; 0x8095df <USB_ControlRequest+0x1>
    2360:	83 30       	cpi	r24, 0x03	; 3
    2362:	19 f4       	brne	.+6      	; 0x236a <USB_Device_ProcessControlRequest+0xf8>
    2364:	0e 94 c7 14 	call	0x298e	; 0x298e <Endpoint_StallTransaction>
    2368:	15 c0       	rjmp	.+42     	; 0x2394 <USB_Device_ProcessControlRequest+0x122>
    236a:	e0 91 e8 95 	lds	r30, 0x95E8	; 0x8095e8 <USB_Endpoint_SelectedHandle>
    236e:	f0 91 e9 95 	lds	r31, 0x95E9	; 0x8095e9 <USB_Endpoint_SelectedHandle+0x1>
    2372:	81 81       	ldd	r24, Z+1	; 0x01
    2374:	8b 7f       	andi	r24, 0xFB	; 251
    2376:	81 83       	std	Z+1, r24	; 0x01
    2378:	24 e8       	ldi	r18, 0x84	; 132
    237a:	12 9f       	mul	r17, r18
    237c:	f0 01       	movw	r30, r0
    237e:	11 24       	eor	r1, r1
    2380:	e4 5d       	subi	r30, 0xD4	; 212
    2382:	f9 46       	sbci	r31, 0x69	; 105
    2384:	10 82       	st	Z, r1
    2386:	e0 91 e8 95 	lds	r30, 0x95E8	; 0x8095e8 <USB_Endpoint_SelectedHandle>
    238a:	f0 91 e9 95 	lds	r31, 0x95E9	; 0x8095e9 <USB_Endpoint_SelectedHandle+0x1>
    238e:	80 81       	ld	r24, Z
    2390:	8e 7f       	andi	r24, 0xFE	; 254
    2392:	80 83       	st	Z, r24
    2394:	80 e0       	ldi	r24, 0x00	; 0
    2396:	0e 94 18 14 	call	0x2830	; 0x2830 <Endpoint_SelectEndpoint>
    239a:	0e 94 99 14 	call	0x2932	; 0x2932 <Endpoint_ClearSETUP>
    239e:	0e 94 bd 15 	call	0x2b7a	; 0x2b7a <Endpoint_ClearStatusStage>
    23a2:	9c c0       	rjmp	.+312    	; 0x24dc <USB_Device_ProcessControlRequest+0x26a>
    23a4:	21 11       	cpse	r18, r1
    23a6:	9a c0       	rjmp	.+308    	; 0x24dc <USB_Device_ProcessControlRequest+0x26a>
    23a8:	10 91 e0 95 	lds	r17, 0x95E0	; 0x8095e0 <USB_ControlRequest+0x2>
    23ac:	1f 77       	andi	r17, 0x7F	; 127
    23ae:	0e 94 99 14 	call	0x2932	; 0x2932 <Endpoint_ClearSETUP>
    23b2:	0e 94 bd 15 	call	0x2b7a	; 0x2b7a <Endpoint_ClearStatusStage>
    23b6:	0e 94 58 14 	call	0x28b0	; 0x28b0 <Endpoint_IsINReady>
    23ba:	88 23       	and	r24, r24
    23bc:	e1 f3       	breq	.-8      	; 0x23b6 <USB_Device_ProcessControlRequest+0x144>
    23be:	10 93 c3 04 	sts	0x04C3, r17	; 0x8004c3 <__TEXT_REGION_LENGTH__+0x7004c3>
    23c2:	11 11       	cpse	r17, r1
    23c4:	02 c0       	rjmp	.+4      	; 0x23ca <USB_Device_ProcessControlRequest+0x158>
    23c6:	82 e0       	ldi	r24, 0x02	; 2
    23c8:	01 c0       	rjmp	.+2      	; 0x23cc <USB_Device_ProcessControlRequest+0x15a>
    23ca:	83 e0       	ldi	r24, 0x03	; 3
    23cc:	80 93 dd 95 	sts	0x95DD, r24	; 0x8095dd <USB_DeviceState>
    23d0:	85 c0       	rjmp	.+266    	; 0x24dc <USB_Device_ProcessControlRequest+0x26a>
    23d2:	20 58       	subi	r18, 0x80	; 128
    23d4:	22 30       	cpi	r18, 0x02	; 2
    23d6:	08 f0       	brcs	.+2      	; 0x23da <USB_Device_ProcessControlRequest+0x168>
    23d8:	81 c0       	rjmp	.+258    	; 0x24dc <USB_Device_ProcessControlRequest+0x26a>
    23da:	80 91 e0 95 	lds	r24, 0x95E0	; 0x8095e0 <USB_ControlRequest+0x2>
    23de:	90 91 e1 95 	lds	r25, 0x95E1	; 0x8095e1 <USB_ControlRequest+0x3>
    23e2:	8c 3d       	cpi	r24, 0xDC	; 220
    23e4:	e3 e0       	ldi	r30, 0x03	; 3
    23e6:	9e 07       	cpc	r25, r30
    23e8:	b9 f5       	brne	.+110    	; 0x2458 <USB_Device_ProcessControlRequest+0x1e6>
    23ea:	83 e0       	ldi	r24, 0x03	; 3
    23ec:	8a 83       	std	Y+2, r24	; 0x02
    23ee:	8a e3       	ldi	r24, 0x3A	; 58
    23f0:	89 83       	std	Y+1, r24	; 0x01
    23f2:	7f b7       	in	r23, 0x3f	; 63
    23f4:	f8 94       	cli
    23f6:	ae 01       	movw	r20, r28
    23f8:	4d 5f       	subi	r20, 0xFD	; 253
    23fa:	5f 4f       	sbci	r21, 0xFF	; 255
    23fc:	20 e0       	ldi	r18, 0x00	; 0
    23fe:	38 e0       	ldi	r19, 0x08	; 8
    2400:	a0 ec       	ldi	r26, 0xC0	; 192
    2402:	b1 e0       	ldi	r27, 0x01	; 1
    2404:	62 e0       	ldi	r22, 0x02	; 2
    2406:	1a 96       	adiw	r26, 0x0a	; 10
    2408:	6c 93       	st	X, r22
    240a:	1a 97       	sbiw	r26, 0x0a	; 10
    240c:	e3 2f       	mov	r30, r19
    240e:	f0 e0       	ldi	r31, 0x00	; 0
    2410:	84 91       	lpm	r24, Z
    2412:	1a 96       	adiw	r26, 0x0a	; 10
    2414:	1c 92       	st	X, r1
    2416:	1a 97       	sbiw	r26, 0x0a	; 10
    2418:	20 ff       	sbrs	r18, 0
    241a:	03 c0       	rjmp	.+6      	; 0x2422 <USB_Device_ProcessControlRequest+0x1b0>
    241c:	82 95       	swap	r24
    241e:	8f 70       	andi	r24, 0x0F	; 15
    2420:	3f 5f       	subi	r19, 0xFF	; 255
    2422:	8f 70       	andi	r24, 0x0F	; 15
    2424:	8a 30       	cpi	r24, 0x0A	; 10
    2426:	18 f0       	brcs	.+6      	; 0x242e <USB_Device_ProcessControlRequest+0x1bc>
    2428:	90 e0       	ldi	r25, 0x00	; 0
    242a:	c7 96       	adiw	r24, 0x37	; 55
    242c:	02 c0       	rjmp	.+4      	; 0x2432 <USB_Device_ProcessControlRequest+0x1c0>
    242e:	90 e0       	ldi	r25, 0x00	; 0
    2430:	c0 96       	adiw	r24, 0x30	; 48
    2432:	fa 01       	movw	r30, r20
    2434:	81 93       	st	Z+, r24
    2436:	91 93       	st	Z+, r25
    2438:	af 01       	movw	r20, r30
    243a:	2f 5f       	subi	r18, 0xFF	; 255
    243c:	2c 31       	cpi	r18, 0x1C	; 28
    243e:	19 f7       	brne	.-58     	; 0x2406 <USB_Device_ProcessControlRequest+0x194>
    2440:	7f bf       	out	0x3f, r23	; 63
    2442:	0e 94 99 14 	call	0x2932	; 0x2932 <Endpoint_ClearSETUP>
    2446:	6a e3       	ldi	r22, 0x3A	; 58
    2448:	70 e0       	ldi	r23, 0x00	; 0
    244a:	ce 01       	movw	r24, r28
    244c:	01 96       	adiw	r24, 0x01	; 1
    244e:	0e 94 a1 12 	call	0x2542	; 0x2542 <Endpoint_Write_Control_Stream_LE>
    2452:	0e 94 e9 13 	call	0x27d2	; 0x27d2 <Endpoint_ClearOUT>
    2456:	42 c0       	rjmp	.+132    	; 0x24dc <USB_Device_ProcessControlRequest+0x26a>
    2458:	ae 01       	movw	r20, r28
    245a:	4f 5f       	subi	r20, 0xFF	; 255
    245c:	5f 4f       	sbci	r21, 0xFF	; 255
    245e:	60 91 e2 95 	lds	r22, 0x95E2	; 0x8095e2 <USB_ControlRequest+0x4>
    2462:	0e 94 78 09 	call	0x12f0	; 0x12f0 <CALLBACK_USB_GetDescriptor>
    2466:	8c 01       	movw	r16, r24
    2468:	89 2b       	or	r24, r25
    246a:	c1 f1       	breq	.+112    	; 0x24dc <USB_Device_ProcessControlRequest+0x26a>
    246c:	0e 94 99 14 	call	0x2932	; 0x2932 <Endpoint_ClearSETUP>
    2470:	b8 01       	movw	r22, r16
    2472:	89 81       	ldd	r24, Y+1	; 0x01
    2474:	9a 81       	ldd	r25, Y+2	; 0x02
    2476:	0e 94 37 13 	call	0x266e	; 0x266e <Endpoint_Write_Control_PStream_LE>
    247a:	0e 94 e9 13 	call	0x27d2	; 0x27d2 <Endpoint_ClearOUT>
    247e:	2e c0       	rjmp	.+92     	; 0x24dc <USB_Device_ProcessControlRequest+0x26a>
    2480:	20 38       	cpi	r18, 0x80	; 128
    2482:	61 f5       	brne	.+88     	; 0x24dc <USB_Device_ProcessControlRequest+0x26a>
    2484:	0e 94 99 14 	call	0x2932	; 0x2932 <Endpoint_ClearSETUP>
    2488:	80 91 d9 95 	lds	r24, 0x95D9	; 0x8095d9 <USB_Device_ConfigurationNumber>
    248c:	0e 94 08 14 	call	0x2810	; 0x2810 <Endpoint_Write_8>
    2490:	0e 94 d0 13 	call	0x27a0	; 0x27a0 <Endpoint_ClearIN>
    2494:	0e 94 bd 15 	call	0x2b7a	; 0x2b7a <Endpoint_ClearStatusStage>
    2498:	21 c0       	rjmp	.+66     	; 0x24dc <USB_Device_ProcessControlRequest+0x26a>
    249a:	21 11       	cpse	r18, r1
    249c:	1f c0       	rjmp	.+62     	; 0x24dc <USB_Device_ProcessControlRequest+0x26a>
    249e:	80 91 e0 95 	lds	r24, 0x95E0	; 0x8095e0 <USB_ControlRequest+0x2>
    24a2:	82 30       	cpi	r24, 0x02	; 2
    24a4:	d8 f4       	brcc	.+54     	; 0x24dc <USB_Device_ProcessControlRequest+0x26a>
    24a6:	0e 94 99 14 	call	0x2932	; 0x2932 <Endpoint_ClearSETUP>
    24aa:	80 91 e0 95 	lds	r24, 0x95E0	; 0x8095e0 <USB_ControlRequest+0x2>
    24ae:	80 93 d9 95 	sts	0x95D9, r24	; 0x8095d9 <USB_Device_ConfigurationNumber>
    24b2:	0e 94 bd 15 	call	0x2b7a	; 0x2b7a <Endpoint_ClearStatusStage>
    24b6:	80 91 d9 95 	lds	r24, 0x95D9	; 0x8095d9 <USB_Device_ConfigurationNumber>
    24ba:	88 23       	and	r24, r24
    24bc:	21 f0       	breq	.+8      	; 0x24c6 <USB_Device_ProcessControlRequest+0x254>
    24be:	84 e0       	ldi	r24, 0x04	; 4
    24c0:	80 93 dd 95 	sts	0x95DD, r24	; 0x8095dd <USB_DeviceState>
    24c4:	09 c0       	rjmp	.+18     	; 0x24d8 <USB_Device_ProcessControlRequest+0x266>
    24c6:	80 91 c3 04 	lds	r24, 0x04C3	; 0x8004c3 <__TEXT_REGION_LENGTH__+0x7004c3>
    24ca:	81 11       	cpse	r24, r1
    24cc:	02 c0       	rjmp	.+4      	; 0x24d2 <USB_Device_ProcessControlRequest+0x260>
    24ce:	81 e0       	ldi	r24, 0x01	; 1
    24d0:	01 c0       	rjmp	.+2      	; 0x24d4 <USB_Device_ProcessControlRequest+0x262>
    24d2:	84 e0       	ldi	r24, 0x04	; 4
    24d4:	80 93 dd 95 	sts	0x95DD, r24	; 0x8095dd <USB_DeviceState>
    24d8:	0e 94 a6 1e 	call	0x3d4c	; 0x3d4c <EVENT_USB_Device_ConfigurationChanged>
    24dc:	0e 94 7f 14 	call	0x28fe	; 0x28fe <Endpoint_IsSETUPReceived>
    24e0:	88 23       	and	r24, r24
    24e2:	81 f0       	breq	.+32     	; 0x2504 <USB_Device_ProcessControlRequest+0x292>
    24e4:	0e 94 99 14 	call	0x2932	; 0x2932 <Endpoint_ClearSETUP>
    24e8:	0e 94 c7 14 	call	0x298e	; 0x298e <Endpoint_StallTransaction>
    24ec:	0b c0       	rjmp	.+22     	; 0x2504 <USB_Device_ProcessControlRequest+0x292>
    24ee:	80 91 e0 95 	lds	r24, 0x95E0	; 0x8095e0 <USB_ControlRequest+0x2>
    24f2:	81 30       	cpi	r24, 0x01	; 1
    24f4:	99 f7       	brne	.-26     	; 0x24dc <USB_Device_ProcessControlRequest+0x26a>
    24f6:	22 cf       	rjmp	.-444    	; 0x233c <USB_Device_ProcessControlRequest+0xca>
    24f8:	80 91 e0 95 	lds	r24, 0x95E0	; 0x8095e0 <USB_ControlRequest+0x2>
    24fc:	88 23       	and	r24, r24
    24fe:	09 f4       	brne	.+2      	; 0x2502 <USB_Device_ProcessControlRequest+0x290>
    2500:	24 cf       	rjmp	.-440    	; 0x234a <USB_Device_ProcessControlRequest+0xd8>
    2502:	48 cf       	rjmp	.-368    	; 0x2394 <USB_Device_ProcessControlRequest+0x122>
    2504:	ea 96       	adiw	r28, 0x3a	; 58
    2506:	cd bf       	out	0x3d, r28	; 61
    2508:	de bf       	out	0x3e, r29	; 62
    250a:	df 91       	pop	r29
    250c:	cf 91       	pop	r28
    250e:	1f 91       	pop	r17
    2510:	0f 91       	pop	r16
    2512:	ff 90       	pop	r15
    2514:	ef 90       	pop	r14
    2516:	08 95       	ret

00002518 <USB_Event_Stub>:
    2518:	08 95       	ret

0000251a <USB_USBTask>:
    251a:	cf 93       	push	r28
    251c:	80 91 dd 95 	lds	r24, 0x95DD	; 0x8095dd <USB_DeviceState>
    2520:	88 23       	and	r24, r24
    2522:	69 f0       	breq	.+26     	; 0x253e <USB_USBTask+0x24>
    2524:	c0 91 ea 95 	lds	r28, 0x95EA	; 0x8095ea <USB_Endpoint_SelectedEndpoint>
    2528:	80 e0       	ldi	r24, 0x00	; 0
    252a:	0e 94 18 14 	call	0x2830	; 0x2830 <Endpoint_SelectEndpoint>
    252e:	0e 94 7f 14 	call	0x28fe	; 0x28fe <Endpoint_IsSETUPReceived>
    2532:	81 11       	cpse	r24, r1
    2534:	0e 94 39 11 	call	0x2272	; 0x2272 <USB_Device_ProcessControlRequest>
    2538:	8c 2f       	mov	r24, r28
    253a:	0e 94 18 14 	call	0x2830	; 0x2830 <Endpoint_SelectEndpoint>
    253e:	cf 91       	pop	r28
    2540:	08 95       	ret

00002542 <Endpoint_Write_Control_Stream_LE>:
    2542:	cf 92       	push	r12
    2544:	df 92       	push	r13
    2546:	ef 92       	push	r14
    2548:	ff 92       	push	r15
    254a:	0f 93       	push	r16
    254c:	1f 93       	push	r17
    254e:	cf 93       	push	r28
    2550:	df 93       	push	r29
    2552:	c8 2e       	mov	r12, r24
    2554:	d9 2e       	mov	r13, r25
    2556:	8b 01       	movw	r16, r22
    2558:	80 91 ea 95 	lds	r24, 0x95EA	; 0x8095ea <USB_Endpoint_SelectedEndpoint>
    255c:	80 68       	ori	r24, 0x80	; 128
    255e:	0e 94 18 14 	call	0x2830	; 0x2830 <Endpoint_SelectEndpoint>
    2562:	c0 91 e4 95 	lds	r28, 0x95E4	; 0x8095e4 <USB_ControlRequest+0x6>
    2566:	d0 91 e5 95 	lds	r29, 0x95E5	; 0x8095e5 <USB_ControlRequest+0x7>
    256a:	c0 17       	cp	r28, r16
    256c:	d1 07       	cpc	r29, r17
    256e:	40 f0       	brcs	.+16     	; 0x2580 <Endpoint_Write_Control_Stream_LE+0x3e>
    2570:	01 15       	cp	r16, r1
    2572:	11 05       	cpc	r17, r1
    2574:	21 f4       	brne	.+8      	; 0x257e <Endpoint_Write_Control_Stream_LE+0x3c>
    2576:	0e 94 d0 13 	call	0x27a0	; 0x27a0 <Endpoint_ClearIN>
    257a:	e8 01       	movw	r28, r16
    257c:	01 c0       	rjmp	.+2      	; 0x2580 <Endpoint_Write_Control_Stream_LE+0x3e>
    257e:	e8 01       	movw	r28, r16
    2580:	ec 2c       	mov	r14, r12
    2582:	fd 2c       	mov	r15, r13
    2584:	d1 2c       	mov	r13, r1
    2586:	49 c0       	rjmp	.+146    	; 0x261a <Endpoint_Write_Control_Stream_LE+0xd8>
    2588:	80 91 dd 95 	lds	r24, 0x95DD	; 0x8095dd <USB_DeviceState>
    258c:	88 23       	and	r24, r24
    258e:	09 f4       	brne	.+2      	; 0x2592 <Endpoint_Write_Control_Stream_LE+0x50>
    2590:	5a c0       	rjmp	.+180    	; 0x2646 <Endpoint_Write_Control_Stream_LE+0x104>
    2592:	85 30       	cpi	r24, 0x05	; 5
    2594:	09 f4       	brne	.+2      	; 0x2598 <Endpoint_Write_Control_Stream_LE+0x56>
    2596:	59 c0       	rjmp	.+178    	; 0x264a <Endpoint_Write_Control_Stream_LE+0x108>
    2598:	0e 94 7f 14 	call	0x28fe	; 0x28fe <Endpoint_IsSETUPReceived>
    259c:	81 11       	cpse	r24, r1
    259e:	57 c0       	rjmp	.+174    	; 0x264e <Endpoint_Write_Control_Stream_LE+0x10c>
    25a0:	0e 94 65 14 	call	0x28ca	; 0x28ca <Endpoint_IsOUTReceived>
    25a4:	81 11       	cpse	r24, r1
    25a6:	49 c0       	rjmp	.+146    	; 0x263a <Endpoint_Write_Control_Stream_LE+0xf8>
    25a8:	0e 94 58 14 	call	0x28b0	; 0x28b0 <Endpoint_IsINReady>
    25ac:	88 23       	and	r24, r24
    25ae:	a9 f1       	breq	.+106    	; 0x261a <Endpoint_Write_Control_Stream_LE+0xd8>
    25b0:	80 91 ea 95 	lds	r24, 0x95EA	; 0x8095ea <USB_Endpoint_SelectedEndpoint>
    25b4:	88 23       	and	r24, r24
    25b6:	74 f4       	brge	.+28     	; 0x25d4 <Endpoint_Write_Control_Stream_LE+0x92>
    25b8:	e0 91 e6 95 	lds	r30, 0x95E6	; 0x8095e6 <USB_Endpoint_SelectedFIFO>
    25bc:	f0 91 e7 95 	lds	r31, 0x95E7	; 0x8095e7 <USB_Endpoint_SelectedFIFO+0x1>
    25c0:	ef 5b       	subi	r30, 0xBF	; 191
    25c2:	ff 4f       	sbci	r31, 0xFF	; 255
    25c4:	00 81       	ld	r16, Z
    25c6:	10 e0       	ldi	r17, 0x00	; 0
    25c8:	20 97       	sbiw	r28, 0x00	; 0
    25ca:	f9 f0       	breq	.+62     	; 0x260a <Endpoint_Write_Control_Stream_LE+0xc8>
    25cc:	08 30       	cpi	r16, 0x08	; 8
    25ce:	11 05       	cpc	r17, r1
    25d0:	78 f0       	brcs	.+30     	; 0x25f0 <Endpoint_Write_Control_Stream_LE+0xae>
    25d2:	1b c0       	rjmp	.+54     	; 0x260a <Endpoint_Write_Control_Stream_LE+0xc8>
    25d4:	80 91 e6 95 	lds	r24, 0x95E6	; 0x8095e6 <USB_Endpoint_SelectedFIFO>
    25d8:	90 91 e7 95 	lds	r25, 0x95E7	; 0x8095e7 <USB_Endpoint_SelectedFIFO+0x1>
    25dc:	fc 01       	movw	r30, r24
    25de:	e0 5c       	subi	r30, 0xC0	; 192
    25e0:	ff 4f       	sbci	r31, 0xFF	; 255
    25e2:	00 81       	ld	r16, Z
    25e4:	31 96       	adiw	r30, 0x01	; 1
    25e6:	80 81       	ld	r24, Z
    25e8:	10 e0       	ldi	r17, 0x00	; 0
    25ea:	08 1b       	sub	r16, r24
    25ec:	11 09       	sbc	r17, r1
    25ee:	ec cf       	rjmp	.-40     	; 0x25c8 <Endpoint_Write_Control_Stream_LE+0x86>
    25f0:	f7 01       	movw	r30, r14
    25f2:	81 91       	ld	r24, Z+
    25f4:	7f 01       	movw	r14, r30
    25f6:	0e 94 08 14 	call	0x2810	; 0x2810 <Endpoint_Write_8>
    25fa:	21 97       	sbiw	r28, 0x01	; 1
    25fc:	0f 5f       	subi	r16, 0xFF	; 255
    25fe:	1f 4f       	sbci	r17, 0xFF	; 255
    2600:	20 97       	sbiw	r28, 0x00	; 0
    2602:	19 f0       	breq	.+6      	; 0x260a <Endpoint_Write_Control_Stream_LE+0xc8>
    2604:	08 30       	cpi	r16, 0x08	; 8
    2606:	11 05       	cpc	r17, r1
    2608:	99 f7       	brne	.-26     	; 0x25f0 <Endpoint_Write_Control_Stream_LE+0xae>
    260a:	dd 24       	eor	r13, r13
    260c:	d3 94       	inc	r13
    260e:	08 30       	cpi	r16, 0x08	; 8
    2610:	11 05       	cpc	r17, r1
    2612:	09 f0       	breq	.+2      	; 0x2616 <Endpoint_Write_Control_Stream_LE+0xd4>
    2614:	d1 2c       	mov	r13, r1
    2616:	0e 94 d0 13 	call	0x27a0	; 0x27a0 <Endpoint_ClearIN>
    261a:	20 97       	sbiw	r28, 0x00	; 0
    261c:	09 f0       	breq	.+2      	; 0x2620 <Endpoint_Write_Control_Stream_LE+0xde>
    261e:	b4 cf       	rjmp	.-152    	; 0x2588 <Endpoint_Write_Control_Stream_LE+0x46>
    2620:	d1 10       	cpse	r13, r1
    2622:	b2 cf       	rjmp	.-156    	; 0x2588 <Endpoint_Write_Control_Stream_LE+0x46>
    2624:	0a c0       	rjmp	.+20     	; 0x263a <Endpoint_Write_Control_Stream_LE+0xf8>
    2626:	80 91 dd 95 	lds	r24, 0x95DD	; 0x8095dd <USB_DeviceState>
    262a:	88 23       	and	r24, r24
    262c:	91 f0       	breq	.+36     	; 0x2652 <Endpoint_Write_Control_Stream_LE+0x110>
    262e:	85 30       	cpi	r24, 0x05	; 5
    2630:	91 f0       	breq	.+36     	; 0x2656 <Endpoint_Write_Control_Stream_LE+0x114>
    2632:	0e 94 7f 14 	call	0x28fe	; 0x28fe <Endpoint_IsSETUPReceived>
    2636:	81 11       	cpse	r24, r1
    2638:	10 c0       	rjmp	.+32     	; 0x265a <Endpoint_Write_Control_Stream_LE+0x118>
    263a:	0e 94 65 14 	call	0x28ca	; 0x28ca <Endpoint_IsOUTReceived>
    263e:	88 23       	and	r24, r24
    2640:	91 f3       	breq	.-28     	; 0x2626 <Endpoint_Write_Control_Stream_LE+0xe4>
    2642:	80 e0       	ldi	r24, 0x00	; 0
    2644:	0b c0       	rjmp	.+22     	; 0x265c <Endpoint_Write_Control_Stream_LE+0x11a>
    2646:	82 e0       	ldi	r24, 0x02	; 2
    2648:	09 c0       	rjmp	.+18     	; 0x265c <Endpoint_Write_Control_Stream_LE+0x11a>
    264a:	83 e0       	ldi	r24, 0x03	; 3
    264c:	07 c0       	rjmp	.+14     	; 0x265c <Endpoint_Write_Control_Stream_LE+0x11a>
    264e:	81 e0       	ldi	r24, 0x01	; 1
    2650:	05 c0       	rjmp	.+10     	; 0x265c <Endpoint_Write_Control_Stream_LE+0x11a>
    2652:	82 e0       	ldi	r24, 0x02	; 2
    2654:	03 c0       	rjmp	.+6      	; 0x265c <Endpoint_Write_Control_Stream_LE+0x11a>
    2656:	83 e0       	ldi	r24, 0x03	; 3
    2658:	01 c0       	rjmp	.+2      	; 0x265c <Endpoint_Write_Control_Stream_LE+0x11a>
    265a:	81 e0       	ldi	r24, 0x01	; 1
    265c:	df 91       	pop	r29
    265e:	cf 91       	pop	r28
    2660:	1f 91       	pop	r17
    2662:	0f 91       	pop	r16
    2664:	ff 90       	pop	r15
    2666:	ef 90       	pop	r14
    2668:	df 90       	pop	r13
    266a:	cf 90       	pop	r12
    266c:	08 95       	ret

0000266e <Endpoint_Write_Control_PStream_LE>:
    266e:	df 92       	push	r13
    2670:	ef 92       	push	r14
    2672:	ff 92       	push	r15
    2674:	0f 93       	push	r16
    2676:	1f 93       	push	r17
    2678:	cf 93       	push	r28
    267a:	df 93       	push	r29
    267c:	e8 2e       	mov	r14, r24
    267e:	f9 2e       	mov	r15, r25
    2680:	8b 01       	movw	r16, r22
    2682:	80 91 ea 95 	lds	r24, 0x95EA	; 0x8095ea <USB_Endpoint_SelectedEndpoint>
    2686:	80 68       	ori	r24, 0x80	; 128
    2688:	0e 94 18 14 	call	0x2830	; 0x2830 <Endpoint_SelectEndpoint>
    268c:	c0 91 e4 95 	lds	r28, 0x95E4	; 0x8095e4 <USB_ControlRequest+0x6>
    2690:	d0 91 e5 95 	lds	r29, 0x95E5	; 0x8095e5 <USB_ControlRequest+0x7>
    2694:	c0 17       	cp	r28, r16
    2696:	d1 07       	cpc	r29, r17
    2698:	40 f0       	brcs	.+16     	; 0x26aa <Endpoint_Write_Control_PStream_LE+0x3c>
    269a:	01 15       	cp	r16, r1
    269c:	11 05       	cpc	r17, r1
    269e:	21 f4       	brne	.+8      	; 0x26a8 <Endpoint_Write_Control_PStream_LE+0x3a>
    26a0:	0e 94 d0 13 	call	0x27a0	; 0x27a0 <Endpoint_ClearIN>
    26a4:	e8 01       	movw	r28, r16
    26a6:	01 c0       	rjmp	.+2      	; 0x26aa <Endpoint_Write_Control_PStream_LE+0x3c>
    26a8:	e8 01       	movw	r28, r16
    26aa:	0e 2d       	mov	r16, r14
    26ac:	1f 2d       	mov	r17, r15
    26ae:	d1 2c       	mov	r13, r1
    26b0:	4e c0       	rjmp	.+156    	; 0x274e <Endpoint_Write_Control_PStream_LE+0xe0>
    26b2:	80 91 dd 95 	lds	r24, 0x95DD	; 0x8095dd <USB_DeviceState>
    26b6:	88 23       	and	r24, r24
    26b8:	09 f4       	brne	.+2      	; 0x26bc <Endpoint_Write_Control_PStream_LE+0x4e>
    26ba:	5f c0       	rjmp	.+190    	; 0x277a <Endpoint_Write_Control_PStream_LE+0x10c>
    26bc:	85 30       	cpi	r24, 0x05	; 5
    26be:	09 f4       	brne	.+2      	; 0x26c2 <Endpoint_Write_Control_PStream_LE+0x54>
    26c0:	5e c0       	rjmp	.+188    	; 0x277e <Endpoint_Write_Control_PStream_LE+0x110>
    26c2:	0e 94 7f 14 	call	0x28fe	; 0x28fe <Endpoint_IsSETUPReceived>
    26c6:	81 11       	cpse	r24, r1
    26c8:	5c c0       	rjmp	.+184    	; 0x2782 <Endpoint_Write_Control_PStream_LE+0x114>
    26ca:	0e 94 65 14 	call	0x28ca	; 0x28ca <Endpoint_IsOUTReceived>
    26ce:	81 11       	cpse	r24, r1
    26d0:	4e c0       	rjmp	.+156    	; 0x276e <Endpoint_Write_Control_PStream_LE+0x100>
    26d2:	0e 94 58 14 	call	0x28b0	; 0x28b0 <Endpoint_IsINReady>
    26d6:	88 23       	and	r24, r24
    26d8:	d1 f1       	breq	.+116    	; 0x274e <Endpoint_Write_Control_PStream_LE+0xe0>
    26da:	80 91 ea 95 	lds	r24, 0x95EA	; 0x8095ea <USB_Endpoint_SelectedEndpoint>
    26de:	88 23       	and	r24, r24
    26e0:	7c f4       	brge	.+30     	; 0x2700 <Endpoint_Write_Control_PStream_LE+0x92>
    26e2:	e0 91 e6 95 	lds	r30, 0x95E6	; 0x8095e6 <USB_Endpoint_SelectedFIFO>
    26e6:	f0 91 e7 95 	lds	r31, 0x95E7	; 0x8095e7 <USB_Endpoint_SelectedFIFO+0x1>
    26ea:	ef 5b       	subi	r30, 0xBF	; 191
    26ec:	ff 4f       	sbci	r31, 0xFF	; 255
    26ee:	e0 80       	ld	r14, Z
    26f0:	f1 2c       	mov	r15, r1
    26f2:	20 97       	sbiw	r28, 0x00	; 0
    26f4:	19 f1       	breq	.+70     	; 0x273c <Endpoint_Write_Control_PStream_LE+0xce>
    26f6:	88 e0       	ldi	r24, 0x08	; 8
    26f8:	e8 16       	cp	r14, r24
    26fa:	f1 04       	cpc	r15, r1
    26fc:	78 f0       	brcs	.+30     	; 0x271c <Endpoint_Write_Control_PStream_LE+0xae>
    26fe:	1e c0       	rjmp	.+60     	; 0x273c <Endpoint_Write_Control_PStream_LE+0xce>
    2700:	80 91 e6 95 	lds	r24, 0x95E6	; 0x8095e6 <USB_Endpoint_SelectedFIFO>
    2704:	90 91 e7 95 	lds	r25, 0x95E7	; 0x8095e7 <USB_Endpoint_SelectedFIFO+0x1>
    2708:	fc 01       	movw	r30, r24
    270a:	e0 5c       	subi	r30, 0xC0	; 192
    270c:	ff 4f       	sbci	r31, 0xFF	; 255
    270e:	e0 80       	ld	r14, Z
    2710:	31 96       	adiw	r30, 0x01	; 1
    2712:	80 81       	ld	r24, Z
    2714:	f1 2c       	mov	r15, r1
    2716:	e8 1a       	sub	r14, r24
    2718:	f1 08       	sbc	r15, r1
    271a:	eb cf       	rjmp	.-42     	; 0x26f2 <Endpoint_Write_Control_PStream_LE+0x84>
    271c:	f8 01       	movw	r30, r16
    271e:	84 91       	lpm	r24, Z
    2720:	0e 94 08 14 	call	0x2810	; 0x2810 <Endpoint_Write_8>
    2724:	0f 5f       	subi	r16, 0xFF	; 255
    2726:	1f 4f       	sbci	r17, 0xFF	; 255
    2728:	21 97       	sbiw	r28, 0x01	; 1
    272a:	ff ef       	ldi	r31, 0xFF	; 255
    272c:	ef 1a       	sub	r14, r31
    272e:	ff 0a       	sbc	r15, r31
    2730:	20 97       	sbiw	r28, 0x00	; 0
    2732:	21 f0       	breq	.+8      	; 0x273c <Endpoint_Write_Control_PStream_LE+0xce>
    2734:	88 e0       	ldi	r24, 0x08	; 8
    2736:	e8 16       	cp	r14, r24
    2738:	f1 04       	cpc	r15, r1
    273a:	81 f7       	brne	.-32     	; 0x271c <Endpoint_Write_Control_PStream_LE+0xae>
    273c:	dd 24       	eor	r13, r13
    273e:	d3 94       	inc	r13
    2740:	e8 e0       	ldi	r30, 0x08	; 8
    2742:	ee 16       	cp	r14, r30
    2744:	f1 04       	cpc	r15, r1
    2746:	09 f0       	breq	.+2      	; 0x274a <Endpoint_Write_Control_PStream_LE+0xdc>
    2748:	d1 2c       	mov	r13, r1
    274a:	0e 94 d0 13 	call	0x27a0	; 0x27a0 <Endpoint_ClearIN>
    274e:	20 97       	sbiw	r28, 0x00	; 0
    2750:	09 f0       	breq	.+2      	; 0x2754 <Endpoint_Write_Control_PStream_LE+0xe6>
    2752:	af cf       	rjmp	.-162    	; 0x26b2 <Endpoint_Write_Control_PStream_LE+0x44>
    2754:	d1 10       	cpse	r13, r1
    2756:	ad cf       	rjmp	.-166    	; 0x26b2 <Endpoint_Write_Control_PStream_LE+0x44>
    2758:	0a c0       	rjmp	.+20     	; 0x276e <Endpoint_Write_Control_PStream_LE+0x100>
    275a:	80 91 dd 95 	lds	r24, 0x95DD	; 0x8095dd <USB_DeviceState>
    275e:	88 23       	and	r24, r24
    2760:	91 f0       	breq	.+36     	; 0x2786 <Endpoint_Write_Control_PStream_LE+0x118>
    2762:	85 30       	cpi	r24, 0x05	; 5
    2764:	91 f0       	breq	.+36     	; 0x278a <Endpoint_Write_Control_PStream_LE+0x11c>
    2766:	0e 94 7f 14 	call	0x28fe	; 0x28fe <Endpoint_IsSETUPReceived>
    276a:	81 11       	cpse	r24, r1
    276c:	10 c0       	rjmp	.+32     	; 0x278e <Endpoint_Write_Control_PStream_LE+0x120>
    276e:	0e 94 65 14 	call	0x28ca	; 0x28ca <Endpoint_IsOUTReceived>
    2772:	88 23       	and	r24, r24
    2774:	91 f3       	breq	.-28     	; 0x275a <Endpoint_Write_Control_PStream_LE+0xec>
    2776:	80 e0       	ldi	r24, 0x00	; 0
    2778:	0b c0       	rjmp	.+22     	; 0x2790 <Endpoint_Write_Control_PStream_LE+0x122>
    277a:	82 e0       	ldi	r24, 0x02	; 2
    277c:	09 c0       	rjmp	.+18     	; 0x2790 <Endpoint_Write_Control_PStream_LE+0x122>
    277e:	83 e0       	ldi	r24, 0x03	; 3
    2780:	07 c0       	rjmp	.+14     	; 0x2790 <Endpoint_Write_Control_PStream_LE+0x122>
    2782:	81 e0       	ldi	r24, 0x01	; 1
    2784:	05 c0       	rjmp	.+10     	; 0x2790 <Endpoint_Write_Control_PStream_LE+0x122>
    2786:	82 e0       	ldi	r24, 0x02	; 2
    2788:	03 c0       	rjmp	.+6      	; 0x2790 <Endpoint_Write_Control_PStream_LE+0x122>
    278a:	83 e0       	ldi	r24, 0x03	; 3
    278c:	01 c0       	rjmp	.+2      	; 0x2790 <Endpoint_Write_Control_PStream_LE+0x122>
    278e:	81 e0       	ldi	r24, 0x01	; 1
    2790:	df 91       	pop	r29
    2792:	cf 91       	pop	r28
    2794:	1f 91       	pop	r17
    2796:	0f 91       	pop	r16
    2798:	ff 90       	pop	r15
    279a:	ef 90       	pop	r14
    279c:	df 90       	pop	r13
    279e:	08 95       	ret

000027a0 <Endpoint_ClearIN>:
    27a0:	e0 91 e8 95 	lds	r30, 0x95E8	; 0x8095e8 <USB_Endpoint_SelectedHandle>
    27a4:	f0 91 e9 95 	lds	r31, 0x95E9	; 0x8095e9 <USB_Endpoint_SelectedHandle+0x1>
    27a8:	a0 91 e6 95 	lds	r26, 0x95E6	; 0x8095e6 <USB_Endpoint_SelectedFIFO>
    27ac:	b0 91 e7 95 	lds	r27, 0x95E7	; 0x8095e7 <USB_Endpoint_SelectedFIFO+0x1>
    27b0:	af 5b       	subi	r26, 0xBF	; 191
    27b2:	bf 4f       	sbci	r27, 0xFF	; 255
    27b4:	8c 91       	ld	r24, X
    27b6:	90 e0       	ldi	r25, 0x00	; 0
    27b8:	82 83       	std	Z+2, r24	; 0x02
    27ba:	93 83       	std	Z+3, r25	; 0x03
    27bc:	80 81       	ld	r24, Z
    27be:	8d 79       	andi	r24, 0x9D	; 157
    27c0:	80 83       	st	Z, r24
    27c2:	e0 91 e6 95 	lds	r30, 0x95E6	; 0x8095e6 <USB_Endpoint_SelectedFIFO>
    27c6:	f0 91 e7 95 	lds	r31, 0x95E7	; 0x8095e7 <USB_Endpoint_SelectedFIFO+0x1>
    27ca:	ef 5b       	subi	r30, 0xBF	; 191
    27cc:	ff 4f       	sbci	r31, 0xFF	; 255
    27ce:	10 82       	st	Z, r1
    27d0:	08 95       	ret

000027d2 <Endpoint_ClearOUT>:
    27d2:	e0 91 e8 95 	lds	r30, 0x95E8	; 0x8095e8 <USB_Endpoint_SelectedHandle>
    27d6:	f0 91 e9 95 	lds	r31, 0x95E9	; 0x8095e9 <USB_Endpoint_SelectedHandle+0x1>
    27da:	80 81       	ld	r24, Z
    27dc:	8d 79       	andi	r24, 0x9D	; 157
    27de:	80 83       	st	Z, r24
    27e0:	e0 91 e6 95 	lds	r30, 0x95E6	; 0x8095e6 <USB_Endpoint_SelectedFIFO>
    27e4:	f0 91 e7 95 	lds	r31, 0x95E7	; 0x8095e7 <USB_Endpoint_SelectedFIFO+0x1>
    27e8:	ef 5b       	subi	r30, 0xBF	; 191
    27ea:	ff 4f       	sbci	r31, 0xFF	; 255
    27ec:	10 82       	st	Z, r1
    27ee:	08 95       	ret

000027f0 <Endpoint_Read_8>:
    27f0:	80 91 e6 95 	lds	r24, 0x95E6	; 0x8095e6 <USB_Endpoint_SelectedFIFO>
    27f4:	90 91 e7 95 	lds	r25, 0x95E7	; 0x8095e7 <USB_Endpoint_SelectedFIFO+0x1>
    27f8:	fc 01       	movw	r30, r24
    27fa:	ef 5b       	subi	r30, 0xBF	; 191
    27fc:	ff 4f       	sbci	r31, 0xFF	; 255
    27fe:	20 81       	ld	r18, Z
    2800:	31 e0       	ldi	r19, 0x01	; 1
    2802:	32 0f       	add	r19, r18
    2804:	30 83       	st	Z, r19
    2806:	fc 01       	movw	r30, r24
    2808:	e2 0f       	add	r30, r18
    280a:	f1 1d       	adc	r31, r1
    280c:	80 81       	ld	r24, Z
    280e:	08 95       	ret

00002810 <Endpoint_Write_8>:
    2810:	20 91 e6 95 	lds	r18, 0x95E6	; 0x8095e6 <USB_Endpoint_SelectedFIFO>
    2814:	30 91 e7 95 	lds	r19, 0x95E7	; 0x8095e7 <USB_Endpoint_SelectedFIFO+0x1>
    2818:	f9 01       	movw	r30, r18
    281a:	ef 5b       	subi	r30, 0xBF	; 191
    281c:	ff 4f       	sbci	r31, 0xFF	; 255
    281e:	90 81       	ld	r25, Z
    2820:	41 e0       	ldi	r20, 0x01	; 1
    2822:	49 0f       	add	r20, r25
    2824:	40 83       	st	Z, r20
    2826:	f9 01       	movw	r30, r18
    2828:	e9 0f       	add	r30, r25
    282a:	f1 1d       	adc	r31, r1
    282c:	80 83       	st	Z, r24
    282e:	08 95       	ret

00002830 <Endpoint_SelectEndpoint>:
    2830:	80 93 ea 95 	sts	0x95EA, r24	; 0x8095ea <USB_Endpoint_SelectedEndpoint>
    2834:	28 2f       	mov	r18, r24
    2836:	2f 70       	andi	r18, 0x0F	; 15
    2838:	30 e0       	ldi	r19, 0x00	; 0
    283a:	40 91 c6 04 	lds	r20, 0x04C6	; 0x8004c6 <__TEXT_REGION_LENGTH__+0x7004c6>
    283e:	50 91 c7 04 	lds	r21, 0x04C7	; 0x8004c7 <__TEXT_REGION_LENGTH__+0x7004c7>
    2842:	88 23       	and	r24, r24
    2844:	e4 f4       	brge	.+56     	; 0x287e <Endpoint_SelectEndpoint+0x4e>
    2846:	64 e8       	ldi	r22, 0x84	; 132
    2848:	62 9f       	mul	r22, r18
    284a:	c0 01       	movw	r24, r0
    284c:	63 9f       	mul	r22, r19
    284e:	90 0d       	add	r25, r0
    2850:	11 24       	eor	r1, r1
    2852:	83 5d       	subi	r24, 0xD3	; 211
    2854:	99 46       	sbci	r25, 0x69	; 105
    2856:	80 93 e6 95 	sts	0x95E6, r24	; 0x8095e6 <USB_Endpoint_SelectedFIFO>
    285a:	90 93 e7 95 	sts	0x95E7, r25	; 0x8095e7 <USB_Endpoint_SelectedFIFO+0x1>
    285e:	c9 01       	movw	r24, r18
    2860:	82 95       	swap	r24
    2862:	92 95       	swap	r25
    2864:	90 7f       	andi	r25, 0xF0	; 240
    2866:	98 27       	eor	r25, r24
    2868:	80 7f       	andi	r24, 0xF0	; 240
    286a:	98 27       	eor	r25, r24
    286c:	08 96       	adiw	r24, 0x08	; 8
    286e:	9a 01       	movw	r18, r20
    2870:	28 0f       	add	r18, r24
    2872:	39 1f       	adc	r19, r25
    2874:	20 93 e8 95 	sts	0x95E8, r18	; 0x8095e8 <USB_Endpoint_SelectedHandle>
    2878:	30 93 e9 95 	sts	0x95E9, r19	; 0x8095e9 <USB_Endpoint_SelectedHandle+0x1>
    287c:	08 95       	ret
    287e:	64 e8       	ldi	r22, 0x84	; 132
    2880:	62 9f       	mul	r22, r18
    2882:	c0 01       	movw	r24, r0
    2884:	63 9f       	mul	r22, r19
    2886:	90 0d       	add	r25, r0
    2888:	11 24       	eor	r1, r1
    288a:	85 51       	subi	r24, 0x15	; 21
    288c:	9a 46       	sbci	r25, 0x6A	; 106
    288e:	80 93 e6 95 	sts	0x95E6, r24	; 0x8095e6 <USB_Endpoint_SelectedFIFO>
    2892:	90 93 e7 95 	sts	0x95E7, r25	; 0x8095e7 <USB_Endpoint_SelectedFIFO+0x1>
    2896:	22 95       	swap	r18
    2898:	32 95       	swap	r19
    289a:	30 7f       	andi	r19, 0xF0	; 240
    289c:	32 27       	eor	r19, r18
    289e:	20 7f       	andi	r18, 0xF0	; 240
    28a0:	32 27       	eor	r19, r18
    28a2:	24 0f       	add	r18, r20
    28a4:	35 1f       	adc	r19, r21
    28a6:	20 93 e8 95 	sts	0x95E8, r18	; 0x8095e8 <USB_Endpoint_SelectedHandle>
    28aa:	30 93 e9 95 	sts	0x95E9, r19	; 0x8095e9 <USB_Endpoint_SelectedHandle+0x1>
    28ae:	08 95       	ret

000028b0 <Endpoint_IsINReady>:
    28b0:	80 91 ea 95 	lds	r24, 0x95EA	; 0x8095ea <USB_Endpoint_SelectedEndpoint>
    28b4:	80 68       	ori	r24, 0x80	; 128
    28b6:	0e 94 18 14 	call	0x2830	; 0x2830 <Endpoint_SelectEndpoint>
    28ba:	e0 91 e8 95 	lds	r30, 0x95E8	; 0x8095e8 <USB_Endpoint_SelectedHandle>
    28be:	f0 91 e9 95 	lds	r31, 0x95E9	; 0x8095e9 <USB_Endpoint_SelectedHandle+0x1>
    28c2:	80 81       	ld	r24, Z
    28c4:	86 95       	lsr	r24
    28c6:	81 70       	andi	r24, 0x01	; 1
    28c8:	08 95       	ret

000028ca <Endpoint_IsOUTReceived>:
    28ca:	80 91 ea 95 	lds	r24, 0x95EA	; 0x8095ea <USB_Endpoint_SelectedEndpoint>
    28ce:	8f 77       	andi	r24, 0x7F	; 127
    28d0:	0e 94 18 14 	call	0x2830	; 0x2830 <Endpoint_SelectEndpoint>
    28d4:	e0 91 e8 95 	lds	r30, 0x95E8	; 0x8095e8 <USB_Endpoint_SelectedHandle>
    28d8:	f0 91 e9 95 	lds	r31, 0x95E9	; 0x8095e9 <USB_Endpoint_SelectedHandle+0x1>
    28dc:	80 81       	ld	r24, Z
    28de:	85 ff       	sbrs	r24, 5
    28e0:	0c c0       	rjmp	.+24     	; 0x28fa <Endpoint_IsOUTReceived+0x30>
    28e2:	80 91 e6 95 	lds	r24, 0x95E6	; 0x8095e6 <USB_Endpoint_SelectedFIFO>
    28e6:	90 91 e7 95 	lds	r25, 0x95E7	; 0x8095e7 <USB_Endpoint_SelectedFIFO+0x1>
    28ea:	22 81       	ldd	r18, Z+2	; 0x02
    28ec:	33 81       	ldd	r19, Z+3	; 0x03
    28ee:	fc 01       	movw	r30, r24
    28f0:	e0 5c       	subi	r30, 0xC0	; 192
    28f2:	ff 4f       	sbci	r31, 0xFF	; 255
    28f4:	20 83       	st	Z, r18
    28f6:	81 e0       	ldi	r24, 0x01	; 1
    28f8:	08 95       	ret
    28fa:	80 e0       	ldi	r24, 0x00	; 0
    28fc:	08 95       	ret

000028fe <Endpoint_IsSETUPReceived>:
    28fe:	80 91 ea 95 	lds	r24, 0x95EA	; 0x8095ea <USB_Endpoint_SelectedEndpoint>
    2902:	8f 77       	andi	r24, 0x7F	; 127
    2904:	0e 94 18 14 	call	0x2830	; 0x2830 <Endpoint_SelectEndpoint>
    2908:	e0 91 e8 95 	lds	r30, 0x95E8	; 0x8095e8 <USB_Endpoint_SelectedHandle>
    290c:	f0 91 e9 95 	lds	r31, 0x95E9	; 0x8095e9 <USB_Endpoint_SelectedHandle+0x1>
    2910:	80 81       	ld	r24, Z
    2912:	84 ff       	sbrs	r24, 4
    2914:	0c c0       	rjmp	.+24     	; 0x292e <Endpoint_IsSETUPReceived+0x30>
    2916:	80 91 e6 95 	lds	r24, 0x95E6	; 0x8095e6 <USB_Endpoint_SelectedFIFO>
    291a:	90 91 e7 95 	lds	r25, 0x95E7	; 0x8095e7 <USB_Endpoint_SelectedFIFO+0x1>
    291e:	22 81       	ldd	r18, Z+2	; 0x02
    2920:	33 81       	ldd	r19, Z+3	; 0x03
    2922:	fc 01       	movw	r30, r24
    2924:	e0 5c       	subi	r30, 0xC0	; 192
    2926:	ff 4f       	sbci	r31, 0xFF	; 255
    2928:	20 83       	st	Z, r18
    292a:	81 e0       	ldi	r24, 0x01	; 1
    292c:	08 95       	ret
    292e:	80 e0       	ldi	r24, 0x00	; 0
    2930:	08 95       	ret

00002932 <Endpoint_ClearSETUP>:
    2932:	80 91 ea 95 	lds	r24, 0x95EA	; 0x8095ea <USB_Endpoint_SelectedEndpoint>
    2936:	8f 77       	andi	r24, 0x7F	; 127
    2938:	0e 94 18 14 	call	0x2830	; 0x2830 <Endpoint_SelectEndpoint>
    293c:	e0 91 e8 95 	lds	r30, 0x95E8	; 0x8095e8 <USB_Endpoint_SelectedHandle>
    2940:	f0 91 e9 95 	lds	r31, 0x95E9	; 0x8095e9 <USB_Endpoint_SelectedHandle+0x1>
    2944:	80 81       	ld	r24, Z
    2946:	8d 78       	andi	r24, 0x8D	; 141
    2948:	80 83       	st	Z, r24
    294a:	e0 91 e8 95 	lds	r30, 0x95E8	; 0x8095e8 <USB_Endpoint_SelectedHandle>
    294e:	f0 91 e9 95 	lds	r31, 0x95E9	; 0x8095e9 <USB_Endpoint_SelectedHandle+0x1>
    2952:	80 81       	ld	r24, Z
    2954:	81 60       	ori	r24, 0x01	; 1
    2956:	80 83       	st	Z, r24
    2958:	e0 91 e6 95 	lds	r30, 0x95E6	; 0x8095e6 <USB_Endpoint_SelectedFIFO>
    295c:	f0 91 e7 95 	lds	r31, 0x95E7	; 0x8095e7 <USB_Endpoint_SelectedFIFO+0x1>
    2960:	ef 5b       	subi	r30, 0xBF	; 191
    2962:	ff 4f       	sbci	r31, 0xFF	; 255
    2964:	10 82       	st	Z, r1
    2966:	80 91 ea 95 	lds	r24, 0x95EA	; 0x8095ea <USB_Endpoint_SelectedEndpoint>
    296a:	80 68       	ori	r24, 0x80	; 128
    296c:	0e 94 18 14 	call	0x2830	; 0x2830 <Endpoint_SelectEndpoint>
    2970:	e0 91 e8 95 	lds	r30, 0x95E8	; 0x8095e8 <USB_Endpoint_SelectedHandle>
    2974:	f0 91 e9 95 	lds	r31, 0x95E9	; 0x8095e9 <USB_Endpoint_SelectedHandle+0x1>
    2978:	80 81       	ld	r24, Z
    297a:	81 60       	ori	r24, 0x01	; 1
    297c:	80 83       	st	Z, r24
    297e:	e0 91 e6 95 	lds	r30, 0x95E6	; 0x8095e6 <USB_Endpoint_SelectedFIFO>
    2982:	f0 91 e7 95 	lds	r31, 0x95E7	; 0x8095e7 <USB_Endpoint_SelectedFIFO+0x1>
    2986:	ef 5b       	subi	r30, 0xBF	; 191
    2988:	ff 4f       	sbci	r31, 0xFF	; 255
    298a:	10 82       	st	Z, r1
    298c:	08 95       	ret

0000298e <Endpoint_StallTransaction>:
    298e:	e0 91 e8 95 	lds	r30, 0x95E8	; 0x8095e8 <USB_Endpoint_SelectedHandle>
    2992:	f0 91 e9 95 	lds	r31, 0x95E9	; 0x8095e9 <USB_Endpoint_SelectedHandle+0x1>
    2996:	81 81       	ldd	r24, Z+1	; 0x01
    2998:	84 60       	ori	r24, 0x04	; 4
    299a:	81 83       	std	Z+1, r24	; 0x01
    299c:	e0 91 e8 95 	lds	r30, 0x95E8	; 0x8095e8 <USB_Endpoint_SelectedHandle>
    29a0:	f0 91 e9 95 	lds	r31, 0x95E9	; 0x8095e9 <USB_Endpoint_SelectedHandle+0x1>
    29a4:	81 81       	ldd	r24, Z+1	; 0x01
    29a6:	80 7c       	andi	r24, 0xC0	; 192
    29a8:	80 34       	cpi	r24, 0x40	; 64
    29aa:	61 f4       	brne	.+24     	; 0x29c4 <Endpoint_StallTransaction+0x36>
    29ac:	80 91 ea 95 	lds	r24, 0x95EA	; 0x8095ea <USB_Endpoint_SelectedEndpoint>
    29b0:	80 58       	subi	r24, 0x80	; 128
    29b2:	0e 94 18 14 	call	0x2830	; 0x2830 <Endpoint_SelectEndpoint>
    29b6:	e0 91 e8 95 	lds	r30, 0x95E8	; 0x8095e8 <USB_Endpoint_SelectedHandle>
    29ba:	f0 91 e9 95 	lds	r31, 0x95E9	; 0x8095e9 <USB_Endpoint_SelectedHandle+0x1>
    29be:	81 81       	ldd	r24, Z+1	; 0x01
    29c0:	84 60       	ori	r24, 0x04	; 4
    29c2:	81 83       	std	Z+1, r24	; 0x01
    29c4:	08 95       	ret

000029c6 <Endpoint_ConfigureEndpoint_PRV>:
    29c6:	1f 93       	push	r17
    29c8:	cf 93       	push	r28
    29ca:	df 93       	push	r29
    29cc:	d8 2f       	mov	r29, r24
    29ce:	16 2f       	mov	r17, r22
    29d0:	c4 2f       	mov	r28, r20
    29d2:	0e 94 18 14 	call	0x2830	; 0x2830 <Endpoint_SelectEndpoint>
    29d6:	e0 91 e8 95 	lds	r30, 0x95E8	; 0x8095e8 <USB_Endpoint_SelectedHandle>
    29da:	f0 91 e9 95 	lds	r31, 0x95E9	; 0x8095e9 <USB_Endpoint_SelectedHandle+0x1>
    29de:	11 82       	std	Z+1, r1	; 0x01
    29e0:	e0 91 e8 95 	lds	r30, 0x95E8	; 0x8095e8 <USB_Endpoint_SelectedHandle>
    29e4:	f0 91 e9 95 	lds	r31, 0x95E9	; 0x8095e9 <USB_Endpoint_SelectedHandle+0x1>
    29e8:	dd 23       	and	r29, r29
    29ea:	a4 f0       	brlt	.+40     	; 0x2a14 <Endpoint_ConfigureEndpoint_PRV+0x4e>
    29ec:	10 82       	st	Z, r1
    29ee:	e0 91 e8 95 	lds	r30, 0x95E8	; 0x8095e8 <USB_Endpoint_SelectedHandle>
    29f2:	f0 91 e9 95 	lds	r31, 0x95E9	; 0x8095e9 <USB_Endpoint_SelectedHandle+0x1>
    29f6:	11 83       	std	Z+1, r17	; 0x01
    29f8:	e0 91 e8 95 	lds	r30, 0x95E8	; 0x8095e8 <USB_Endpoint_SelectedHandle>
    29fc:	f0 91 e9 95 	lds	r31, 0x95E9	; 0x8095e9 <USB_Endpoint_SelectedHandle+0x1>
    2a00:	12 82       	std	Z+2, r1	; 0x02
    2a02:	13 82       	std	Z+3, r1	; 0x03
    2a04:	80 91 e6 95 	lds	r24, 0x95E6	; 0x8095e6 <USB_Endpoint_SelectedFIFO>
    2a08:	90 91 e7 95 	lds	r25, 0x95E7	; 0x8095e7 <USB_Endpoint_SelectedFIFO+0x1>
    2a0c:	84 83       	std	Z+4, r24	; 0x04
    2a0e:	95 83       	std	Z+5, r25	; 0x05
    2a10:	40 e0       	ldi	r20, 0x00	; 0
    2a12:	14 c0       	rjmp	.+40     	; 0x2a3c <Endpoint_ConfigureEndpoint_PRV+0x76>
    2a14:	82 e0       	ldi	r24, 0x02	; 2
    2a16:	80 83       	st	Z, r24
    2a18:	e0 91 e8 95 	lds	r30, 0x95E8	; 0x8095e8 <USB_Endpoint_SelectedHandle>
    2a1c:	f0 91 e9 95 	lds	r31, 0x95E9	; 0x8095e9 <USB_Endpoint_SelectedHandle+0x1>
    2a20:	11 83       	std	Z+1, r17	; 0x01
    2a22:	e0 91 e8 95 	lds	r30, 0x95E8	; 0x8095e8 <USB_Endpoint_SelectedHandle>
    2a26:	f0 91 e9 95 	lds	r31, 0x95E9	; 0x8095e9 <USB_Endpoint_SelectedHandle+0x1>
    2a2a:	12 82       	std	Z+2, r1	; 0x02
    2a2c:	13 82       	std	Z+3, r1	; 0x03
    2a2e:	80 91 e6 95 	lds	r24, 0x95E6	; 0x8095e6 <USB_Endpoint_SelectedFIFO>
    2a32:	90 91 e7 95 	lds	r25, 0x95E7	; 0x8095e7 <USB_Endpoint_SelectedFIFO+0x1>
    2a36:	84 83       	std	Z+4, r24	; 0x04
    2a38:	95 83       	std	Z+5, r25	; 0x05
    2a3a:	4c 2f       	mov	r20, r28
    2a3c:	fc 01       	movw	r30, r24
    2a3e:	e0 5c       	subi	r30, 0xC0	; 192
    2a40:	ff 4f       	sbci	r31, 0xFF	; 255
    2a42:	40 83       	st	Z, r20
    2a44:	31 96       	adiw	r30, 0x01	; 1
    2a46:	10 82       	st	Z, r1
    2a48:	81 e0       	ldi	r24, 0x01	; 1
    2a4a:	df 91       	pop	r29
    2a4c:	cf 91       	pop	r28
    2a4e:	1f 91       	pop	r17
    2a50:	08 95       	ret

00002a52 <Endpoint_ConfigureEndpointTable>:
    2a52:	af 92       	push	r10
    2a54:	bf 92       	push	r11
    2a56:	cf 92       	push	r12
    2a58:	df 92       	push	r13
    2a5a:	ef 92       	push	r14
    2a5c:	ff 92       	push	r15
    2a5e:	0f 93       	push	r16
    2a60:	1f 93       	push	r17
    2a62:	cf 93       	push	r28
    2a64:	df 93       	push	r29
    2a66:	66 23       	and	r22, r22
    2a68:	09 f4       	brne	.+2      	; 0x2a6c <Endpoint_ConfigureEndpointTable+0x1a>
    2a6a:	57 c0       	rjmp	.+174    	; 0x2b1a <Endpoint_ConfigureEndpointTable+0xc8>
    2a6c:	a6 2e       	mov	r10, r22
    2a6e:	7c 01       	movw	r14, r24
    2a70:	8c 01       	movw	r16, r24
    2a72:	84 e0       	ldi	r24, 0x04	; 4
    2a74:	e8 0e       	add	r14, r24
    2a76:	f1 1c       	adc	r15, r1
    2a78:	b1 2c       	mov	r11, r1
    2a7a:	f8 01       	movw	r30, r16
    2a7c:	c0 80       	ld	r12, Z
    2a7e:	cc 20       	and	r12, r12
    2a80:	09 f4       	brne	.+2      	; 0x2a84 <Endpoint_ConfigureEndpointTable+0x32>
    2a82:	41 c0       	rjmp	.+130    	; 0x2b06 <Endpoint_ConfigureEndpointTable+0xb4>
    2a84:	c1 81       	ldd	r28, Z+1	; 0x01
    2a86:	d2 81       	ldd	r29, Z+2	; 0x02
    2a88:	f7 01       	movw	r30, r14
    2a8a:	31 97       	sbiw	r30, 0x01	; 1
    2a8c:	80 81       	ld	r24, Z
    2a8e:	f7 01       	movw	r30, r14
    2a90:	90 81       	ld	r25, Z
    2a92:	92 30       	cpi	r25, 0x02	; 2
    2a94:	10 f4       	brcc	.+4      	; 0x2a9a <Endpoint_ConfigureEndpointTable+0x48>
    2a96:	48 e0       	ldi	r20, 0x08	; 8
    2a98:	01 c0       	rjmp	.+2      	; 0x2a9c <Endpoint_ConfigureEndpointTable+0x4a>
    2a9a:	48 e1       	ldi	r20, 0x18	; 24
    2a9c:	c9 30       	cpi	r28, 0x09	; 9
    2a9e:	d1 05       	cpc	r29, r1
    2aa0:	50 f0       	brcs	.+20     	; 0x2ab6 <Endpoint_ConfigureEndpointTable+0x64>
    2aa2:	28 e0       	ldi	r18, 0x08	; 8
    2aa4:	30 e0       	ldi	r19, 0x00	; 0
    2aa6:	90 e0       	ldi	r25, 0x00	; 0
    2aa8:	9f 5f       	subi	r25, 0xFF	; 255
    2aaa:	22 0f       	add	r18, r18
    2aac:	33 1f       	adc	r19, r19
    2aae:	2c 17       	cp	r18, r28
    2ab0:	3d 07       	cpc	r19, r29
    2ab2:	d0 f3       	brcs	.-12     	; 0x2aa8 <Endpoint_ConfigureEndpointTable+0x56>
    2ab4:	01 c0       	rjmp	.+2      	; 0x2ab8 <Endpoint_ConfigureEndpointTable+0x66>
    2ab6:	90 e0       	ldi	r25, 0x00	; 0
    2ab8:	94 2b       	or	r25, r20
    2aba:	2c 2d       	mov	r18, r12
    2abc:	2f 70       	andi	r18, 0x0F	; 15
    2abe:	30 e0       	ldi	r19, 0x00	; 0
    2ac0:	25 30       	cpi	r18, 0x05	; 5
    2ac2:	31 05       	cpc	r19, r1
    2ac4:	64 f5       	brge	.+88     	; 0x2b1e <Endpoint_ConfigureEndpointTable+0xcc>
    2ac6:	9f 7e       	andi	r25, 0xEF	; 239
    2ac8:	c1 34       	cpi	r28, 0x41	; 65
    2aca:	d1 05       	cpc	r29, r1
    2acc:	50 f5       	brcc	.+84     	; 0x2b22 <Endpoint_ConfigureEndpointTable+0xd0>
    2ace:	88 23       	and	r24, r24
    2ad0:	19 f0       	breq	.+6      	; 0x2ad8 <Endpoint_ConfigureEndpointTable+0x86>
    2ad2:	81 30       	cpi	r24, 0x01	; 1
    2ad4:	21 f0       	breq	.+8      	; 0x2ade <Endpoint_ConfigureEndpointTable+0x8c>
    2ad6:	06 c0       	rjmp	.+12     	; 0x2ae4 <Endpoint_ConfigureEndpointTable+0x92>
    2ad8:	90 64       	ori	r25, 0x40	; 64
    2ada:	d9 2e       	mov	r13, r25
    2adc:	07 c0       	rjmp	.+14     	; 0x2aec <Endpoint_ConfigureEndpointTable+0x9a>
    2ade:	90 6c       	ori	r25, 0xC0	; 192
    2ae0:	d9 2e       	mov	r13, r25
    2ae2:	0a c0       	rjmp	.+20     	; 0x2af8 <Endpoint_ConfigureEndpointTable+0xa6>
    2ae4:	90 68       	ori	r25, 0x80	; 128
    2ae6:	d9 2e       	mov	r13, r25
    2ae8:	81 11       	cpse	r24, r1
    2aea:	06 c0       	rjmp	.+12     	; 0x2af8 <Endpoint_ConfigureEndpointTable+0xa6>
    2aec:	4c 2f       	mov	r20, r28
    2aee:	6d 2d       	mov	r22, r13
    2af0:	80 e8       	ldi	r24, 0x80	; 128
    2af2:	8c 0d       	add	r24, r12
    2af4:	0e 94 e3 14 	call	0x29c6	; 0x29c6 <Endpoint_ConfigureEndpoint_PRV>
    2af8:	4c 2f       	mov	r20, r28
    2afa:	6d 2d       	mov	r22, r13
    2afc:	8c 2d       	mov	r24, r12
    2afe:	0e 94 e3 14 	call	0x29c6	; 0x29c6 <Endpoint_ConfigureEndpoint_PRV>
    2b02:	88 23       	and	r24, r24
    2b04:	79 f0       	breq	.+30     	; 0x2b24 <Endpoint_ConfigureEndpointTable+0xd2>
    2b06:	b3 94       	inc	r11
    2b08:	0b 5f       	subi	r16, 0xFB	; 251
    2b0a:	1f 4f       	sbci	r17, 0xFF	; 255
    2b0c:	f5 e0       	ldi	r31, 0x05	; 5
    2b0e:	ef 0e       	add	r14, r31
    2b10:	f1 1c       	adc	r15, r1
    2b12:	ba 10       	cpse	r11, r10
    2b14:	b2 cf       	rjmp	.-156    	; 0x2a7a <Endpoint_ConfigureEndpointTable+0x28>
    2b16:	81 e0       	ldi	r24, 0x01	; 1
    2b18:	05 c0       	rjmp	.+10     	; 0x2b24 <Endpoint_ConfigureEndpointTable+0xd2>
    2b1a:	81 e0       	ldi	r24, 0x01	; 1
    2b1c:	03 c0       	rjmp	.+6      	; 0x2b24 <Endpoint_ConfigureEndpointTable+0xd2>
    2b1e:	80 e0       	ldi	r24, 0x00	; 0
    2b20:	01 c0       	rjmp	.+2      	; 0x2b24 <Endpoint_ConfigureEndpointTable+0xd2>
    2b22:	80 e0       	ldi	r24, 0x00	; 0
    2b24:	df 91       	pop	r29
    2b26:	cf 91       	pop	r28
    2b28:	1f 91       	pop	r17
    2b2a:	0f 91       	pop	r16
    2b2c:	ff 90       	pop	r15
    2b2e:	ef 90       	pop	r14
    2b30:	df 90       	pop	r13
    2b32:	cf 90       	pop	r12
    2b34:	bf 90       	pop	r11
    2b36:	af 90       	pop	r10
    2b38:	08 95       	ret

00002b3a <Endpoint_ClearEndpoints>:
    2b3a:	20 e0       	ldi	r18, 0x00	; 0
    2b3c:	30 e0       	ldi	r19, 0x00	; 0
    2b3e:	a0 ec       	ldi	r26, 0xC0	; 192
    2b40:	b4 e0       	ldi	r27, 0x04	; 4
    2b42:	16 96       	adiw	r26, 0x06	; 6
    2b44:	ed 91       	ld	r30, X+
    2b46:	fc 91       	ld	r31, X
    2b48:	17 97       	sbiw	r26, 0x07	; 7
    2b4a:	c9 01       	movw	r24, r18
    2b4c:	82 95       	swap	r24
    2b4e:	92 95       	swap	r25
    2b50:	90 7f       	andi	r25, 0xF0	; 240
    2b52:	98 27       	eor	r25, r24
    2b54:	80 7f       	andi	r24, 0xF0	; 240
    2b56:	98 27       	eor	r25, r24
    2b58:	e8 0f       	add	r30, r24
    2b5a:	f9 1f       	adc	r31, r25
    2b5c:	11 86       	std	Z+9, r1	; 0x09
    2b5e:	16 96       	adiw	r26, 0x06	; 6
    2b60:	4d 91       	ld	r20, X+
    2b62:	5c 91       	ld	r21, X
    2b64:	17 97       	sbiw	r26, 0x07	; 7
    2b66:	fa 01       	movw	r30, r20
    2b68:	e8 0f       	add	r30, r24
    2b6a:	f9 1f       	adc	r31, r25
    2b6c:	11 82       	std	Z+1, r1	; 0x01
    2b6e:	2f 5f       	subi	r18, 0xFF	; 255
    2b70:	3f 4f       	sbci	r19, 0xFF	; 255
    2b72:	25 30       	cpi	r18, 0x05	; 5
    2b74:	31 05       	cpc	r19, r1
    2b76:	29 f7       	brne	.-54     	; 0x2b42 <Endpoint_ClearEndpoints+0x8>
    2b78:	08 95       	ret

00002b7a <Endpoint_ClearStatusStage>:
    2b7a:	80 91 de 95 	lds	r24, 0x95DE	; 0x8095de <USB_ControlRequest>
    2b7e:	88 23       	and	r24, r24
    2b80:	84 f4       	brge	.+32     	; 0x2ba2 <Endpoint_ClearStatusStage+0x28>
    2b82:	04 c0       	rjmp	.+8      	; 0x2b8c <Endpoint_ClearStatusStage+0x12>
    2b84:	80 91 dd 95 	lds	r24, 0x95DD	; 0x8095dd <USB_DeviceState>
    2b88:	88 23       	and	r24, r24
    2b8a:	89 f0       	breq	.+34     	; 0x2bae <Endpoint_ClearStatusStage+0x34>
    2b8c:	0e 94 65 14 	call	0x28ca	; 0x28ca <Endpoint_IsOUTReceived>
    2b90:	88 23       	and	r24, r24
    2b92:	c1 f3       	breq	.-16     	; 0x2b84 <Endpoint_ClearStatusStage+0xa>
    2b94:	0e 94 e9 13 	call	0x27d2	; 0x27d2 <Endpoint_ClearOUT>
    2b98:	08 95       	ret
    2b9a:	80 91 dd 95 	lds	r24, 0x95DD	; 0x8095dd <USB_DeviceState>
    2b9e:	88 23       	and	r24, r24
    2ba0:	31 f0       	breq	.+12     	; 0x2bae <Endpoint_ClearStatusStage+0x34>
    2ba2:	0e 94 58 14 	call	0x28b0	; 0x28b0 <Endpoint_IsINReady>
    2ba6:	88 23       	and	r24, r24
    2ba8:	c1 f3       	breq	.-16     	; 0x2b9a <Endpoint_ClearStatusStage+0x20>
    2baa:	0e 94 d0 13 	call	0x27a0	; 0x27a0 <Endpoint_ClearIN>
    2bae:	08 95       	ret

00002bb0 <Endpoint_WaitUntilReady>:
    2bb0:	ff 92       	push	r15
    2bb2:	0f 93       	push	r16
    2bb4:	1f 93       	push	r17
    2bb6:	cf 93       	push	r28
    2bb8:	df 93       	push	r29
    2bba:	e0 91 c6 04 	lds	r30, 0x04C6	; 0x8004c6 <__TEXT_REGION_LENGTH__+0x7004c6>
    2bbe:	f0 91 c7 04 	lds	r31, 0x04C7	; 0x8004c7 <__TEXT_REGION_LENGTH__+0x7004c7>
    2bc2:	e0 5b       	subi	r30, 0xB0	; 176
    2bc4:	ff 4f       	sbci	r31, 0xFF	; 255
    2bc6:	c0 81       	ld	r28, Z
    2bc8:	d1 81       	ldd	r29, Z+1	; 0x01
    2bca:	0f 2e       	mov	r0, r31
    2bcc:	f4 e6       	ldi	r31, 0x64	; 100
    2bce:	ff 2e       	mov	r15, r31
    2bd0:	f0 2d       	mov	r31, r0
    2bd2:	00 ec       	ldi	r16, 0xC0	; 192
    2bd4:	14 e0       	ldi	r17, 0x04	; 4
    2bd6:	02 c0       	rjmp	.+4      	; 0x2bdc <Endpoint_WaitUntilReady+0x2c>
    2bd8:	f2 2e       	mov	r15, r18
    2bda:	ec 01       	movw	r28, r24
    2bdc:	80 91 ea 95 	lds	r24, 0x95EA	; 0x8095ea <USB_Endpoint_SelectedEndpoint>
    2be0:	88 23       	and	r24, r24
    2be2:	2c f4       	brge	.+10     	; 0x2bee <Endpoint_WaitUntilReady+0x3e>
    2be4:	0e 94 58 14 	call	0x28b0	; 0x28b0 <Endpoint_IsINReady>
    2be8:	88 23       	and	r24, r24
    2bea:	29 f0       	breq	.+10     	; 0x2bf6 <Endpoint_WaitUntilReady+0x46>
    2bec:	23 c0       	rjmp	.+70     	; 0x2c34 <Endpoint_WaitUntilReady+0x84>
    2bee:	0e 94 65 14 	call	0x28ca	; 0x28ca <Endpoint_IsOUTReceived>
    2bf2:	81 11       	cpse	r24, r1
    2bf4:	21 c0       	rjmp	.+66     	; 0x2c38 <Endpoint_WaitUntilReady+0x88>
    2bf6:	80 91 dd 95 	lds	r24, 0x95DD	; 0x8095dd <USB_DeviceState>
    2bfa:	88 23       	and	r24, r24
    2bfc:	f9 f0       	breq	.+62     	; 0x2c3c <Endpoint_WaitUntilReady+0x8c>
    2bfe:	85 30       	cpi	r24, 0x05	; 5
    2c00:	f9 f0       	breq	.+62     	; 0x2c40 <Endpoint_WaitUntilReady+0x90>
    2c02:	e0 91 e8 95 	lds	r30, 0x95E8	; 0x8095e8 <USB_Endpoint_SelectedHandle>
    2c06:	f0 91 e9 95 	lds	r31, 0x95E9	; 0x8095e9 <USB_Endpoint_SelectedHandle+0x1>
    2c0a:	81 81       	ldd	r24, Z+1	; 0x01
    2c0c:	82 fd       	sbrc	r24, 2
    2c0e:	1a c0       	rjmp	.+52     	; 0x2c44 <Endpoint_WaitUntilReady+0x94>
    2c10:	d8 01       	movw	r26, r16
    2c12:	16 96       	adiw	r26, 0x06	; 6
    2c14:	ed 91       	ld	r30, X+
    2c16:	fc 91       	ld	r31, X
    2c18:	17 97       	sbiw	r26, 0x07	; 7
    2c1a:	e0 5b       	subi	r30, 0xB0	; 176
    2c1c:	ff 4f       	sbci	r31, 0xFF	; 255
    2c1e:	80 81       	ld	r24, Z
    2c20:	91 81       	ldd	r25, Z+1	; 0x01
    2c22:	c8 17       	cp	r28, r24
    2c24:	d9 07       	cpc	r29, r25
    2c26:	c9 f2       	breq	.-78     	; 0x2bda <Endpoint_WaitUntilReady+0x2a>
    2c28:	2f ef       	ldi	r18, 0xFF	; 255
    2c2a:	2f 0d       	add	r18, r15
    2c2c:	f1 10       	cpse	r15, r1
    2c2e:	d4 cf       	rjmp	.-88     	; 0x2bd8 <Endpoint_WaitUntilReady+0x28>
    2c30:	84 e0       	ldi	r24, 0x04	; 4
    2c32:	09 c0       	rjmp	.+18     	; 0x2c46 <Endpoint_WaitUntilReady+0x96>
    2c34:	80 e0       	ldi	r24, 0x00	; 0
    2c36:	07 c0       	rjmp	.+14     	; 0x2c46 <Endpoint_WaitUntilReady+0x96>
    2c38:	80 e0       	ldi	r24, 0x00	; 0
    2c3a:	05 c0       	rjmp	.+10     	; 0x2c46 <Endpoint_WaitUntilReady+0x96>
    2c3c:	82 e0       	ldi	r24, 0x02	; 2
    2c3e:	03 c0       	rjmp	.+6      	; 0x2c46 <Endpoint_WaitUntilReady+0x96>
    2c40:	83 e0       	ldi	r24, 0x03	; 3
    2c42:	01 c0       	rjmp	.+2      	; 0x2c46 <Endpoint_WaitUntilReady+0x96>
    2c44:	81 e0       	ldi	r24, 0x01	; 1
    2c46:	df 91       	pop	r29
    2c48:	cf 91       	pop	r28
    2c4a:	1f 91       	pop	r17
    2c4c:	0f 91       	pop	r16
    2c4e:	ff 90       	pop	r15
    2c50:	08 95       	ret

00002c52 <USB_ResetInterface>:
    2c52:	cf 93       	push	r28
    2c54:	df 93       	push	r29
    2c56:	e0 e4       	ldi	r30, 0x40	; 64
    2c58:	f0 e0       	ldi	r31, 0x00	; 0
    2c5a:	14 82       	std	Z+4, r1	; 0x04
    2c5c:	84 81       	ldd	r24, Z+4	; 0x04
    2c5e:	83 60       	ori	r24, 0x03	; 3
    2c60:	84 83       	std	Z+4, r24	; 0x04
    2c62:	0e 94 87 16 	call	0x2d0e	; 0x2d0e <USB_INT_DisableAllInterrupts>
    2c66:	0e 94 8e 16 	call	0x2d1c	; 0x2d1c <USB_INT_ClearAllInterrupts>
    2c6a:	c0 ec       	ldi	r28, 0xC0	; 192
    2c6c:	d4 e0       	ldi	r29, 0x04	; 4
    2c6e:	88 81       	ld	r24, Y
    2c70:	8f 77       	andi	r24, 0x7F	; 127
    2c72:	88 83       	st	Y, r24
    2c74:	88 81       	ld	r24, Y
    2c76:	80 68       	ori	r24, 0x80	; 128
    2c78:	88 83       	st	Y, r24
    2c7a:	10 92 dd 95 	sts	0x95DD, r1	; 0x8095dd <USB_DeviceState>
    2c7e:	10 92 d9 95 	sts	0x95D9, r1	; 0x8095d9 <USB_Device_ConfigurationNumber>
    2c82:	10 92 db 95 	sts	0x95DB, r1	; 0x8095db <USB_Device_RemoteWakeupEnabled>
    2c86:	10 92 da 95 	sts	0x95DA, r1	; 0x8095da <USB_Device_CurrentlySelfPowered>
    2c8a:	88 81       	ld	r24, Y
    2c8c:	80 64       	ori	r24, 0x40	; 64
    2c8e:	88 83       	st	Y, r24
    2c90:	48 e0       	ldi	r20, 0x08	; 8
    2c92:	68 e4       	ldi	r22, 0x48	; 72
    2c94:	80 e8       	ldi	r24, 0x80	; 128
    2c96:	0e 94 e3 14 	call	0x29c6	; 0x29c6 <Endpoint_ConfigureEndpoint_PRV>
    2c9a:	48 e0       	ldi	r20, 0x08	; 8
    2c9c:	68 e4       	ldi	r22, 0x48	; 72
    2c9e:	80 e0       	ldi	r24, 0x00	; 0
    2ca0:	0e 94 e3 14 	call	0x29c6	; 0x29c6 <Endpoint_ConfigureEndpoint_PRV>
    2ca4:	88 85       	ldd	r24, Y+8	; 0x08
    2ca6:	80 64       	ori	r24, 0x40	; 64
    2ca8:	88 87       	std	Y+8, r24	; 0x08
    2caa:	89 81       	ldd	r24, Y+1	; 0x01
    2cac:	81 60       	ori	r24, 0x01	; 1
    2cae:	89 83       	std	Y+1, r24	; 0x01
    2cb0:	df 91       	pop	r29
    2cb2:	cf 91       	pop	r28
    2cb4:	08 95       	ret

00002cb6 <USB_Init>:
    2cb6:	cf 93       	push	r28
    2cb8:	df 93       	push	r29
    2cba:	2f b7       	in	r18, 0x3f	; 63
    2cbc:	f8 94       	cli
    2cbe:	c0 ec       	ldi	r28, 0xC0	; 192
    2cc0:	d1 e0       	ldi	r29, 0x01	; 1
    2cc2:	82 e0       	ldi	r24, 0x02	; 2
    2cc4:	8a 87       	std	Y+10, r24	; 0x0a
    2cc6:	ea e1       	ldi	r30, 0x1A	; 26
    2cc8:	f0 e0       	ldi	r31, 0x00	; 0
    2cca:	e4 91       	lpm	r30, Z
    2ccc:	a0 ec       	ldi	r26, 0xC0	; 192
    2cce:	b4 e0       	ldi	r27, 0x04	; 4
    2cd0:	da 96       	adiw	r26, 0x3a	; 58
    2cd2:	ec 93       	st	X, r30
    2cd4:	da 97       	sbiw	r26, 0x3a	; 58
    2cd6:	eb e1       	ldi	r30, 0x1B	; 27
    2cd8:	f0 e0       	ldi	r31, 0x00	; 0
    2cda:	e4 91       	lpm	r30, Z
    2cdc:	db 96       	adiw	r26, 0x3b	; 59
    2cde:	ec 93       	st	X, r30
    2ce0:	db 97       	sbiw	r26, 0x3b	; 59
    2ce2:	1a 86       	std	Y+10, r1	; 0x0a
    2ce4:	80 e8       	ldi	r24, 0x80	; 128
    2ce6:	98 e9       	ldi	r25, 0x98	; 152
    2ce8:	8e 7f       	andi	r24, 0xFE	; 254
    2cea:	16 96       	adiw	r26, 0x06	; 6
    2cec:	8d 93       	st	X+, r24
    2cee:	9c 93       	st	X, r25
    2cf0:	17 97       	sbiw	r26, 0x07	; 7
    2cf2:	84 e1       	ldi	r24, 0x14	; 20
    2cf4:	8c 93       	st	X, r24
    2cf6:	83 e0       	ldi	r24, 0x03	; 3
    2cf8:	18 96       	adiw	r26, 0x08	; 8
    2cfa:	8c 93       	st	X, r24
    2cfc:	2f bf       	out	0x3f, r18	; 63
    2cfe:	81 e0       	ldi	r24, 0x01	; 1
    2d00:	80 93 dc 95 	sts	0x95DC, r24	; 0x8095dc <USB_IsInitialized>
    2d04:	0e 94 29 16 	call	0x2c52	; 0x2c52 <USB_ResetInterface>
    2d08:	df 91       	pop	r29
    2d0a:	cf 91       	pop	r28
    2d0c:	08 95       	ret

00002d0e <USB_INT_DisableAllInterrupts>:
    2d0e:	e0 ec       	ldi	r30, 0xC0	; 192
    2d10:	f4 e0       	ldi	r31, 0x04	; 4
    2d12:	80 85       	ldd	r24, Z+8	; 0x08
    2d14:	83 70       	andi	r24, 0x03	; 3
    2d16:	80 87       	std	Z+8, r24	; 0x08
    2d18:	11 86       	std	Z+9, r1	; 0x09
    2d1a:	08 95       	ret

00002d1c <USB_INT_ClearAllInterrupts>:
    2d1c:	e0 ec       	ldi	r30, 0xC0	; 192
    2d1e:	f4 e0       	ldi	r31, 0x04	; 4
    2d20:	8f ef       	ldi	r24, 0xFF	; 255
    2d22:	82 87       	std	Z+10, r24	; 0x0a
    2d24:	84 87       	std	Z+12, r24	; 0x0c
    2d26:	08 95       	ret

00002d28 <__vector_125>:
    2d28:	1f 92       	push	r1
    2d2a:	0f 92       	push	r0
    2d2c:	0f b6       	in	r0, 0x3f	; 63
    2d2e:	0f 92       	push	r0
    2d30:	11 24       	eor	r1, r1
    2d32:	0b b6       	in	r0, 0x3b	; 59
    2d34:	0f 92       	push	r0
    2d36:	2f 93       	push	r18
    2d38:	3f 93       	push	r19
    2d3a:	4f 93       	push	r20
    2d3c:	5f 93       	push	r21
    2d3e:	6f 93       	push	r22
    2d40:	7f 93       	push	r23
    2d42:	8f 93       	push	r24
    2d44:	9f 93       	push	r25
    2d46:	af 93       	push	r26
    2d48:	bf 93       	push	r27
    2d4a:	ef 93       	push	r30
    2d4c:	ff 93       	push	r31
    2d4e:	80 91 ca 04 	lds	r24, 0x04CA	; 0x8004ca <__TEXT_REGION_LENGTH__+0x7004ca>
    2d52:	88 23       	and	r24, r24
    2d54:	4c f4       	brge	.+18     	; 0x2d68 <__vector_125+0x40>
    2d56:	80 91 c8 04 	lds	r24, 0x04C8	; 0x8004c8 <__TEXT_REGION_LENGTH__+0x7004c8>
    2d5a:	88 23       	and	r24, r24
    2d5c:	2c f4       	brge	.+10     	; 0x2d68 <__vector_125+0x40>
    2d5e:	80 e8       	ldi	r24, 0x80	; 128
    2d60:	80 93 ca 04 	sts	0x04CA, r24	; 0x8004ca <__TEXT_REGION_LENGTH__+0x7004ca>
    2d64:	0e 94 8c 12 	call	0x2518	; 0x2518 <USB_Event_Stub>
    2d68:	80 91 ca 04 	lds	r24, 0x04CA	; 0x8004ca <__TEXT_REGION_LENGTH__+0x7004ca>
    2d6c:	86 ff       	sbrs	r24, 6
    2d6e:	07 c0       	rjmp	.+14     	; 0x2d7e <__vector_125+0x56>
    2d70:	80 e4       	ldi	r24, 0x40	; 64
    2d72:	80 93 ca 04 	sts	0x04CA, r24	; 0x8004ca <__TEXT_REGION_LENGTH__+0x7004ca>
    2d76:	10 92 dd 95 	sts	0x95DD, r1	; 0x8095dd <USB_DeviceState>
    2d7a:	0e 94 9a 1e 	call	0x3d34	; 0x3d34 <EVENT_USB_Device_Disconnect>
    2d7e:	80 91 ca 04 	lds	r24, 0x04CA	; 0x8004ca <__TEXT_REGION_LENGTH__+0x7004ca>
    2d82:	85 ff       	sbrs	r24, 5
    2d84:	16 c0       	rjmp	.+44     	; 0x2db2 <__vector_125+0x8a>
    2d86:	80 e2       	ldi	r24, 0x20	; 32
    2d88:	80 93 ca 04 	sts	0x04CA, r24	; 0x8004ca <__TEXT_REGION_LENGTH__+0x7004ca>
    2d8c:	80 91 d9 95 	lds	r24, 0x95D9	; 0x8095d9 <USB_Device_ConfigurationNumber>
    2d90:	88 23       	and	r24, r24
    2d92:	21 f0       	breq	.+8      	; 0x2d9c <__vector_125+0x74>
    2d94:	84 e0       	ldi	r24, 0x04	; 4
    2d96:	80 93 dd 95 	sts	0x95DD, r24	; 0x8095dd <USB_DeviceState>
    2d9a:	09 c0       	rjmp	.+18     	; 0x2dae <__vector_125+0x86>
    2d9c:	80 91 c3 04 	lds	r24, 0x04C3	; 0x8004c3 <__TEXT_REGION_LENGTH__+0x7004c3>
    2da0:	81 11       	cpse	r24, r1
    2da2:	02 c0       	rjmp	.+4      	; 0x2da8 <__vector_125+0x80>
    2da4:	81 e0       	ldi	r24, 0x01	; 1
    2da6:	01 c0       	rjmp	.+2      	; 0x2daa <__vector_125+0x82>
    2da8:	83 e0       	ldi	r24, 0x03	; 3
    2daa:	80 93 dd 95 	sts	0x95DD, r24	; 0x8095dd <USB_DeviceState>
    2dae:	0e 94 8d 1e 	call	0x3d1a	; 0x3d1a <EVENT_USB_Device_Connect>
    2db2:	80 91 ca 04 	lds	r24, 0x04CA	; 0x8004ca <__TEXT_REGION_LENGTH__+0x7004ca>
    2db6:	84 ff       	sbrs	r24, 4
    2db8:	18 c0       	rjmp	.+48     	; 0x2dea <__vector_125+0xc2>
    2dba:	e0 ec       	ldi	r30, 0xC0	; 192
    2dbc:	f4 e0       	ldi	r31, 0x04	; 4
    2dbe:	80 e1       	ldi	r24, 0x10	; 16
    2dc0:	82 87       	std	Z+10, r24	; 0x0a
    2dc2:	82 e0       	ldi	r24, 0x02	; 2
    2dc4:	80 93 dd 95 	sts	0x95DD, r24	; 0x8095dd <USB_DeviceState>
    2dc8:	10 92 d9 95 	sts	0x95D9, r1	; 0x8095d9 <USB_Device_ConfigurationNumber>
    2dcc:	13 82       	std	Z+3, r1	; 0x03
    2dce:	0e 94 9d 15 	call	0x2b3a	; 0x2b3a <Endpoint_ClearEndpoints>
    2dd2:	48 e0       	ldi	r20, 0x08	; 8
    2dd4:	68 e4       	ldi	r22, 0x48	; 72
    2dd6:	80 e8       	ldi	r24, 0x80	; 128
    2dd8:	0e 94 e3 14 	call	0x29c6	; 0x29c6 <Endpoint_ConfigureEndpoint_PRV>
    2ddc:	48 e0       	ldi	r20, 0x08	; 8
    2dde:	68 e4       	ldi	r22, 0x48	; 72
    2de0:	80 e0       	ldi	r24, 0x00	; 0
    2de2:	0e 94 e3 14 	call	0x29c6	; 0x29c6 <Endpoint_ConfigureEndpoint_PRV>
    2de6:	0e 94 8c 12 	call	0x2518	; 0x2518 <USB_Event_Stub>
    2dea:	ff 91       	pop	r31
    2dec:	ef 91       	pop	r30
    2dee:	bf 91       	pop	r27
    2df0:	af 91       	pop	r26
    2df2:	9f 91       	pop	r25
    2df4:	8f 91       	pop	r24
    2df6:	7f 91       	pop	r23
    2df8:	6f 91       	pop	r22
    2dfa:	5f 91       	pop	r21
    2dfc:	4f 91       	pop	r20
    2dfe:	3f 91       	pop	r19
    2e00:	2f 91       	pop	r18
    2e02:	0f 90       	pop	r0
    2e04:	0b be       	out	0x3b, r0	; 59
    2e06:	0f 90       	pop	r0
    2e08:	0f be       	out	0x3f, r0	; 63
    2e0a:	0f 90       	pop	r0
    2e0c:	1f 90       	pop	r1
    2e0e:	18 95       	reti

00002e10 <thread_6>:

		}

		if(!DigitalPin_GetValue(&mybutton4)){
			while(!DigitalPin_GetValue(&mybutton4));
			relayState4=!relayState4;
    2e10:	07 e0       	ldi	r16, 0x07	; 7
    2e12:	28 e1       	ldi	r18, 0x18	; 24
    2e14:	40 e0       	ldi	r20, 0x00	; 0
    2e16:	60 e0       	ldi	r22, 0x00	; 0
    2e18:	87 ec       	ldi	r24, 0xC7	; 199
    2e1a:	92 e2       	ldi	r25, 0x22	; 34
    2e1c:	0e 94 c3 1e 	call	0x3d86	; 0x3d86 <DigitalPin_Config>
    2e20:	28 e1       	ldi	r18, 0x18	; 24
    2e22:	40 e0       	ldi	r20, 0x00	; 0
    2e24:	60 e0       	ldi	r22, 0x00	; 0
    2e26:	84 ec       	ldi	r24, 0xC4	; 196
    2e28:	92 e2       	ldi	r25, 0x22	; 34
    2e2a:	0e 94 c3 1e 	call	0x3d86	; 0x3d86 <DigitalPin_Config>
    2e2e:	00 e0       	ldi	r16, 0x00	; 0
    2e30:	28 e1       	ldi	r18, 0x18	; 24
    2e32:	40 e0       	ldi	r20, 0x00	; 0
    2e34:	60 e0       	ldi	r22, 0x00	; 0
    2e36:	81 ec       	ldi	r24, 0xC1	; 193
    2e38:	92 e2       	ldi	r25, 0x22	; 34
    2e3a:	0e 94 c3 1e 	call	0x3d86	; 0x3d86 <DigitalPin_Config>
    2e3e:	28 e1       	ldi	r18, 0x18	; 24
    2e40:	40 e0       	ldi	r20, 0x00	; 0
    2e42:	60 e0       	ldi	r22, 0x00	; 0
    2e44:	8e eb       	ldi	r24, 0xBE	; 190
    2e46:	92 e2       	ldi	r25, 0x22	; 34
    2e48:	0e 94 c3 1e 	call	0x3d86	; 0x3d86 <DigitalPin_Config>
    2e4c:	61 e0       	ldi	r22, 0x01	; 1
    2e4e:	8b eb       	ldi	r24, 0xBB	; 187
    2e50:	92 e2       	ldi	r25, 0x22	; 34
    2e52:	0e 94 df 1e 	call	0x3dbe	; 0x3dbe <DigitalPin_SetDir>
    2e56:	61 e0       	ldi	r22, 0x01	; 1
    2e58:	88 eb       	ldi	r24, 0xB8	; 184
    2e5a:	92 e2       	ldi	r25, 0x22	; 34
    2e5c:	0e 94 df 1e 	call	0x3dbe	; 0x3dbe <DigitalPin_SetDir>
    2e60:	61 e0       	ldi	r22, 0x01	; 1
    2e62:	85 eb       	ldi	r24, 0xB5	; 181
    2e64:	92 e2       	ldi	r25, 0x22	; 34
    2e66:	0e 94 df 1e 	call	0x3dbe	; 0x3dbe <DigitalPin_SetDir>
    2e6a:	61 e0       	ldi	r22, 0x01	; 1
    2e6c:	82 eb       	ldi	r24, 0xB2	; 178
    2e6e:	92 e2       	ldi	r25, 0x22	; 34
    2e70:	0e 94 df 1e 	call	0x3dbe	; 0x3dbe <DigitalPin_SetDir>
    2e74:	28 e1       	ldi	r18, 0x18	; 24
    2e76:	40 e0       	ldi	r20, 0x00	; 0
    2e78:	60 e0       	ldi	r22, 0x00	; 0
    2e7a:	82 eb       	ldi	r24, 0xB2	; 178
    2e7c:	92 e2       	ldi	r25, 0x22	; 34
    2e7e:	0e 94 c3 1e 	call	0x3d86	; 0x3d86 <DigitalPin_Config>
    2e82:	c1 e0       	ldi	r28, 0x01	; 1
    2e84:	84 e6       	ldi	r24, 0x64	; 100
    2e86:	90 e0       	ldi	r25, 0x00	; 0
    2e88:	0e 94 a6 0e 	call	0x1d4c	; 0x1d4c <vTaskDelay>
    2e8c:	87 ec       	ldi	r24, 0xC7	; 199
    2e8e:	92 e2       	ldi	r25, 0x22	; 34
    2e90:	0e 94 31 1f 	call	0x3e62	; 0x3e62 <DigitalPin_GetValue>
    2e94:	81 11       	cpse	r24, r1
    2e96:	0b c0       	rjmp	.+22     	; 0x2eae <thread_6+0x9e>
    2e98:	87 ec       	ldi	r24, 0xC7	; 199
    2e9a:	92 e2       	ldi	r25, 0x22	; 34
    2e9c:	0e 94 31 1f 	call	0x3e62	; 0x3e62 <DigitalPin_GetValue>
    2ea0:	88 23       	and	r24, r24
    2ea2:	d1 f3       	breq	.-12     	; 0x2e98 <thread_6+0x88>
    2ea4:	80 91 b1 22 	lds	r24, 0x22B1	; 0x8022b1 <relayState1>
    2ea8:	8c 27       	eor	r24, r28
    2eaa:	80 93 b1 22 	sts	0x22B1, r24	; 0x8022b1 <relayState1>
    2eae:	84 ec       	ldi	r24, 0xC4	; 196
    2eb0:	92 e2       	ldi	r25, 0x22	; 34
    2eb2:	0e 94 31 1f 	call	0x3e62	; 0x3e62 <DigitalPin_GetValue>
    2eb6:	81 11       	cpse	r24, r1
    2eb8:	0b c0       	rjmp	.+22     	; 0x2ed0 <thread_6+0xc0>
    2eba:	84 ec       	ldi	r24, 0xC4	; 196
    2ebc:	92 e2       	ldi	r25, 0x22	; 34
    2ebe:	0e 94 31 1f 	call	0x3e62	; 0x3e62 <DigitalPin_GetValue>
    2ec2:	88 23       	and	r24, r24
    2ec4:	d1 f3       	breq	.-12     	; 0x2eba <thread_6+0xaa>
    2ec6:	80 91 b0 22 	lds	r24, 0x22B0	; 0x8022b0 <relayState2>
    2eca:	8c 27       	eor	r24, r28
    2ecc:	80 93 b0 22 	sts	0x22B0, r24	; 0x8022b0 <relayState2>
    2ed0:	81 ec       	ldi	r24, 0xC1	; 193
    2ed2:	92 e2       	ldi	r25, 0x22	; 34
    2ed4:	0e 94 31 1f 	call	0x3e62	; 0x3e62 <DigitalPin_GetValue>
    2ed8:	81 11       	cpse	r24, r1
    2eda:	0b c0       	rjmp	.+22     	; 0x2ef2 <thread_6+0xe2>
    2edc:	81 ec       	ldi	r24, 0xC1	; 193
    2ede:	92 e2       	ldi	r25, 0x22	; 34
    2ee0:	0e 94 31 1f 	call	0x3e62	; 0x3e62 <DigitalPin_GetValue>
    2ee4:	88 23       	and	r24, r24
    2ee6:	d1 f3       	breq	.-12     	; 0x2edc <thread_6+0xcc>
    2ee8:	80 91 af 22 	lds	r24, 0x22AF	; 0x8022af <relayState3>
    2eec:	8c 27       	eor	r24, r28
    2eee:	80 93 af 22 	sts	0x22AF, r24	; 0x8022af <relayState3>
    2ef2:	8e eb       	ldi	r24, 0xBE	; 190
    2ef4:	92 e2       	ldi	r25, 0x22	; 34
    2ef6:	0e 94 31 1f 	call	0x3e62	; 0x3e62 <DigitalPin_GetValue>
    2efa:	81 11       	cpse	r24, r1
    2efc:	0b c0       	rjmp	.+22     	; 0x2f14 <thread_6+0x104>
    2efe:	8e eb       	ldi	r24, 0xBE	; 190
    2f00:	92 e2       	ldi	r25, 0x22	; 34
    2f02:	0e 94 31 1f 	call	0x3e62	; 0x3e62 <DigitalPin_GetValue>
    2f06:	88 23       	and	r24, r24
    2f08:	d1 f3       	breq	.-12     	; 0x2efe <thread_6+0xee>
    2f0a:	80 91 ae 22 	lds	r24, 0x22AE	; 0x8022ae <relayState4>
    2f0e:	8c 27       	eor	r24, r28
    2f10:	80 93 ae 22 	sts	0x22AE, r24	; 0x8022ae <relayState4>
    2f14:	80 91 b1 22 	lds	r24, 0x22B1	; 0x8022b1 <relayState1>
    2f18:	88 23       	and	r24, r24
    2f1a:	29 f0       	breq	.+10     	; 0x2f26 <thread_6+0x116>
    2f1c:	8b eb       	ldi	r24, 0xBB	; 187
    2f1e:	92 e2       	ldi	r25, 0x22	; 34
    2f20:	0e 94 01 1f 	call	0x3e02	; 0x3e02 <DigitalPin_SetValue>
    2f24:	04 c0       	rjmp	.+8      	; 0x2f2e <thread_6+0x11e>
    2f26:	8b eb       	ldi	r24, 0xBB	; 187
    2f28:	92 e2       	ldi	r25, 0x22	; 34
    2f2a:	0e 94 11 1f 	call	0x3e22	; 0x3e22 <DigitalPin_ClearValue>
    2f2e:	80 91 b0 22 	lds	r24, 0x22B0	; 0x8022b0 <relayState2>
    2f32:	88 23       	and	r24, r24
    2f34:	29 f0       	breq	.+10     	; 0x2f40 <thread_6+0x130>
    2f36:	88 eb       	ldi	r24, 0xB8	; 184
    2f38:	92 e2       	ldi	r25, 0x22	; 34
    2f3a:	0e 94 01 1f 	call	0x3e02	; 0x3e02 <DigitalPin_SetValue>
    2f3e:	04 c0       	rjmp	.+8      	; 0x2f48 <thread_6+0x138>
    2f40:	88 eb       	ldi	r24, 0xB8	; 184
    2f42:	92 e2       	ldi	r25, 0x22	; 34
    2f44:	0e 94 11 1f 	call	0x3e22	; 0x3e22 <DigitalPin_ClearValue>
    2f48:	80 91 af 22 	lds	r24, 0x22AF	; 0x8022af <relayState3>
    2f4c:	88 23       	and	r24, r24
    2f4e:	29 f0       	breq	.+10     	; 0x2f5a <thread_6+0x14a>
    2f50:	85 eb       	ldi	r24, 0xB5	; 181
    2f52:	92 e2       	ldi	r25, 0x22	; 34
    2f54:	0e 94 01 1f 	call	0x3e02	; 0x3e02 <DigitalPin_SetValue>
    2f58:	04 c0       	rjmp	.+8      	; 0x2f62 <thread_6+0x152>
    2f5a:	85 eb       	ldi	r24, 0xB5	; 181
    2f5c:	92 e2       	ldi	r25, 0x22	; 34
    2f5e:	0e 94 11 1f 	call	0x3e22	; 0x3e22 <DigitalPin_ClearValue>
    2f62:	80 91 ae 22 	lds	r24, 0x22AE	; 0x8022ae <relayState4>
    2f66:	88 23       	and	r24, r24
    2f68:	29 f0       	breq	.+10     	; 0x2f74 <thread_6+0x164>
    2f6a:	82 eb       	ldi	r24, 0xB2	; 178
    2f6c:	92 e2       	ldi	r25, 0x22	; 34
    2f6e:	0e 94 01 1f 	call	0x3e02	; 0x3e02 <DigitalPin_SetValue>
    2f72:	88 cf       	rjmp	.-240    	; 0x2e84 <thread_6+0x74>
    2f74:	82 eb       	ldi	r24, 0xB2	; 178
    2f76:	92 e2       	ldi	r25, 0x22	; 34
    2f78:	0e 94 11 1f 	call	0x3e22	; 0x3e22 <DigitalPin_ClearValue>
    2f7c:	83 cf       	rjmp	.-250    	; 0x2e84 <thread_6+0x74>

00002f7e <USBThread>:
    2f7e:	0e 94 48 0d 	call	0x1a90	; 0x1a90 <vTaskSuspendAll>
    2f82:	83 e9       	ldi	r24, 0x93	; 147
    2f84:	92 e2       	ldi	r25, 0x22	; 34
    2f86:	0e 94 e7 0f 	call	0x1fce	; 0x1fce <CDC_Device_USBTask>
    2f8a:	0e 94 8d 12 	call	0x251a	; 0x251a <USB_USBTask>
    2f8e:	0e 94 24 0e 	call	0x1c48	; 0x1c48 <xTaskResumeAll>
    2f92:	81 e0       	ldi	r24, 0x01	; 1
    2f94:	90 e0       	ldi	r25, 0x00	; 0
    2f96:	0e 94 a6 0e 	call	0x1d4c	; 0x1d4c <vTaskDelay>
    2f9a:	f1 cf       	rjmp	.-30     	; 0x2f7e <USBThread>

00002f9c <usart_spi_transmit_receive>:
    2f9c:	fc 01       	movw	r30, r24
    2f9e:	81 81       	ldd	r24, Z+1	; 0x01
    2fa0:	85 ff       	sbrs	r24, 5
    2fa2:	fd cf       	rjmp	.-6      	; 0x2f9e <usart_spi_transmit_receive+0x2>
    2fa4:	60 83       	st	Z, r22
    2fa6:	81 81       	ldd	r24, Z+1	; 0x01
    2fa8:	86 ff       	sbrs	r24, 6
    2faa:	fd cf       	rjmp	.-6      	; 0x2fa6 <usart_spi_transmit_receive+0xa>
    2fac:	80 e4       	ldi	r24, 0x40	; 64
    2fae:	81 83       	std	Z+1, r24	; 0x01
    2fb0:	80 81       	ld	r24, Z
    2fb2:	08 95       	ret

00002fb4 <ssd1306_write_command>:
    2fb4:	1f 93       	push	r17
    2fb6:	cf 93       	push	r28
    2fb8:	df 93       	push	r29
    2fba:	c0 ea       	ldi	r28, 0xA0	; 160
    2fbc:	d6 e0       	ldi	r29, 0x06	; 6
    2fbe:	18 e0       	ldi	r17, 0x08	; 8
    2fc0:	1e 83       	std	Y+6, r17	; 0x06
    2fc2:	e0 e6       	ldi	r30, 0x60	; 96
    2fc4:	f6 e0       	ldi	r31, 0x06	; 6
    2fc6:	91 e0       	ldi	r25, 0x01	; 1
    2fc8:	96 83       	std	Z+6, r25	; 0x06
    2fca:	96 83       	std	Z+6, r25	; 0x06
    2fcc:	68 2f       	mov	r22, r24
    2fce:	80 ea       	ldi	r24, 0xA0	; 160
    2fd0:	99 e0       	ldi	r25, 0x09	; 9
    2fd2:	0e 94 ce 17 	call	0x2f9c	; 0x2f9c <usart_spi_transmit_receive>
    2fd6:	1d 83       	std	Y+5, r17	; 0x05
    2fd8:	df 91       	pop	r29
    2fda:	cf 91       	pop	r28
    2fdc:	1f 91       	pop	r17
    2fde:	08 95       	ret

00002fe0 <ssd1306_write_data>:
    2fe0:	ef 92       	push	r14
    2fe2:	ff 92       	push	r15
    2fe4:	0f 93       	push	r16
    2fe6:	1f 93       	push	r17
    2fe8:	cf 93       	push	r28
    2fea:	df 93       	push	r29
    2fec:	c0 ea       	ldi	r28, 0xA0	; 160
    2fee:	d6 e0       	ldi	r29, 0x06	; 6
    2ff0:	18 e0       	ldi	r17, 0x08	; 8
    2ff2:	1e 83       	std	Y+6, r17	; 0x06
    2ff4:	0f 2e       	mov	r0, r31
    2ff6:	f0 e6       	ldi	r31, 0x60	; 96
    2ff8:	ef 2e       	mov	r14, r31
    2ffa:	f6 e0       	ldi	r31, 0x06	; 6
    2ffc:	ff 2e       	mov	r15, r31
    2ffe:	f0 2d       	mov	r31, r0
    3000:	01 e0       	ldi	r16, 0x01	; 1
    3002:	f7 01       	movw	r30, r14
    3004:	05 83       	std	Z+5, r16	; 0x05
    3006:	68 2f       	mov	r22, r24
    3008:	80 ea       	ldi	r24, 0xA0	; 160
    300a:	99 e0       	ldi	r25, 0x09	; 9
    300c:	0e 94 ce 17 	call	0x2f9c	; 0x2f9c <usart_spi_transmit_receive>
    3010:	f7 01       	movw	r30, r14
    3012:	06 83       	std	Z+6, r16	; 0x06
    3014:	1d 83       	std	Y+5, r17	; 0x05
    3016:	df 91       	pop	r29
    3018:	cf 91       	pop	r28
    301a:	1f 91       	pop	r17
    301c:	0f 91       	pop	r16
    301e:	ff 90       	pop	r15
    3020:	ef 90       	pop	r14
    3022:	08 95       	ret

00003024 <ssd1306_set_page_address>:
    3024:	87 70       	andi	r24, 0x07	; 7
    3026:	80 6b       	ori	r24, 0xB0	; 176
    3028:	0e 94 da 17 	call	0x2fb4	; 0x2fb4 <ssd1306_write_command>
    302c:	08 95       	ret

0000302e <ssd1306_set_column_address>:
    302e:	cf 93       	push	r28
    3030:	c8 2f       	mov	r28, r24
    3032:	98 2f       	mov	r25, r24
    3034:	9f 77       	andi	r25, 0x7F	; 127
    3036:	89 2f       	mov	r24, r25
    3038:	82 95       	swap	r24
    303a:	8f 70       	andi	r24, 0x0F	; 15
    303c:	80 61       	ori	r24, 0x10	; 16
    303e:	0e 94 da 17 	call	0x2fb4	; 0x2fb4 <ssd1306_write_command>
    3042:	8c 2f       	mov	r24, r28
    3044:	8f 70       	andi	r24, 0x0F	; 15
    3046:	0e 94 da 17 	call	0x2fb4	; 0x2fb4 <ssd1306_write_command>
    304a:	cf 91       	pop	r28
    304c:	08 95       	ret

0000304e <ssd1306_clear>:
    304e:	cf 93       	push	r28
    3050:	df 93       	push	r29
    3052:	d0 e0       	ldi	r29, 0x00	; 0
    3054:	0f c0       	rjmp	.+30     	; 0x3074 <ssd1306_clear+0x26>
    3056:	8d 2f       	mov	r24, r29
    3058:	0e 94 12 18 	call	0x3024	; 0x3024 <ssd1306_set_page_address>
    305c:	8c 2f       	mov	r24, r28
    305e:	0e 94 17 18 	call	0x302e	; 0x302e <ssd1306_set_column_address>
    3062:	80 e0       	ldi	r24, 0x00	; 0
    3064:	0e 94 f0 17 	call	0x2fe0	; 0x2fe0 <ssd1306_write_data>
    3068:	cf 5f       	subi	r28, 0xFF	; 255
    306a:	c0 38       	cpi	r28, 0x80	; 128
    306c:	a1 f7       	brne	.-24     	; 0x3056 <ssd1306_clear+0x8>
    306e:	df 5f       	subi	r29, 0xFF	; 255
    3070:	d4 30       	cpi	r29, 0x04	; 4
    3072:	11 f0       	breq	.+4      	; 0x3078 <ssd1306_clear+0x2a>
    3074:	c0 e0       	ldi	r28, 0x00	; 0
    3076:	ef cf       	rjmp	.-34     	; 0x3056 <ssd1306_clear+0x8>
    3078:	df 91       	pop	r29
    307a:	cf 91       	pop	r28
    307c:	08 95       	ret

0000307e <usart_init_spi>:
    307e:	cf 93       	push	r28
    3080:	df 93       	push	r29
    3082:	ec 01       	movw	r28, r24
    3084:	fb 01       	movw	r30, r22
    3086:	8c 81       	ldd	r24, Y+4	; 0x04
    3088:	8f 7e       	andi	r24, 0xEF	; 239
    308a:	8c 83       	std	Y+4, r24	; 0x04
    308c:	a0 e6       	ldi	r26, 0x60	; 96
    308e:	b6 e0       	ldi	r27, 0x06	; 6
    3090:	82 e0       	ldi	r24, 0x02	; 2
    3092:	11 96       	adiw	r26, 0x01	; 1
    3094:	8c 93       	st	X, r24
    3096:	11 97       	sbiw	r26, 0x01	; 1
    3098:	15 96       	adiw	r26, 0x05	; 5
    309a:	8c 93       	st	X, r24
    309c:	8d 81       	ldd	r24, Y+5	; 0x05
    309e:	80 6c       	ori	r24, 0xC0	; 192
    30a0:	8d 83       	std	Y+5, r24	; 0x05
    30a2:	84 81       	ldd	r24, Z+4	; 0x04
    30a4:	8d 7f       	andi	r24, 0xFD	; 253
    30a6:	81 30       	cpi	r24, 0x01	; 1
    30a8:	21 f4       	brne	.+8      	; 0x30b2 <usart_init_spi+0x34>
    30aa:	8d 81       	ldd	r24, Y+5	; 0x05
    30ac:	82 60       	ori	r24, 0x02	; 2
    30ae:	8d 83       	std	Y+5, r24	; 0x05
    30b0:	03 c0       	rjmp	.+6      	; 0x30b8 <usart_init_spi+0x3a>
    30b2:	8d 81       	ldd	r24, Y+5	; 0x05
    30b4:	8d 7f       	andi	r24, 0xFD	; 253
    30b6:	8d 83       	std	Y+5, r24	; 0x05
    30b8:	85 81       	ldd	r24, Z+5	; 0x05
    30ba:	88 23       	and	r24, r24
    30bc:	21 f0       	breq	.+8      	; 0x30c6 <usart_init_spi+0x48>
    30be:	8d 81       	ldd	r24, Y+5	; 0x05
    30c0:	84 60       	ori	r24, 0x04	; 4
    30c2:	8d 83       	std	Y+5, r24	; 0x05
    30c4:	03 c0       	rjmp	.+6      	; 0x30cc <usart_init_spi+0x4e>
    30c6:	8d 81       	ldd	r24, Y+5	; 0x05
    30c8:	8b 7f       	andi	r24, 0xFB	; 251
    30ca:	8d 83       	std	Y+5, r24	; 0x05
    30cc:	80 81       	ld	r24, Z
    30ce:	91 81       	ldd	r25, Z+1	; 0x01
    30d0:	a2 81       	ldd	r26, Z+2	; 0x02
    30d2:	b3 81       	ldd	r27, Z+3	; 0x03
    30d4:	9c 01       	movw	r18, r24
    30d6:	ad 01       	movw	r20, r26
    30d8:	22 0f       	add	r18, r18
    30da:	33 1f       	adc	r19, r19
    30dc:	44 1f       	adc	r20, r20
    30de:	55 1f       	adc	r21, r21
    30e0:	60 e0       	ldi	r22, 0x00	; 0
    30e2:	78 e4       	ldi	r23, 0x48	; 72
    30e4:	88 ee       	ldi	r24, 0xE8	; 232
    30e6:	91 e0       	ldi	r25, 0x01	; 1
    30e8:	0e 94 ad 23 	call	0x475a	; 0x475a <__udivmodsi4>
    30ec:	21 50       	subi	r18, 0x01	; 1
    30ee:	31 09       	sbc	r19, r1
    30f0:	83 2f       	mov	r24, r19
    30f2:	8f 70       	andi	r24, 0x0F	; 15
    30f4:	8f 83       	std	Y+7, r24	; 0x07
    30f6:	2e 83       	std	Y+6, r18	; 0x06
    30f8:	8c 81       	ldd	r24, Y+4	; 0x04
    30fa:	88 60       	ori	r24, 0x08	; 8
    30fc:	8c 83       	std	Y+4, r24	; 0x04
    30fe:	df 91       	pop	r29
    3100:	cf 91       	pop	r28
    3102:	08 95       	ret

00003104 <ssd1306_init>:
    3104:	cf 93       	push	r28
    3106:	df 93       	push	r29
    3108:	00 d0       	rcall	.+0      	; 0x310a <ssd1306_init+0x6>
    310a:	00 d0       	rcall	.+0      	; 0x310c <ssd1306_init+0x8>
    310c:	cd b7       	in	r28, 0x3d	; 61
    310e:	de b7       	in	r29, 0x3e	; 62
    3110:	20 ea       	ldi	r18, 0xA0	; 160
    3112:	36 e0       	ldi	r19, 0x06	; 6
    3114:	88 e0       	ldi	r24, 0x08	; 8
    3116:	d9 01       	movw	r26, r18
    3118:	11 96       	adiw	r26, 0x01	; 1
    311a:	8c 93       	st	X, r24
    311c:	a0 e6       	ldi	r26, 0x60	; 96
    311e:	b6 e0       	ldi	r27, 0x06	; 6
    3120:	91 e0       	ldi	r25, 0x01	; 1
    3122:	11 96       	adiw	r26, 0x01	; 1
    3124:	9c 93       	st	X, r25
    3126:	11 97       	sbiw	r26, 0x01	; 1
    3128:	e0 e0       	ldi	r30, 0x00	; 0
    312a:	f6 e0       	ldi	r31, 0x06	; 6
    312c:	81 83       	std	Z+1, r24	; 0x01
    312e:	92 e0       	ldi	r25, 0x02	; 2
    3130:	11 96       	adiw	r26, 0x01	; 1
    3132:	9c 93       	st	X, r25
    3134:	11 97       	sbiw	r26, 0x01	; 1
    3136:	11 96       	adiw	r26, 0x01	; 1
    3138:	8c 93       	st	X, r24
    313a:	d9 01       	movw	r26, r18
    313c:	15 96       	adiw	r26, 0x05	; 5
    313e:	8c 93       	st	X, r24
    3140:	86 83       	std	Z+6, r24	; 0x06
    3142:	ba e6       	ldi	r27, 0x6A	; 106
    3144:	ba 95       	dec	r27
    3146:	f1 f7       	brne	.-4      	; 0x3144 <ssd1306_init+0x40>
    3148:	00 c0       	rjmp	.+0      	; 0x314a <ssd1306_init+0x46>
    314a:	85 83       	std	Z+5, r24	; 0x05
    314c:	ea e6       	ldi	r30, 0x6A	; 106
    314e:	ea 95       	dec	r30
    3150:	f1 f7       	brne	.-4      	; 0x314e <ssd1306_init+0x4a>
    3152:	00 c0       	rjmp	.+0      	; 0x3154 <ssd1306_init+0x50>
    3154:	e0 e7       	ldi	r30, 0x70	; 112
    3156:	f0 e0       	ldi	r31, 0x00	; 0
    3158:	84 81       	ldd	r24, Z+4	; 0x04
    315a:	8f 7e       	andi	r24, 0xEF	; 239
    315c:	84 83       	std	Z+4, r24	; 0x04
    315e:	80 e0       	ldi	r24, 0x00	; 0
    3160:	9b e1       	ldi	r25, 0x1B	; 27
    3162:	a7 eb       	ldi	r26, 0xB7	; 183
    3164:	b0 e0       	ldi	r27, 0x00	; 0
    3166:	89 83       	std	Y+1, r24	; 0x01
    3168:	9a 83       	std	Y+2, r25	; 0x02
    316a:	ab 83       	std	Y+3, r26	; 0x03
    316c:	bc 83       	std	Y+4, r27	; 0x04
    316e:	1d 82       	std	Y+5, r1	; 0x05
    3170:	1e 82       	std	Y+6, r1	; 0x06
    3172:	be 01       	movw	r22, r28
    3174:	6f 5f       	subi	r22, 0xFF	; 255
    3176:	7f 4f       	sbci	r23, 0xFF	; 255
    3178:	80 ea       	ldi	r24, 0xA0	; 160
    317a:	99 e0       	ldi	r25, 0x09	; 9
    317c:	0e 94 3f 18 	call	0x307e	; 0x307e <usart_init_spi>
    3180:	88 ea       	ldi	r24, 0xA8	; 168
    3182:	0e 94 da 17 	call	0x2fb4	; 0x2fb4 <ssd1306_write_command>
    3186:	8f e1       	ldi	r24, 0x1F	; 31
    3188:	0e 94 da 17 	call	0x2fb4	; 0x2fb4 <ssd1306_write_command>
    318c:	83 ed       	ldi	r24, 0xD3	; 211
    318e:	0e 94 da 17 	call	0x2fb4	; 0x2fb4 <ssd1306_write_command>
    3192:	80 e0       	ldi	r24, 0x00	; 0
    3194:	0e 94 da 17 	call	0x2fb4	; 0x2fb4 <ssd1306_write_command>
    3198:	80 e4       	ldi	r24, 0x40	; 64
    319a:	0e 94 da 17 	call	0x2fb4	; 0x2fb4 <ssd1306_write_command>
    319e:	81 ea       	ldi	r24, 0xA1	; 161
    31a0:	0e 94 da 17 	call	0x2fb4	; 0x2fb4 <ssd1306_write_command>
    31a4:	88 ec       	ldi	r24, 0xC8	; 200
    31a6:	0e 94 da 17 	call	0x2fb4	; 0x2fb4 <ssd1306_write_command>
    31aa:	8a ed       	ldi	r24, 0xDA	; 218
    31ac:	0e 94 da 17 	call	0x2fb4	; 0x2fb4 <ssd1306_write_command>
    31b0:	82 e0       	ldi	r24, 0x02	; 2
    31b2:	0e 94 da 17 	call	0x2fb4	; 0x2fb4 <ssd1306_write_command>
    31b6:	81 e8       	ldi	r24, 0x81	; 129
    31b8:	0e 94 da 17 	call	0x2fb4	; 0x2fb4 <ssd1306_write_command>
    31bc:	8f e8       	ldi	r24, 0x8F	; 143
    31be:	0e 94 da 17 	call	0x2fb4	; 0x2fb4 <ssd1306_write_command>
    31c2:	84 ea       	ldi	r24, 0xA4	; 164
    31c4:	0e 94 da 17 	call	0x2fb4	; 0x2fb4 <ssd1306_write_command>
    31c8:	86 ea       	ldi	r24, 0xA6	; 166
    31ca:	0e 94 da 17 	call	0x2fb4	; 0x2fb4 <ssd1306_write_command>
    31ce:	85 ed       	ldi	r24, 0xD5	; 213
    31d0:	0e 94 da 17 	call	0x2fb4	; 0x2fb4 <ssd1306_write_command>
    31d4:	80 e8       	ldi	r24, 0x80	; 128
    31d6:	0e 94 da 17 	call	0x2fb4	; 0x2fb4 <ssd1306_write_command>
    31da:	8d e8       	ldi	r24, 0x8D	; 141
    31dc:	0e 94 da 17 	call	0x2fb4	; 0x2fb4 <ssd1306_write_command>
    31e0:	84 e1       	ldi	r24, 0x14	; 20
    31e2:	0e 94 da 17 	call	0x2fb4	; 0x2fb4 <ssd1306_write_command>
    31e6:	8b ed       	ldi	r24, 0xDB	; 219
    31e8:	0e 94 da 17 	call	0x2fb4	; 0x2fb4 <ssd1306_write_command>
    31ec:	80 e4       	ldi	r24, 0x40	; 64
    31ee:	0e 94 da 17 	call	0x2fb4	; 0x2fb4 <ssd1306_write_command>
    31f2:	89 ed       	ldi	r24, 0xD9	; 217
    31f4:	0e 94 da 17 	call	0x2fb4	; 0x2fb4 <ssd1306_write_command>
    31f8:	81 ef       	ldi	r24, 0xF1	; 241
    31fa:	0e 94 da 17 	call	0x2fb4	; 0x2fb4 <ssd1306_write_command>
    31fe:	8f ea       	ldi	r24, 0xAF	; 175
    3200:	0e 94 da 17 	call	0x2fb4	; 0x2fb4 <ssd1306_write_command>
    3204:	26 96       	adiw	r28, 0x06	; 6
    3206:	cd bf       	out	0x3d, r28	; 61
    3208:	de bf       	out	0x3e, r29	; 62
    320a:	df 91       	pop	r29
    320c:	cf 91       	pop	r28
    320e:	08 95       	ret

00003210 <ssd1306_write_text>:
    3210:	ef 92       	push	r14
    3212:	ff 92       	push	r15
    3214:	0f 93       	push	r16
    3216:	1f 93       	push	r17
    3218:	cf 93       	push	r28
    321a:	dc 01       	movw	r26, r24
    321c:	ec 91       	ld	r30, X
    321e:	ee 23       	and	r30, r30
    3220:	29 f1       	breq	.+74     	; 0x326c <ssd1306_write_text+0x5c>
    3222:	7c 01       	movw	r14, r24
    3224:	bf ef       	ldi	r27, 0xFF	; 255
    3226:	eb 1a       	sub	r14, r27
    3228:	fb 0a       	sbc	r15, r27
    322a:	ef 37       	cpi	r30, 0x7F	; 127
    322c:	d0 f4       	brcc	.+52     	; 0x3262 <ssd1306_write_text+0x52>
    322e:	f0 e0       	ldi	r31, 0x00	; 0
    3230:	ee 0f       	add	r30, r30
    3232:	ff 1f       	adc	r31, r31
    3234:	ed 56       	subi	r30, 0x6D	; 109
    3236:	fe 4d       	sbci	r31, 0xDE	; 222
    3238:	00 81       	ld	r16, Z
    323a:	11 81       	ldd	r17, Z+1	; 0x01
    323c:	f8 01       	movw	r30, r16
    323e:	80 81       	ld	r24, Z
    3240:	88 23       	and	r24, r24
    3242:	61 f0       	breq	.+24     	; 0x325c <ssd1306_write_text+0x4c>
    3244:	c1 e0       	ldi	r28, 0x01	; 1
    3246:	f8 01       	movw	r30, r16
    3248:	ec 0f       	add	r30, r28
    324a:	f1 1d       	adc	r31, r1
    324c:	80 81       	ld	r24, Z
    324e:	0e 94 f0 17 	call	0x2fe0	; 0x2fe0 <ssd1306_write_data>
    3252:	cf 5f       	subi	r28, 0xFF	; 255
    3254:	d8 01       	movw	r26, r16
    3256:	9c 91       	ld	r25, X
    3258:	9c 17       	cp	r25, r28
    325a:	a8 f7       	brcc	.-22     	; 0x3246 <ssd1306_write_text+0x36>
    325c:	80 e0       	ldi	r24, 0x00	; 0
    325e:	0e 94 f0 17 	call	0x2fe0	; 0x2fe0 <ssd1306_write_data>
    3262:	d7 01       	movw	r26, r14
    3264:	ed 91       	ld	r30, X+
    3266:	7d 01       	movw	r14, r26
    3268:	e1 11       	cpse	r30, r1
    326a:	df cf       	rjmp	.-66     	; 0x322a <ssd1306_write_text+0x1a>
    326c:	cf 91       	pop	r28
    326e:	1f 91       	pop	r17
    3270:	0f 91       	pop	r16
    3272:	ff 90       	pop	r15
    3274:	ef 90       	pop	r14
    3276:	08 95       	ret

00003278 <gfx_mono_framebuffer_put_byte>:
    3278:	20 e8       	ldi	r18, 0x80	; 128
    327a:	82 9f       	mul	r24, r18
    327c:	c0 01       	movw	r24, r0
    327e:	11 24       	eor	r1, r1
    3280:	86 0f       	add	r24, r22
    3282:	91 1d       	adc	r25, r1
    3284:	e0 91 d2 93 	lds	r30, 0x93D2	; 0x8093d2 <fbpointer>
    3288:	f0 91 d3 93 	lds	r31, 0x93D3	; 0x8093d3 <fbpointer+0x1>
    328c:	e8 0f       	add	r30, r24
    328e:	f9 1f       	adc	r31, r25
    3290:	40 83       	st	Z, r20
    3292:	08 95       	ret

00003294 <gfx_mono_framebuffer_get_byte>:
    3294:	20 e8       	ldi	r18, 0x80	; 128
    3296:	82 9f       	mul	r24, r18
    3298:	c0 01       	movw	r24, r0
    329a:	11 24       	eor	r1, r1
    329c:	86 0f       	add	r24, r22
    329e:	91 1d       	adc	r25, r1
    32a0:	e0 91 d2 93 	lds	r30, 0x93D2	; 0x8093d2 <fbpointer>
    32a4:	f0 91 d3 93 	lds	r31, 0x93D3	; 0x8093d3 <fbpointer+0x1>
    32a8:	e8 0f       	add	r30, r24
    32aa:	f9 1f       	adc	r31, r25
    32ac:	80 81       	ld	r24, Z
    32ae:	08 95       	ret

000032b0 <gfx_mono_ssd1306_put_byte>:
    32b0:	1f 93       	push	r17
    32b2:	cf 93       	push	r28
    32b4:	df 93       	push	r29
    32b6:	18 2f       	mov	r17, r24
    32b8:	d6 2f       	mov	r29, r22
    32ba:	c4 2f       	mov	r28, r20
    32bc:	21 11       	cpse	r18, r1
    32be:	04 c0       	rjmp	.+8      	; 0x32c8 <gfx_mono_ssd1306_put_byte+0x18>
    32c0:	0e 94 4a 19 	call	0x3294	; 0x3294 <gfx_mono_framebuffer_get_byte>
    32c4:	8c 17       	cp	r24, r28
    32c6:	71 f0       	breq	.+28     	; 0x32e4 <gfx_mono_ssd1306_put_byte+0x34>
    32c8:	4c 2f       	mov	r20, r28
    32ca:	6d 2f       	mov	r22, r29
    32cc:	81 2f       	mov	r24, r17
    32ce:	0e 94 3c 19 	call	0x3278	; 0x3278 <gfx_mono_framebuffer_put_byte>
    32d2:	81 2f       	mov	r24, r17
    32d4:	0e 94 12 18 	call	0x3024	; 0x3024 <ssd1306_set_page_address>
    32d8:	8d 2f       	mov	r24, r29
    32da:	0e 94 17 18 	call	0x302e	; 0x302e <ssd1306_set_column_address>
    32de:	8c 2f       	mov	r24, r28
    32e0:	0e 94 f0 17 	call	0x2fe0	; 0x2fe0 <ssd1306_write_data>
    32e4:	df 91       	pop	r29
    32e6:	cf 91       	pop	r28
    32e8:	1f 91       	pop	r17
    32ea:	08 95       	ret

000032ec <ds1302_arch_initialize>:
    32ec:	0f 93       	push	r16
    32ee:	07 e0       	ldi	r16, 0x07	; 7
    32f0:	20 e1       	ldi	r18, 0x10	; 16
    32f2:	40 e0       	ldi	r20, 0x00	; 0
    32f4:	60 e0       	ldi	r22, 0x00	; 0
    32f6:	83 ed       	ldi	r24, 0xD3	; 211
    32f8:	92 e2       	ldi	r25, 0x22	; 34
    32fa:	0e 94 c3 1e 	call	0x3d86	; 0x3d86 <DigitalPin_Config>
    32fe:	0f 91       	pop	r16
    3300:	08 95       	ret

00003302 <ds1302_initialize>:
    3302:	61 e0       	ldi	r22, 0x01	; 1
    3304:	83 ed       	ldi	r24, 0xD3	; 211
    3306:	92 e2       	ldi	r25, 0x22	; 34
    3308:	0e 94 df 1e 	call	0x3dbe	; 0x3dbe <DigitalPin_SetDir>
    330c:	60 e0       	ldi	r22, 0x00	; 0
    330e:	83 ed       	ldi	r24, 0xD3	; 211
    3310:	92 e2       	ldi	r25, 0x22	; 34
    3312:	0e 94 df 1e 	call	0x3dbe	; 0x3dbe <DigitalPin_SetDir>
    3316:	61 e0       	ldi	r22, 0x01	; 1
    3318:	86 ed       	ldi	r24, 0xD6	; 214
    331a:	92 e2       	ldi	r25, 0x22	; 34
    331c:	0e 94 df 1e 	call	0x3dbe	; 0x3dbe <DigitalPin_SetDir>
    3320:	61 e0       	ldi	r22, 0x01	; 1
    3322:	80 ed       	ldi	r24, 0xD0	; 208
    3324:	92 e2       	ldi	r25, 0x22	; 34
    3326:	0e 94 df 1e 	call	0x3dbe	; 0x3dbe <DigitalPin_SetDir>
    332a:	0e 94 76 19 	call	0x32ec	; 0x32ec <ds1302_arch_initialize>
    332e:	08 95       	ret

00003330 <ds1302_writeByte>:
    3330:	1f 93       	push	r17
    3332:	cf 93       	push	r28
    3334:	df 93       	push	r29
    3336:	18 2f       	mov	r17, r24
    3338:	61 e0       	ldi	r22, 0x01	; 1
    333a:	83 ed       	ldi	r24, 0xD3	; 211
    333c:	92 e2       	ldi	r25, 0x22	; 34
    333e:	0e 94 df 1e 	call	0x3dbe	; 0x3dbe <DigitalPin_SetDir>
    3342:	c8 e0       	ldi	r28, 0x08	; 8
    3344:	d0 e0       	ldi	r29, 0x00	; 0
    3346:	10 ff       	sbrs	r17, 0
    3348:	05 c0       	rjmp	.+10     	; 0x3354 <ds1302_writeByte+0x24>
    334a:	83 ed       	ldi	r24, 0xD3	; 211
    334c:	92 e2       	ldi	r25, 0x22	; 34
    334e:	0e 94 01 1f 	call	0x3e02	; 0x3e02 <DigitalPin_SetValue>
    3352:	04 c0       	rjmp	.+8      	; 0x335c <ds1302_writeByte+0x2c>
    3354:	83 ed       	ldi	r24, 0xD3	; 211
    3356:	92 e2       	ldi	r25, 0x22	; 34
    3358:	0e 94 11 1f 	call	0x3e22	; 0x3e22 <DigitalPin_ClearValue>
    335c:	81 e0       	ldi	r24, 0x01	; 1
    335e:	90 e0       	ldi	r25, 0x00	; 0
    3360:	0e 94 a6 0e 	call	0x1d4c	; 0x1d4c <vTaskDelay>
    3364:	86 ed       	ldi	r24, 0xD6	; 214
    3366:	92 e2       	ldi	r25, 0x22	; 34
    3368:	0e 94 01 1f 	call	0x3e02	; 0x3e02 <DigitalPin_SetValue>
    336c:	81 e0       	ldi	r24, 0x01	; 1
    336e:	90 e0       	ldi	r25, 0x00	; 0
    3370:	0e 94 a6 0e 	call	0x1d4c	; 0x1d4c <vTaskDelay>
    3374:	86 ed       	ldi	r24, 0xD6	; 214
    3376:	92 e2       	ldi	r25, 0x22	; 34
    3378:	0e 94 11 1f 	call	0x3e22	; 0x3e22 <DigitalPin_ClearValue>
    337c:	16 95       	lsr	r17
    337e:	21 97       	sbiw	r28, 0x01	; 1
    3380:	11 f7       	brne	.-60     	; 0x3346 <ds1302_writeByte+0x16>
    3382:	60 e0       	ldi	r22, 0x00	; 0
    3384:	83 ed       	ldi	r24, 0xD3	; 211
    3386:	92 e2       	ldi	r25, 0x22	; 34
    3388:	0e 94 df 1e 	call	0x3dbe	; 0x3dbe <DigitalPin_SetDir>
    338c:	df 91       	pop	r29
    338e:	cf 91       	pop	r28
    3390:	1f 91       	pop	r17
    3392:	08 95       	ret

00003394 <ds1302_readByte>:
    3394:	1f 93       	push	r17
    3396:	cf 93       	push	r28
    3398:	df 93       	push	r29
    339a:	60 e0       	ldi	r22, 0x00	; 0
    339c:	83 ed       	ldi	r24, 0xD3	; 211
    339e:	92 e2       	ldi	r25, 0x22	; 34
    33a0:	0e 94 df 1e 	call	0x3dbe	; 0x3dbe <DigitalPin_SetDir>
    33a4:	c0 e0       	ldi	r28, 0x00	; 0
    33a6:	d0 e0       	ldi	r29, 0x00	; 0
    33a8:	10 e0       	ldi	r17, 0x00	; 0
    33aa:	83 ed       	ldi	r24, 0xD3	; 211
    33ac:	92 e2       	ldi	r25, 0x22	; 34
    33ae:	0e 94 31 1f 	call	0x3e62	; 0x3e62 <DigitalPin_GetValue>
    33b2:	28 2f       	mov	r18, r24
    33b4:	30 e0       	ldi	r19, 0x00	; 0
    33b6:	0c 2e       	mov	r0, r28
    33b8:	02 c0       	rjmp	.+4      	; 0x33be <ds1302_readByte+0x2a>
    33ba:	22 0f       	add	r18, r18
    33bc:	33 1f       	adc	r19, r19
    33be:	0a 94       	dec	r0
    33c0:	e2 f7       	brpl	.-8      	; 0x33ba <ds1302_readByte+0x26>
    33c2:	12 2b       	or	r17, r18
    33c4:	81 e0       	ldi	r24, 0x01	; 1
    33c6:	90 e0       	ldi	r25, 0x00	; 0
    33c8:	0e 94 a6 0e 	call	0x1d4c	; 0x1d4c <vTaskDelay>
    33cc:	86 ed       	ldi	r24, 0xD6	; 214
    33ce:	92 e2       	ldi	r25, 0x22	; 34
    33d0:	0e 94 01 1f 	call	0x3e02	; 0x3e02 <DigitalPin_SetValue>
    33d4:	81 e0       	ldi	r24, 0x01	; 1
    33d6:	90 e0       	ldi	r25, 0x00	; 0
    33d8:	0e 94 a6 0e 	call	0x1d4c	; 0x1d4c <vTaskDelay>
    33dc:	86 ed       	ldi	r24, 0xD6	; 214
    33de:	92 e2       	ldi	r25, 0x22	; 34
    33e0:	0e 94 11 1f 	call	0x3e22	; 0x3e22 <DigitalPin_ClearValue>
    33e4:	21 96       	adiw	r28, 0x01	; 1
    33e6:	c8 30       	cpi	r28, 0x08	; 8
    33e8:	d1 05       	cpc	r29, r1
    33ea:	f9 f6       	brne	.-66     	; 0x33aa <ds1302_readByte+0x16>
    33ec:	81 2f       	mov	r24, r17
    33ee:	df 91       	pop	r29
    33f0:	cf 91       	pop	r28
    33f2:	1f 91       	pop	r17
    33f4:	08 95       	ret

000033f6 <ds1302_writeReg>:
    33f6:	cf 93       	push	r28
    33f8:	df 93       	push	r29
    33fa:	d8 2f       	mov	r29, r24
    33fc:	c6 2f       	mov	r28, r22
    33fe:	80 91 12 99 	lds	r24, 0x9912	; 0x809912 <writeProtect>
    3402:	88 23       	and	r24, r24
    3404:	31 f0       	breq	.+12     	; 0x3412 <ds1302_writeReg+0x1c>
    3406:	10 92 12 99 	sts	0x9912, r1	; 0x809912 <writeProtect>
    340a:	60 e0       	ldi	r22, 0x00	; 0
    340c:	8e e8       	ldi	r24, 0x8E	; 142
    340e:	0e 94 fb 19 	call	0x33f6	; 0x33f6 <ds1302_writeReg>
    3412:	80 ed       	ldi	r24, 0xD0	; 208
    3414:	92 e2       	ldi	r25, 0x22	; 34
    3416:	0e 94 01 1f 	call	0x3e02	; 0x3e02 <DigitalPin_SetValue>
    341a:	84 e0       	ldi	r24, 0x04	; 4
    341c:	90 e0       	ldi	r25, 0x00	; 0
    341e:	0e 94 a6 0e 	call	0x1d4c	; 0x1d4c <vTaskDelay>
    3422:	8d 2f       	mov	r24, r29
    3424:	0e 94 98 19 	call	0x3330	; 0x3330 <ds1302_writeByte>
    3428:	8c 2f       	mov	r24, r28
    342a:	0e 94 98 19 	call	0x3330	; 0x3330 <ds1302_writeByte>
    342e:	84 e0       	ldi	r24, 0x04	; 4
    3430:	90 e0       	ldi	r25, 0x00	; 0
    3432:	0e 94 a6 0e 	call	0x1d4c	; 0x1d4c <vTaskDelay>
    3436:	80 ed       	ldi	r24, 0xD0	; 208
    3438:	92 e2       	ldi	r25, 0x22	; 34
    343a:	0e 94 11 1f 	call	0x3e22	; 0x3e22 <DigitalPin_ClearValue>
    343e:	df 91       	pop	r29
    3440:	cf 91       	pop	r28
    3442:	08 95       	ret

00003444 <ds1302_setTimestamp>:
    3444:	ef 92       	push	r14
    3446:	ff 92       	push	r15
    3448:	0f 93       	push	r16
    344a:	1f 93       	push	r17
    344c:	cf 93       	push	r28
    344e:	df 93       	push	r29
    3450:	00 d0       	rcall	.+0      	; 0x3452 <ds1302_setTimestamp+0xe>
    3452:	1f 92       	push	r1
    3454:	cd b7       	in	r28, 0x3d	; 61
    3456:	de b7       	in	r29, 0x3e	; 62
    3458:	69 83       	std	Y+1, r22	; 0x01
    345a:	7a 83       	std	Y+2, r23	; 0x02
    345c:	8b 83       	std	Y+3, r24	; 0x03
    345e:	9c 83       	std	Y+4, r25	; 0x04
    3460:	ce 01       	movw	r24, r28
    3462:	01 96       	adiw	r24, 0x01	; 1
    3464:	0e 94 4a 02 	call	0x494	; 0x494 <localtime>
    3468:	7c 01       	movw	r14, r24
    346a:	00 00       	nop
    346c:	fc 01       	movw	r30, r24
    346e:	60 81       	ld	r22, Z
    3470:	17 e6       	ldi	r17, 0x67	; 103
    3472:	61 02       	muls	r22, r17
    3474:	81 2d       	mov	r24, r1
    3476:	11 24       	eor	r1, r1
    3478:	85 95       	asr	r24
    347a:	85 95       	asr	r24
    347c:	67 fd       	sbrc	r22, 7
    347e:	83 95       	inc	r24
    3480:	28 2f       	mov	r18, r24
    3482:	22 0f       	add	r18, r18
    3484:	92 2f       	mov	r25, r18
    3486:	99 0f       	add	r25, r25
    3488:	99 0f       	add	r25, r25
    348a:	92 0f       	add	r25, r18
    348c:	69 1b       	sub	r22, r25
    348e:	f0 e1       	ldi	r31, 0x10	; 16
    3490:	8f 9f       	mul	r24, r31
    3492:	60 0d       	add	r22, r0
    3494:	11 24       	eor	r1, r1
    3496:	80 e8       	ldi	r24, 0x80	; 128
    3498:	0e 94 fb 19 	call	0x33f6	; 0x33f6 <ds1302_writeReg>
    349c:	f7 01       	movw	r30, r14
    349e:	61 81       	ldd	r22, Z+1	; 0x01
    34a0:	61 02       	muls	r22, r17
    34a2:	81 2d       	mov	r24, r1
    34a4:	11 24       	eor	r1, r1
    34a6:	85 95       	asr	r24
    34a8:	85 95       	asr	r24
    34aa:	67 fd       	sbrc	r22, 7
    34ac:	83 95       	inc	r24
    34ae:	28 2f       	mov	r18, r24
    34b0:	22 0f       	add	r18, r18
    34b2:	92 2f       	mov	r25, r18
    34b4:	99 0f       	add	r25, r25
    34b6:	99 0f       	add	r25, r25
    34b8:	92 0f       	add	r25, r18
    34ba:	69 1b       	sub	r22, r25
    34bc:	f0 e1       	ldi	r31, 0x10	; 16
    34be:	8f 9f       	mul	r24, r31
    34c0:	60 0d       	add	r22, r0
    34c2:	11 24       	eor	r1, r1
    34c4:	82 e8       	ldi	r24, 0x82	; 130
    34c6:	0e 94 fb 19 	call	0x33f6	; 0x33f6 <ds1302_writeReg>
    34ca:	f7 01       	movw	r30, r14
    34cc:	62 81       	ldd	r22, Z+2	; 0x02
    34ce:	61 02       	muls	r22, r17
    34d0:	81 2d       	mov	r24, r1
    34d2:	11 24       	eor	r1, r1
    34d4:	85 95       	asr	r24
    34d6:	85 95       	asr	r24
    34d8:	67 fd       	sbrc	r22, 7
    34da:	83 95       	inc	r24
    34dc:	28 2f       	mov	r18, r24
    34de:	22 0f       	add	r18, r18
    34e0:	92 2f       	mov	r25, r18
    34e2:	99 0f       	add	r25, r25
    34e4:	99 0f       	add	r25, r25
    34e6:	92 0f       	add	r25, r18
    34e8:	69 1b       	sub	r22, r25
    34ea:	f0 e1       	ldi	r31, 0x10	; 16
    34ec:	8f 9f       	mul	r24, r31
    34ee:	60 0d       	add	r22, r0
    34f0:	11 24       	eor	r1, r1
    34f2:	84 e8       	ldi	r24, 0x84	; 132
    34f4:	0e 94 fb 19 	call	0x33f6	; 0x33f6 <ds1302_writeReg>
    34f8:	f7 01       	movw	r30, r14
    34fa:	63 81       	ldd	r22, Z+3	; 0x03
    34fc:	61 02       	muls	r22, r17
    34fe:	11 2d       	mov	r17, r1
    3500:	11 24       	eor	r1, r1
    3502:	15 95       	asr	r17
    3504:	15 95       	asr	r17
    3506:	67 fd       	sbrc	r22, 7
    3508:	13 95       	inc	r17
    350a:	91 2f       	mov	r25, r17
    350c:	99 0f       	add	r25, r25
    350e:	89 2f       	mov	r24, r25
    3510:	88 0f       	add	r24, r24
    3512:	88 0f       	add	r24, r24
    3514:	89 0f       	add	r24, r25
    3516:	68 1b       	sub	r22, r24
    3518:	f0 e1       	ldi	r31, 0x10	; 16
    351a:	1f 9f       	mul	r17, r31
    351c:	60 0d       	add	r22, r0
    351e:	11 24       	eor	r1, r1
    3520:	86 e8       	ldi	r24, 0x86	; 134
    3522:	0e 94 fb 19 	call	0x33f6	; 0x33f6 <ds1302_writeReg>
    3526:	f7 01       	movw	r30, r14
    3528:	85 81       	ldd	r24, Z+5	; 0x05
    352a:	08 2e       	mov	r0, r24
    352c:	00 0c       	add	r0, r0
    352e:	99 0b       	sbc	r25, r25
    3530:	01 96       	adiw	r24, 0x01	; 1
    3532:	0a e0       	ldi	r16, 0x0A	; 10
    3534:	10 e0       	ldi	r17, 0x00	; 0
    3536:	b8 01       	movw	r22, r16
    3538:	0e 94 99 23 	call	0x4732	; 0x4732 <__divmodhi4>
    353c:	f0 e1       	ldi	r31, 0x10	; 16
    353e:	6f 9f       	mul	r22, r31
    3540:	80 0d       	add	r24, r0
    3542:	11 24       	eor	r1, r1
    3544:	68 2f       	mov	r22, r24
    3546:	88 e8       	ldi	r24, 0x88	; 136
    3548:	0e 94 fb 19 	call	0x33f6	; 0x33f6 <ds1302_writeReg>
    354c:	f7 01       	movw	r30, r14
    354e:	64 81       	ldd	r22, Z+4	; 0x04
    3550:	6f 5f       	subi	r22, 0xFF	; 255
    3552:	8a e8       	ldi	r24, 0x8A	; 138
    3554:	0e 94 fb 19 	call	0x33f6	; 0x33f6 <ds1302_writeReg>
    3558:	f7 01       	movw	r30, r14
    355a:	86 81       	ldd	r24, Z+6	; 0x06
    355c:	97 81       	ldd	r25, Z+7	; 0x07
    355e:	84 56       	subi	r24, 0x64	; 100
    3560:	91 09       	sbc	r25, r1
    3562:	b8 01       	movw	r22, r16
    3564:	0e 94 99 23 	call	0x4732	; 0x4732 <__divmodhi4>
    3568:	f0 e1       	ldi	r31, 0x10	; 16
    356a:	6f 9f       	mul	r22, r31
    356c:	80 0d       	add	r24, r0
    356e:	11 24       	eor	r1, r1
    3570:	68 2f       	mov	r22, r24
    3572:	8c e8       	ldi	r24, 0x8C	; 140
    3574:	0e 94 fb 19 	call	0x33f6	; 0x33f6 <ds1302_writeReg>
    3578:	24 96       	adiw	r28, 0x04	; 4
    357a:	cd bf       	out	0x3d, r28	; 61
    357c:	de bf       	out	0x3e, r29	; 62
    357e:	df 91       	pop	r29
    3580:	cf 91       	pop	r28
    3582:	1f 91       	pop	r17
    3584:	0f 91       	pop	r16
    3586:	ff 90       	pop	r15
    3588:	ef 90       	pop	r14
    358a:	08 95       	ret

0000358c <ds1302_getTimestamp>:
    358c:	ef 92       	push	r14
    358e:	ff 92       	push	r15
    3590:	0f 93       	push	r16
    3592:	1f 93       	push	r17
    3594:	cf 93       	push	r28
    3596:	df 93       	push	r29
    3598:	cd b7       	in	r28, 0x3d	; 61
    359a:	de b7       	in	r29, 0x3e	; 62
    359c:	63 97       	sbiw	r28, 0x13	; 19
    359e:	cd bf       	out	0x3d, r28	; 61
    35a0:	de bf       	out	0x3e, r29	; 62
    35a2:	80 ed       	ldi	r24, 0xD0	; 208
    35a4:	92 e2       	ldi	r25, 0x22	; 34
    35a6:	0e 94 01 1f 	call	0x3e02	; 0x3e02 <DigitalPin_SetValue>
    35aa:	84 e0       	ldi	r24, 0x04	; 4
    35ac:	90 e0       	ldi	r25, 0x00	; 0
    35ae:	0e 94 a6 0e 	call	0x1d4c	; 0x1d4c <vTaskDelay>
    35b2:	8f eb       	ldi	r24, 0xBF	; 191
    35b4:	0e 94 98 19 	call	0x3330	; 0x3330 <ds1302_writeByte>
    35b8:	8e 01       	movw	r16, r28
    35ba:	0f 5f       	subi	r16, 0xFF	; 255
    35bc:	1f 4f       	sbci	r17, 0xFF	; 255
    35be:	7e 01       	movw	r14, r28
    35c0:	88 e0       	ldi	r24, 0x08	; 8
    35c2:	e8 0e       	add	r14, r24
    35c4:	f1 1c       	adc	r15, r1
    35c6:	0e 94 ca 19 	call	0x3394	; 0x3394 <ds1302_readByte>
    35ca:	f8 01       	movw	r30, r16
    35cc:	81 93       	st	Z+, r24
    35ce:	8f 01       	movw	r16, r30
    35d0:	ee 15       	cp	r30, r14
    35d2:	ff 05       	cpc	r31, r15
    35d4:	c1 f7       	brne	.-16     	; 0x35c6 <ds1302_getTimestamp+0x3a>
    35d6:	80 ed       	ldi	r24, 0xD0	; 208
    35d8:	92 e2       	ldi	r25, 0x22	; 34
    35da:	0e 94 11 1f 	call	0x3e22	; 0x3e22 <DigitalPin_ClearValue>
    35de:	00 00       	nop
    35e0:	89 81       	ldd	r24, Y+1	; 0x01
    35e2:	98 2f       	mov	r25, r24
    35e4:	92 95       	swap	r25
    35e6:	9f 70       	andi	r25, 0x0F	; 15
    35e8:	99 0f       	add	r25, r25
    35ea:	29 2f       	mov	r18, r25
    35ec:	22 0f       	add	r18, r18
    35ee:	22 0f       	add	r18, r18
    35f0:	92 0f       	add	r25, r18
    35f2:	8f 70       	andi	r24, 0x0F	; 15
    35f4:	89 0f       	add	r24, r25
    35f6:	88 87       	std	Y+8, r24	; 0x08
    35f8:	8a 81       	ldd	r24, Y+2	; 0x02
    35fa:	98 2f       	mov	r25, r24
    35fc:	92 95       	swap	r25
    35fe:	9f 70       	andi	r25, 0x0F	; 15
    3600:	99 0f       	add	r25, r25
    3602:	29 2f       	mov	r18, r25
    3604:	22 0f       	add	r18, r18
    3606:	22 0f       	add	r18, r18
    3608:	92 0f       	add	r25, r18
    360a:	8f 70       	andi	r24, 0x0F	; 15
    360c:	89 0f       	add	r24, r25
    360e:	89 87       	std	Y+9, r24	; 0x09
    3610:	8b 81       	ldd	r24, Y+3	; 0x03
    3612:	98 2f       	mov	r25, r24
    3614:	92 95       	swap	r25
    3616:	9f 70       	andi	r25, 0x0F	; 15
    3618:	99 0f       	add	r25, r25
    361a:	29 2f       	mov	r18, r25
    361c:	22 0f       	add	r18, r18
    361e:	22 0f       	add	r18, r18
    3620:	92 0f       	add	r25, r18
    3622:	8f 70       	andi	r24, 0x0F	; 15
    3624:	89 0f       	add	r24, r25
    3626:	8a 87       	std	Y+10, r24	; 0x0a
    3628:	8c 81       	ldd	r24, Y+4	; 0x04
    362a:	98 2f       	mov	r25, r24
    362c:	92 95       	swap	r25
    362e:	9f 70       	andi	r25, 0x0F	; 15
    3630:	99 0f       	add	r25, r25
    3632:	29 2f       	mov	r18, r25
    3634:	22 0f       	add	r18, r18
    3636:	22 0f       	add	r18, r18
    3638:	92 0f       	add	r25, r18
    363a:	8f 70       	andi	r24, 0x0F	; 15
    363c:	89 0f       	add	r24, r25
    363e:	8b 87       	std	Y+11, r24	; 0x0b
    3640:	8d 81       	ldd	r24, Y+5	; 0x05
    3642:	28 2f       	mov	r18, r24
    3644:	2f 70       	andi	r18, 0x0F	; 15
    3646:	21 50       	subi	r18, 0x01	; 1
    3648:	82 95       	swap	r24
    364a:	8f 70       	andi	r24, 0x0F	; 15
    364c:	88 0f       	add	r24, r24
    364e:	98 2f       	mov	r25, r24
    3650:	99 0f       	add	r25, r25
    3652:	99 0f       	add	r25, r25
    3654:	89 0f       	add	r24, r25
    3656:	82 0f       	add	r24, r18
    3658:	8d 87       	std	Y+13, r24	; 0x0d
    365a:	8f 81       	ldd	r24, Y+7	; 0x07
    365c:	28 2f       	mov	r18, r24
    365e:	2f 70       	andi	r18, 0x0F	; 15
    3660:	82 95       	swap	r24
    3662:	8f 70       	andi	r24, 0x0F	; 15
    3664:	90 e0       	ldi	r25, 0x00	; 0
    3666:	ac 01       	movw	r20, r24
    3668:	44 0f       	add	r20, r20
    366a:	55 1f       	adc	r21, r21
    366c:	88 0f       	add	r24, r24
    366e:	99 1f       	adc	r25, r25
    3670:	88 0f       	add	r24, r24
    3672:	99 1f       	adc	r25, r25
    3674:	88 0f       	add	r24, r24
    3676:	99 1f       	adc	r25, r25
    3678:	84 0f       	add	r24, r20
    367a:	95 1f       	adc	r25, r21
    367c:	82 0f       	add	r24, r18
    367e:	91 1d       	adc	r25, r1
    3680:	8c 59       	subi	r24, 0x9C	; 156
    3682:	9f 4f       	sbci	r25, 0xFF	; 255
    3684:	8e 87       	std	Y+14, r24	; 0x0e
    3686:	9f 87       	std	Y+15, r25	; 0x0f
    3688:	00 00       	nop
    368a:	ce 01       	movw	r24, r28
    368c:	08 96       	adiw	r24, 0x08	; 8
    368e:	0e 94 a1 02 	call	0x542	; 0x542 <mktime>
    3692:	63 96       	adiw	r28, 0x13	; 19
    3694:	cd bf       	out	0x3d, r28	; 61
    3696:	de bf       	out	0x3e, r29	; 62
    3698:	df 91       	pop	r29
    369a:	cf 91       	pop	r28
    369c:	1f 91       	pop	r17
    369e:	0f 91       	pop	r16
    36a0:	ff 90       	pop	r15
    36a2:	ef 90       	pop	r14
    36a4:	08 95       	ret

000036a6 <command_handler>:
    36a6:	0f 93       	push	r16
    36a8:	1f 93       	push	r17
    36aa:	cf 93       	push	r28
    36ac:	df 93       	push	r29
    36ae:	ec 01       	movw	r28, r24
    36b0:	08 81       	ld	r16, Y
    36b2:	19 81       	ldd	r17, Y+1	; 0x01
    36b4:	6f ee       	ldi	r22, 0xEF	; 239
    36b6:	72 e2       	ldi	r23, 0x22	; 34
    36b8:	c8 01       	movw	r24, r16
    36ba:	0e 94 31 25 	call	0x4a62	; 0x4a62 <strcmp>
    36be:	89 2b       	or	r24, r25
    36c0:	09 f0       	breq	.+2      	; 0x36c4 <command_handler+0x1e>
    36c2:	43 c0       	rjmp	.+134    	; 0x374a <command_handler+0xa4>
    36c4:	0a 81       	ldd	r16, Y+2	; 0x02
    36c6:	1b 81       	ldd	r17, Y+3	; 0x03
    36c8:	66 e5       	ldi	r22, 0x56	; 86
    36ca:	73 e2       	ldi	r23, 0x23	; 35
    36cc:	c8 01       	movw	r24, r16
    36ce:	0e 94 31 25 	call	0x4a62	; 0x4a62 <strcmp>
    36d2:	89 2b       	or	r24, r25
    36d4:	c9 f4       	brne	.+50     	; 0x3708 <command_handler+0x62>
    36d6:	0c 80       	ldd	r0, Y+4	; 0x04
    36d8:	dd 81       	ldd	r29, Y+5	; 0x05
    36da:	c0 2d       	mov	r28, r0
    36dc:	66 e5       	ldi	r22, 0x56	; 86
    36de:	73 e2       	ldi	r23, 0x23	; 35
    36e0:	ce 01       	movw	r24, r28
    36e2:	0e 94 31 25 	call	0x4a62	; 0x4a62 <strcmp>
    36e6:	89 2b       	or	r24, r25
    36e8:	21 f4       	brne	.+8      	; 0x36f2 <command_handler+0x4c>
    36ea:	81 e0       	ldi	r24, 0x01	; 1
    36ec:	80 93 b1 22 	sts	0x22B1, r24	; 0x8022b1 <relayState1>
    36f0:	69 c0       	rjmp	.+210    	; 0x37c4 <command_handler+0x11e>
    36f2:	65 ef       	ldi	r22, 0xF5	; 245
    36f4:	72 e2       	ldi	r23, 0x22	; 34
    36f6:	ce 01       	movw	r24, r28
    36f8:	0e 94 31 25 	call	0x4a62	; 0x4a62 <strcmp>
    36fc:	89 2b       	or	r24, r25
    36fe:	09 f0       	breq	.+2      	; 0x3702 <command_handler+0x5c>
    3700:	61 c0       	rjmp	.+194    	; 0x37c4 <command_handler+0x11e>
    3702:	10 92 b1 22 	sts	0x22B1, r1	; 0x8022b1 <relayState1>
    3706:	5e c0       	rjmp	.+188    	; 0x37c4 <command_handler+0x11e>
    3708:	65 ef       	ldi	r22, 0xF5	; 245
    370a:	72 e2       	ldi	r23, 0x22	; 34
    370c:	c8 01       	movw	r24, r16
    370e:	0e 94 31 25 	call	0x4a62	; 0x4a62 <strcmp>
    3712:	89 2b       	or	r24, r25
    3714:	09 f0       	breq	.+2      	; 0x3718 <command_handler+0x72>
    3716:	56 c0       	rjmp	.+172    	; 0x37c4 <command_handler+0x11e>
    3718:	0c 80       	ldd	r0, Y+4	; 0x04
    371a:	dd 81       	ldd	r29, Y+5	; 0x05
    371c:	c0 2d       	mov	r28, r0
    371e:	66 e5       	ldi	r22, 0x56	; 86
    3720:	73 e2       	ldi	r23, 0x23	; 35
    3722:	ce 01       	movw	r24, r28
    3724:	0e 94 31 25 	call	0x4a62	; 0x4a62 <strcmp>
    3728:	89 2b       	or	r24, r25
    372a:	21 f4       	brne	.+8      	; 0x3734 <command_handler+0x8e>
    372c:	81 e0       	ldi	r24, 0x01	; 1
    372e:	80 93 b0 22 	sts	0x22B0, r24	; 0x8022b0 <relayState2>
    3732:	48 c0       	rjmp	.+144    	; 0x37c4 <command_handler+0x11e>
    3734:	65 ef       	ldi	r22, 0xF5	; 245
    3736:	72 e2       	ldi	r23, 0x22	; 34
    3738:	ce 01       	movw	r24, r28
    373a:	0e 94 31 25 	call	0x4a62	; 0x4a62 <strcmp>
    373e:	89 2b       	or	r24, r25
    3740:	09 f0       	breq	.+2      	; 0x3744 <command_handler+0x9e>
    3742:	40 c0       	rjmp	.+128    	; 0x37c4 <command_handler+0x11e>
    3744:	10 92 b0 22 	sts	0x22B0, r1	; 0x8022b0 <relayState2>
    3748:	3d c0       	rjmp	.+122    	; 0x37c4 <command_handler+0x11e>
    374a:	67 ef       	ldi	r22, 0xF7	; 247
    374c:	72 e2       	ldi	r23, 0x22	; 34
    374e:	c8 01       	movw	r24, r16
    3750:	0e 94 31 25 	call	0x4a62	; 0x4a62 <strcmp>
    3754:	89 2b       	or	r24, r25
    3756:	c1 f4       	brne	.+48     	; 0x3788 <command_handler+0xe2>
    3758:	0a 80       	ldd	r0, Y+2	; 0x02
    375a:	db 81       	ldd	r29, Y+3	; 0x03
    375c:	c0 2d       	mov	r28, r0
    375e:	66 e5       	ldi	r22, 0x56	; 86
    3760:	73 e2       	ldi	r23, 0x23	; 35
    3762:	ce 01       	movw	r24, r28
    3764:	0e 94 31 25 	call	0x4a62	; 0x4a62 <strcmp>
    3768:	89 2b       	or	r24, r25
    376a:	21 f4       	brne	.+8      	; 0x3774 <command_handler+0xce>
    376c:	81 e0       	ldi	r24, 0x01	; 1
    376e:	80 93 ae 22 	sts	0x22AE, r24	; 0x8022ae <relayState4>
    3772:	28 c0       	rjmp	.+80     	; 0x37c4 <command_handler+0x11e>
    3774:	65 ef       	ldi	r22, 0xF5	; 245
    3776:	72 e2       	ldi	r23, 0x22	; 34
    3778:	ce 01       	movw	r24, r28
    377a:	0e 94 31 25 	call	0x4a62	; 0x4a62 <strcmp>
    377e:	89 2b       	or	r24, r25
    3780:	09 f5       	brne	.+66     	; 0x37c4 <command_handler+0x11e>
    3782:	10 92 ae 22 	sts	0x22AE, r1	; 0x8022ae <relayState4>
    3786:	1e c0       	rjmp	.+60     	; 0x37c4 <command_handler+0x11e>
    3788:	6b ef       	ldi	r22, 0xFB	; 251
    378a:	72 e2       	ldi	r23, 0x22	; 34
    378c:	c8 01       	movw	r24, r16
    378e:	0e 94 31 25 	call	0x4a62	; 0x4a62 <strcmp>
    3792:	89 2b       	or	r24, r25
    3794:	b9 f4       	brne	.+46     	; 0x37c4 <command_handler+0x11e>
    3796:	60 e0       	ldi	r22, 0x00	; 0
    3798:	73 e2       	ldi	r23, 0x23	; 35
    379a:	8a 81       	ldd	r24, Y+2	; 0x02
    379c:	9b 81       	ldd	r25, Y+3	; 0x03
    379e:	0e 94 31 25 	call	0x4a62	; 0x4a62 <strcmp>
    37a2:	89 2b       	or	r24, r25
    37a4:	79 f4       	brne	.+30     	; 0x37c4 <command_handler+0x11e>
    37a6:	8c 81       	ldd	r24, Y+4	; 0x04
    37a8:	9d 81       	ldd	r25, Y+5	; 0x05
    37aa:	0e 94 23 24 	call	0x4846	; 0x4846 <atol>
    37ae:	60 93 bf 93 	sts	0x93BF, r22	; 0x8093bf <mytime>
    37b2:	70 93 c0 93 	sts	0x93C0, r23	; 0x8093c0 <mytime+0x1>
    37b6:	80 93 c1 93 	sts	0x93C1, r24	; 0x8093c1 <mytime+0x2>
    37ba:	90 93 c2 93 	sts	0x93C2, r25	; 0x8093c2 <mytime+0x3>
    37be:	81 e0       	ldi	r24, 0x01	; 1
    37c0:	80 93 c3 93 	sts	0x93C3, r24	; 0x8093c3 <update_time>
    37c4:	80 e0       	ldi	r24, 0x00	; 0
    37c6:	90 e0       	ldi	r25, 0x00	; 0
    37c8:	df 91       	pop	r29
    37ca:	cf 91       	pop	r28
    37cc:	1f 91       	pop	r17
    37ce:	0f 91       	pop	r16
    37d0:	08 95       	ret

000037d2 <command_parse_execute>:
    37d2:	ef 92       	push	r14
    37d4:	ff 92       	push	r15
    37d6:	0f 93       	push	r16
    37d8:	1f 93       	push	r17
    37da:	cf 93       	push	r28
    37dc:	df 93       	push	r29
    37de:	cd b7       	in	r28, 0x3d	; 61
    37e0:	de b7       	in	r29, 0x3e	; 62
    37e2:	64 97       	sbiw	r28, 0x14	; 20
    37e4:	cd bf       	out	0x3d, r28	; 61
    37e6:	de bf       	out	0x3e, r29	; 62
    37e8:	64 e0       	ldi	r22, 0x04	; 4
    37ea:	73 e2       	ldi	r23, 0x23	; 35
    37ec:	0e 94 2d 25 	call	0x4a5a	; 0x4a5a <strtok>
    37f0:	00 97       	sbiw	r24, 0x00	; 0
    37f2:	d9 f0       	breq	.+54     	; 0x382a <command_parse_execute+0x58>
    37f4:	89 83       	std	Y+1, r24	; 0x01
    37f6:	9a 83       	std	Y+2, r25	; 0x02
    37f8:	7e 01       	movw	r14, r28
    37fa:	83 e0       	ldi	r24, 0x03	; 3
    37fc:	e8 0e       	add	r14, r24
    37fe:	f1 1c       	adc	r15, r1
    3800:	01 e0       	ldi	r16, 0x01	; 1
    3802:	10 e0       	ldi	r17, 0x00	; 0
    3804:	09 c0       	rjmp	.+18     	; 0x3818 <command_parse_execute+0x46>
    3806:	f7 01       	movw	r30, r14
    3808:	81 93       	st	Z+, r24
    380a:	91 93       	st	Z+, r25
    380c:	7f 01       	movw	r14, r30
    380e:	0f 5f       	subi	r16, 0xFF	; 255
    3810:	1f 4f       	sbci	r17, 0xFF	; 255
    3812:	0a 30       	cpi	r16, 0x0A	; 10
    3814:	11 05       	cpc	r17, r1
    3816:	59 f0       	breq	.+22     	; 0x382e <command_parse_execute+0x5c>
    3818:	64 e0       	ldi	r22, 0x04	; 4
    381a:	73 e2       	ldi	r23, 0x23	; 35
    381c:	80 e0       	ldi	r24, 0x00	; 0
    381e:	90 e0       	ldi	r25, 0x00	; 0
    3820:	0e 94 2d 25 	call	0x4a5a	; 0x4a5a <strtok>
    3824:	00 97       	sbiw	r24, 0x00	; 0
    3826:	79 f7       	brne	.-34     	; 0x3806 <command_parse_execute+0x34>
    3828:	02 c0       	rjmp	.+4      	; 0x382e <command_parse_execute+0x5c>
    382a:	00 e0       	ldi	r16, 0x00	; 0
    382c:	10 e0       	ldi	r17, 0x00	; 0
    382e:	b8 01       	movw	r22, r16
    3830:	ce 01       	movw	r24, r28
    3832:	01 96       	adiw	r24, 0x01	; 1
    3834:	0e 94 53 1b 	call	0x36a6	; 0x36a6 <command_handler>
    3838:	64 96       	adiw	r28, 0x14	; 20
    383a:	cd bf       	out	0x3d, r28	; 61
    383c:	de bf       	out	0x3e, r29	; 62
    383e:	df 91       	pop	r29
    3840:	cf 91       	pop	r28
    3842:	1f 91       	pop	r17
    3844:	0f 91       	pop	r16
    3846:	ff 90       	pop	r15
    3848:	ef 90       	pop	r14
    384a:	08 95       	ret

0000384c <thread_3>:
    384c:	cf 93       	push	r28
    384e:	df 93       	push	r29
    3850:	cd b7       	in	r28, 0x3d	; 61
    3852:	de b7       	in	r29, 0x3e	; 62
    3854:	a5 97       	sbiw	r28, 0x25	; 37
    3856:	cd bf       	out	0x3d, r28	; 61
    3858:	de bf       	out	0x3e, r29	; 62
    385a:	0e 94 75 08 	call	0x10ea	; 0x10ea <_nrf24l01p_init>
    385e:	01 e3       	ldi	r16, 0x31	; 49
    3860:	1c e4       	ldi	r17, 0x4C	; 76
    3862:	2c e4       	ldi	r18, 0x4C	; 76
    3864:	3c e4       	ldi	r19, 0x4C	; 76
    3866:	4c e4       	ldi	r20, 0x4C	; 76
    3868:	50 e0       	ldi	r21, 0x00	; 0
    386a:	60 e0       	ldi	r22, 0x00	; 0
    386c:	70 e0       	ldi	r23, 0x00	; 0
    386e:	81 e0       	ldi	r24, 0x01	; 1
    3870:	0e 94 4f 07 	call	0xe9e	; 0xe9e <_nrf24l01p_set_RX_pipe_address>
    3874:	02 e3       	ldi	r16, 0x32	; 50
    3876:	2c e4       	ldi	r18, 0x4C	; 76
    3878:	3c e4       	ldi	r19, 0x4C	; 76
    387a:	4c e4       	ldi	r20, 0x4C	; 76
    387c:	50 e0       	ldi	r21, 0x00	; 0
    387e:	60 e0       	ldi	r22, 0x00	; 0
    3880:	70 e0       	ldi	r23, 0x00	; 0
    3882:	82 e0       	ldi	r24, 0x02	; 2
    3884:	0e 94 4f 07 	call	0xe9e	; 0xe9e <_nrf24l01p_set_RX_pipe_address>
    3888:	03 e3       	ldi	r16, 0x33	; 51
    388a:	2c e4       	ldi	r18, 0x4C	; 76
    388c:	3c e4       	ldi	r19, 0x4C	; 76
    388e:	4c e4       	ldi	r20, 0x4C	; 76
    3890:	50 e0       	ldi	r21, 0x00	; 0
    3892:	60 e0       	ldi	r22, 0x00	; 0
    3894:	70 e0       	ldi	r23, 0x00	; 0
    3896:	83 e0       	ldi	r24, 0x03	; 3
    3898:	0e 94 4f 07 	call	0xe9e	; 0xe9e <_nrf24l01p_set_RX_pipe_address>
    389c:	04 e3       	ldi	r16, 0x34	; 52
    389e:	2c e4       	ldi	r18, 0x4C	; 76
    38a0:	3c e4       	ldi	r19, 0x4C	; 76
    38a2:	4c e4       	ldi	r20, 0x4C	; 76
    38a4:	50 e0       	ldi	r21, 0x00	; 0
    38a6:	60 e0       	ldi	r22, 0x00	; 0
    38a8:	70 e0       	ldi	r23, 0x00	; 0
    38aa:	84 e0       	ldi	r24, 0x04	; 4
    38ac:	0e 94 4f 07 	call	0xe9e	; 0xe9e <_nrf24l01p_set_RX_pipe_address>
    38b0:	05 e3       	ldi	r16, 0x35	; 53
    38b2:	2c e4       	ldi	r18, 0x4C	; 76
    38b4:	3c e4       	ldi	r19, 0x4C	; 76
    38b6:	4c e4       	ldi	r20, 0x4C	; 76
    38b8:	50 e0       	ldi	r21, 0x00	; 0
    38ba:	60 e0       	ldi	r22, 0x00	; 0
    38bc:	70 e0       	ldi	r23, 0x00	; 0
    38be:	85 e0       	ldi	r24, 0x05	; 5
    38c0:	0e 94 4f 07 	call	0xe9e	; 0xe9e <_nrf24l01p_set_RX_pipe_address>
    38c4:	0f 2e       	mov	r0, r31
    38c6:	f7 e0       	ldi	r31, 0x07	; 7
    38c8:	af 2e       	mov	r10, r31
    38ca:	f3 e2       	ldi	r31, 0x23	; 35
    38cc:	bf 2e       	mov	r11, r31
    38ce:	f0 2d       	mov	r31, r0
    38d0:	04 ec       	ldi	r16, 0xC4	; 196
    38d2:	13 e9       	ldi	r17, 0x93	; 147
    38d4:	0f 2e       	mov	r0, r31
    38d6:	f5 e1       	ldi	r31, 0x15	; 21
    38d8:	cf 2e       	mov	r12, r31
    38da:	f3 e2       	ldi	r31, 0x23	; 35
    38dc:	df 2e       	mov	r13, r31
    38de:	f0 2d       	mov	r31, r0
    38e0:	0f 2e       	mov	r0, r31
    38e2:	f3 e2       	ldi	r31, 0x23	; 35
    38e4:	ef 2e       	mov	r14, r31
    38e6:	f3 e2       	ldi	r31, 0x23	; 35
    38e8:	ff 2e       	mov	r15, r31
    38ea:	f0 2d       	mov	r31, r0
    38ec:	41 e0       	ldi	r20, 0x01	; 1
    38ee:	50 e0       	ldi	r21, 0x00	; 0
    38f0:	be 01       	movw	r22, r28
    38f2:	6b 5d       	subi	r22, 0xDB	; 219
    38f4:	7f 4f       	sbci	r23, 0xFF	; 255
    38f6:	80 e0       	ldi	r24, 0x00	; 0
    38f8:	0e 94 86 05 	call	0xb0c	; 0xb0c <_nrf24l01p_read_register>
    38fc:	41 e0       	ldi	r20, 0x01	; 1
    38fe:	50 e0       	ldi	r21, 0x00	; 0
    3900:	be 01       	movw	r22, r28
    3902:	6c 5d       	subi	r22, 0xDC	; 220
    3904:	7f 4f       	sbci	r23, 0xFF	; 255
    3906:	87 e1       	ldi	r24, 0x17	; 23
    3908:	0e 94 86 05 	call	0xb0c	; 0xb0c <_nrf24l01p_read_register>
    390c:	0e 94 02 09 	call	0x1204	; 0x1204 <_nrf24l01p_get_status>
    3910:	9f 93       	push	r25
    3912:	8f 93       	push	r24
    3914:	bf 92       	push	r11
    3916:	af 92       	push	r10
    3918:	1f 93       	push	r17
    391a:	0f 93       	push	r16
    391c:	0e 94 88 25 	call	0x4b10	; 0x4b10 <fprintf>
    3920:	8d a1       	ldd	r24, Y+37	; 0x25
    3922:	1f 92       	push	r1
    3924:	8f 93       	push	r24
    3926:	df 92       	push	r13
    3928:	cf 92       	push	r12
    392a:	1f 93       	push	r17
    392c:	0f 93       	push	r16
    392e:	0e 94 88 25 	call	0x4b10	; 0x4b10 <fprintf>
    3932:	8c a1       	ldd	r24, Y+36	; 0x24
    3934:	1f 92       	push	r1
    3936:	8f 93       	push	r24
    3938:	ff 92       	push	r15
    393a:	ef 92       	push	r14
    393c:	1f 93       	push	r17
    393e:	0f 93       	push	r16
    3940:	0e 94 88 25 	call	0x4b10	; 0x4b10 <fprintf>
    3944:	84 ef       	ldi	r24, 0xF4	; 244
    3946:	91 e0       	ldi	r25, 0x01	; 1
    3948:	0e 94 a6 0e 	call	0x1d4c	; 0x1d4c <vTaskDelay>
    394c:	81 e0       	ldi	r24, 0x01	; 1
    394e:	0e 94 2d 09 	call	0x125a	; 0x125a <_nrf24l01p_readable>
    3952:	cd bf       	out	0x3d, r28	; 61
    3954:	de bf       	out	0x3e, r29	; 62
    3956:	88 23       	and	r24, r24
    3958:	49 f2       	breq	.-110    	; 0x38ec <thread_3+0xa0>
    395a:	00 00       	nop
    395c:	8a ec       	ldi	r24, 0xCA	; 202
    395e:	92 e2       	ldi	r25, 0x22	; 34
    3960:	0e 94 21 1f 	call	0x3e42	; 0x3e42 <DigitalPin_ToggleValue>
    3964:	be 01       	movw	r22, r28
    3966:	6f 5f       	subi	r22, 0xFF	; 255
    3968:	7f 4f       	sbci	r23, 0xFF	; 255
    396a:	81 e0       	ldi	r24, 0x01	; 1
    396c:	0e 94 47 09 	call	0x128e	; 0x128e <_nrf24l01p_read_dyn_pld>
    3970:	e1 e0       	ldi	r30, 0x01	; 1
    3972:	f0 e0       	ldi	r31, 0x00	; 0
    3974:	ec 0f       	add	r30, r28
    3976:	fd 1f       	adc	r31, r29
    3978:	8e 0f       	add	r24, r30
    397a:	9f 1f       	adc	r25, r31
    397c:	fc 01       	movw	r30, r24
    397e:	10 82       	st	Z, r1
    3980:	ce 01       	movw	r24, r28
    3982:	01 96       	adiw	r24, 0x01	; 1
    3984:	0e 94 e9 1b 	call	0x37d2	; 0x37d2 <command_parse_execute>
    3988:	b1 cf       	rjmp	.-158    	; 0x38ec <thread_3+0xa0>

0000398a <time_parse_print>:
    398a:	ef 92       	push	r14
    398c:	ff 92       	push	r15
    398e:	0f 93       	push	r16
    3990:	1f 93       	push	r17
    3992:	cf 93       	push	r28
    3994:	df 93       	push	r29
    3996:	cd b7       	in	r28, 0x3d	; 61
    3998:	de b7       	in	r29, 0x3e	; 62
    399a:	c0 55       	subi	r28, 0x50	; 80
    399c:	d1 09       	sbc	r29, r1
    399e:	cd bf       	out	0x3d, r28	; 61
    39a0:	de bf       	out	0x3e, r29	; 62
    39a2:	8c 01       	movw	r16, r24
    39a4:	8f e2       	ldi	r24, 0x2F	; 47
    39a6:	93 e2       	ldi	r25, 0x23	; 35
    39a8:	0e 94 d0 25 	call	0x4ba0	; 0x4ba0 <puts>
    39ac:	62 e4       	ldi	r22, 0x42	; 66
    39ae:	73 e2       	ldi	r23, 0x23	; 35
    39b0:	c8 01       	movw	r24, r16
    39b2:	0e 94 2d 25 	call	0x4a5a	; 0x4a5a <strtok>
    39b6:	00 97       	sbiw	r24, 0x00	; 0
    39b8:	c9 f0       	breq	.+50     	; 0x39ec <time_parse_print+0x62>
    39ba:	89 83       	std	Y+1, r24	; 0x01
    39bc:	9a 83       	std	Y+2, r25	; 0x02
    39be:	8e 01       	movw	r16, r28
    39c0:	0d 5f       	subi	r16, 0xFD	; 253
    39c2:	1f 4f       	sbci	r17, 0xFF	; 255
    39c4:	7e 01       	movw	r14, r28
    39c6:	85 e1       	ldi	r24, 0x15	; 21
    39c8:	e8 0e       	add	r14, r24
    39ca:	f1 1c       	adc	r15, r1
    39cc:	07 c0       	rjmp	.+14     	; 0x39dc <time_parse_print+0x52>
    39ce:	f8 01       	movw	r30, r16
    39d0:	81 93       	st	Z+, r24
    39d2:	91 93       	st	Z+, r25
    39d4:	8f 01       	movw	r16, r30
    39d6:	ee 15       	cp	r30, r14
    39d8:	ff 05       	cpc	r31, r15
    39da:	41 f0       	breq	.+16     	; 0x39ec <time_parse_print+0x62>
    39dc:	62 e4       	ldi	r22, 0x42	; 66
    39de:	73 e2       	ldi	r23, 0x23	; 35
    39e0:	80 e0       	ldi	r24, 0x00	; 0
    39e2:	90 e0       	ldi	r25, 0x00	; 0
    39e4:	0e 94 2d 25 	call	0x4a5a	; 0x4a5a <strtok>
    39e8:	00 97       	sbiw	r24, 0x00	; 0
    39ea:	89 f7       	brne	.-30     	; 0x39ce <time_parse_print+0x44>
    39ec:	69 81       	ldd	r22, Y+1	; 0x01
    39ee:	7a 81       	ldd	r23, Y+2	; 0x02
    39f0:	ce 01       	movw	r24, r28
    39f2:	8e 5b       	subi	r24, 0xBE	; 190
    39f4:	9f 4f       	sbci	r25, 0xFF	; 255
    39f6:	0e 94 3a 25 	call	0x4a74	; 0x4a74 <strcpy>
    39fa:	6f 81       	ldd	r22, Y+7	; 0x07
    39fc:	78 85       	ldd	r23, Y+8	; 0x08
    39fe:	ce 01       	movw	r24, r28
    3a00:	45 96       	adiw	r24, 0x15	; 21
    3a02:	0e 94 3a 25 	call	0x4a74	; 0x4a74 <strcpy>
    3a06:	8a 85       	ldd	r24, Y+10	; 0x0a
    3a08:	8f 93       	push	r24
    3a0a:	89 85       	ldd	r24, Y+9	; 0x09
    3a0c:	8f 93       	push	r24
    3a0e:	8c 81       	ldd	r24, Y+4	; 0x04
    3a10:	8f 93       	push	r24
    3a12:	8b 81       	ldd	r24, Y+3	; 0x03
    3a14:	8f 93       	push	r24
    3a16:	8e 81       	ldd	r24, Y+6	; 0x06
    3a18:	8f 93       	push	r24
    3a1a:	8d 81       	ldd	r24, Y+5	; 0x05
    3a1c:	8f 93       	push	r24
    3a1e:	84 e4       	ldi	r24, 0x44	; 68
    3a20:	93 e2       	ldi	r25, 0x23	; 35
    3a22:	9f 93       	push	r25
    3a24:	8f 93       	push	r24
    3a26:	ce 01       	movw	r24, r28
    3a28:	84 96       	adiw	r24, 0x24	; 36
    3a2a:	9f 93       	push	r25
    3a2c:	8f 93       	push	r24
    3a2e:	0e 94 00 26 	call	0x4c00	; 0x4c00 <sprintf>
    3a32:	cd bf       	out	0x3d, r28	; 61
    3a34:	de bf       	out	0x3e, r29	; 62
    3a36:	00 e0       	ldi	r16, 0x00	; 0
    3a38:	0f c0       	rjmp	.+30     	; 0x3a58 <time_parse_print+0xce>
    3a3a:	80 2f       	mov	r24, r16
    3a3c:	0e 94 12 18 	call	0x3024	; 0x3024 <ssd1306_set_page_address>
    3a40:	81 2f       	mov	r24, r17
    3a42:	0e 94 17 18 	call	0x302e	; 0x302e <ssd1306_set_column_address>
    3a46:	80 e0       	ldi	r24, 0x00	; 0
    3a48:	0e 94 f0 17 	call	0x2fe0	; 0x2fe0 <ssd1306_write_data>
    3a4c:	1f 5f       	subi	r17, 0xFF	; 255
    3a4e:	10 38       	cpi	r17, 0x80	; 128
    3a50:	a1 f7       	brne	.-24     	; 0x3a3a <time_parse_print+0xb0>
    3a52:	0f 5f       	subi	r16, 0xFF	; 255
    3a54:	04 30       	cpi	r16, 0x04	; 4
    3a56:	11 f0       	breq	.+4      	; 0x3a5c <time_parse_print+0xd2>
    3a58:	10 e0       	ldi	r17, 0x00	; 0
    3a5a:	ef cf       	rjmp	.-34     	; 0x3a3a <time_parse_print+0xb0>
    3a5c:	80 e0       	ldi	r24, 0x00	; 0
    3a5e:	0e 94 12 18 	call	0x3024	; 0x3024 <ssd1306_set_page_address>
    3a62:	80 e0       	ldi	r24, 0x00	; 0
    3a64:	0e 94 17 18 	call	0x302e	; 0x302e <ssd1306_set_column_address>
    3a68:	ce 01       	movw	r24, r28
    3a6a:	45 96       	adiw	r24, 0x15	; 21
    3a6c:	0e 94 08 19 	call	0x3210	; 0x3210 <ssd1306_write_text>
    3a70:	81 e0       	ldi	r24, 0x01	; 1
    3a72:	0e 94 12 18 	call	0x3024	; 0x3024 <ssd1306_set_page_address>
    3a76:	80 e0       	ldi	r24, 0x00	; 0
    3a78:	0e 94 17 18 	call	0x302e	; 0x302e <ssd1306_set_column_address>
    3a7c:	ce 01       	movw	r24, r28
    3a7e:	84 96       	adiw	r24, 0x24	; 36
    3a80:	0e 94 08 19 	call	0x3210	; 0x3210 <ssd1306_write_text>
    3a84:	82 e0       	ldi	r24, 0x02	; 2
    3a86:	0e 94 12 18 	call	0x3024	; 0x3024 <ssd1306_set_page_address>
    3a8a:	80 e0       	ldi	r24, 0x00	; 0
    3a8c:	0e 94 17 18 	call	0x302e	; 0x302e <ssd1306_set_column_address>
    3a90:	ce 01       	movw	r24, r28
    3a92:	8e 5b       	subi	r24, 0xBE	; 190
    3a94:	9f 4f       	sbci	r25, 0xFF	; 255
    3a96:	0e 94 08 19 	call	0x3210	; 0x3210 <ssd1306_write_text>
    3a9a:	c0 5b       	subi	r28, 0xB0	; 176
    3a9c:	df 4f       	sbci	r29, 0xFF	; 255
    3a9e:	cd bf       	out	0x3d, r28	; 61
    3aa0:	de bf       	out	0x3e, r29	; 62
    3aa2:	df 91       	pop	r29
    3aa4:	cf 91       	pop	r28
    3aa6:	1f 91       	pop	r17
    3aa8:	0f 91       	pop	r16
    3aaa:	ff 90       	pop	r15
    3aac:	ef 90       	pop	r14
    3aae:	08 95       	ret

00003ab0 <thread_4>:
    3ab0:	0e 94 81 19 	call	0x3302	; 0x3302 <ds1302_initialize>
    3ab4:	80 91 c3 93 	lds	r24, 0x93C3	; 0x8093c3 <update_time>
    3ab8:	88 23       	and	r24, r24
    3aba:	91 f0       	breq	.+36     	; 0x3ae0 <thread_4+0x30>
    3abc:	80 91 bf 93 	lds	r24, 0x93BF	; 0x8093bf <mytime>
    3ac0:	90 91 c0 93 	lds	r25, 0x93C0	; 0x8093c0 <mytime+0x1>
    3ac4:	a0 91 c1 93 	lds	r26, 0x93C1	; 0x8093c1 <mytime+0x2>
    3ac8:	b0 91 c2 93 	lds	r27, 0x93C2	; 0x8093c2 <mytime+0x3>
    3acc:	bc 01       	movw	r22, r24
    3ace:	cd 01       	movw	r24, r26
    3ad0:	60 58       	subi	r22, 0x80	; 128
    3ad2:	73 44       	sbci	r23, 0x43	; 67
    3ad4:	8d 46       	sbci	r24, 0x6D	; 109
    3ad6:	98 43       	sbci	r25, 0x38	; 56
    3ad8:	0e 94 22 1a 	call	0x3444	; 0x3444 <ds1302_setTimestamp>
    3adc:	10 92 c3 93 	sts	0x93C3, r1	; 0x8093c3 <update_time>
    3ae0:	0e 94 c6 1a 	call	0x358c	; 0x358c <ds1302_getTimestamp>
    3ae4:	dc 01       	movw	r26, r24
    3ae6:	cb 01       	movw	r24, r22
    3ae8:	88 5c       	subi	r24, 0xC8	; 200
    3aea:	95 4b       	sbci	r25, 0xB5	; 181
    3aec:	af 4f       	sbci	r26, 0xFF	; 255
    3aee:	bf 4f       	sbci	r27, 0xFF	; 255
    3af0:	80 93 d2 98 	sts	0x98D2, r24	; 0x8098d2 <local_timestamp>
    3af4:	90 93 d3 98 	sts	0x98D3, r25	; 0x8098d3 <local_timestamp+0x1>
    3af8:	a0 93 d4 98 	sts	0x98D4, r26	; 0x8098d4 <local_timestamp+0x2>
    3afc:	b0 93 d5 98 	sts	0x98D5, r27	; 0x8098d5 <local_timestamp+0x3>
    3b00:	0e 94 41 08 	call	0x1082	; 0x1082 <_nrf24l01p_print_info>
    3b04:	82 ed       	ldi	r24, 0xD2	; 210
    3b06:	98 e9       	ldi	r25, 0x98	; 152
    3b08:	0e 94 2c 02 	call	0x458	; 0x458 <ctime>
    3b0c:	0e 94 c5 1c 	call	0x398a	; 0x398a <time_parse_print>
    3b10:	88 ec       	ldi	r24, 0xC8	; 200
    3b12:	90 e0       	ldi	r25, 0x00	; 0
    3b14:	0e 94 a6 0e 	call	0x1d4c	; 0x1d4c <vTaskDelay>
    3b18:	cd cf       	rjmp	.-102    	; 0x3ab4 <thread_4+0x4>

00003b1a <SetupHardware>:
}


/** Configures the board hardware and chip peripherals for the demo's functionality. */
void SetupHardware(void)
{
    3b1a:	cf 93       	push	r28
    3b1c:	df 93       	push	r29
				  return false;

				switch (Source)
				{
					case CLOCK_SRC_INT_RC2MHZ:
						OSC.PLLCTRL = (OSC_PLLSRC_RC2M_gc  | MulFactor);
    3b1e:	e0 e5       	ldi	r30, 0x50	; 80
    3b20:	f0 e0       	ldi	r31, 0x00	; 0
    3b22:	80 e1       	ldi	r24, 0x10	; 16
    3b24:	85 83       	std	Z+5, r24	; 0x05
						break;
					default:
						return false;
				}

				OSC.CTRL |= OSC_PLLEN_bm;
    3b26:	80 81       	ld	r24, Z
    3b28:	80 61       	ori	r24, 0x10	; 16
    3b2a:	80 83       	st	Z, r24

				while (!(OSC.STATUS & OSC_PLLRDY_bm));
    3b2c:	81 81       	ldd	r24, Z+1	; 0x01
    3b2e:	84 ff       	sbrs	r24, 4
    3b30:	fd cf       	rjmp	.-6      	; 0x3b2c <SetupHardware+0x12>
				#if (ARCH == ARCH_AVR8)
				return SREG;
				#elif (ARCH == ARCH_UC3)
				return __builtin_mfsr(AVR32_SR);
				#elif (ARCH == ARCH_XMEGA)
				return SREG;
    3b32:	8f b7       	in	r24, 0x3f	; 63
				#if (ARCH == ARCH_AVR8)
				cli();
				#elif (ARCH == ARCH_UC3)
				__builtin_ssrf(AVR32_SR_GM_OFFSET);
				#elif (ARCH == ARCH_XMEGA)
				cli();
    3b34:	f8 94       	cli
			 *  \param[in] Value    Value to write to the protected location
			 */
			static inline void XMEGACLK_CCP_Write(volatile void* Address, const uint8_t Value) ATTR_NON_NULL_PTR_ARG(1) ATTR_ALWAYS_INLINE;
			static inline void XMEGACLK_CCP_Write(volatile void* Address, const uint8_t Value)
			{
				__asm__ __volatile__ (
    3b36:	a0 e4       	ldi	r26, 0x40	; 64
    3b38:	b0 e0       	ldi	r27, 0x00	; 0
    3b3a:	94 e0       	ldi	r25, 0x04	; 4
    3b3c:	28 ed       	ldi	r18, 0xD8	; 216
    3b3e:	30 e0       	ldi	r19, 0x00	; 0
    3b40:	1b be       	out	0x3b, r1	; 59
    3b42:	fd 01       	movw	r30, r26
    3b44:	24 bf       	out	0x34, r18	; 52
    3b46:	90 83       	st	Z, r25
				if (GlobalIntState & AVR32_SR_GM)
				  __builtin_ssrf(AVR32_SR_GM_OFFSET);
				else
				  __builtin_csrf(AVR32_SR_GM_OFFSET);
				#elif (ARCH == ARCH_XMEGA)
				SREG = GlobalIntState;
    3b48:	8f bf       	out	0x3f, r24	; 63
	#else
		//round up by default
		__ticks_dc = (uint32_t)(ceil(fabs(__tmp)));
	#endif

	__builtin_avr_delay_cycles(__ticks_dc);
    3b4a:	8f e3       	ldi	r24, 0x3F	; 63
    3b4c:	9f e1       	ldi	r25, 0x1F	; 31
    3b4e:	01 97       	sbiw	r24, 0x01	; 1
    3b50:	f1 f7       	brne	.-4      	; 0x3b4e <SetupHardware+0x34>
    3b52:	00 c0       	rjmp	.+0      	; 0x3b54 <SetupHardware+0x3a>
    3b54:	00 00       	nop
				XMEGACLK_CCP_Write(&CLK.CTRL, ClockSourceMask);

				SetGlobalInterruptMask(CurrentGlobalInt);

				Delay_MS(1);
				return (CLK.CTRL == ClockSourceMask);
    3b56:	8c 91       	ld	r24, X
					case CLOCK_SRC_INT_RC2MHZ:
						OSC.CTRL |= OSC_RC2MEN_bm;
						while (!(OSC.STATUS & OSC_RC2MRDY_bm));
						return true;
					case CLOCK_SRC_INT_RC32MHZ:
						OSC.CTRL |= OSC_RC32MEN_bm;
    3b58:	e0 e5       	ldi	r30, 0x50	; 80
    3b5a:	f0 e0       	ldi	r31, 0x00	; 0
    3b5c:	80 81       	ld	r24, Z
    3b5e:	82 60       	ori	r24, 0x02	; 2
    3b60:	80 83       	st	Z, r24
						while (!(OSC.STATUS & OSC_RC32MRDY_bm));
    3b62:	81 81       	ldd	r24, Z+1	; 0x01
    3b64:	81 ff       	sbrs	r24, 1
    3b66:	fd cf       	rjmp	.-6      	; 0x3b62 <SetupHardware+0x48>
						DFLLRC2M.COMP1  = (DFLLCompare & 0xFF);
						DFLLRC2M.COMP2  = (DFLLCompare >> 8);
						DFLLRC2M.CTRL   = DFLL_ENABLE_bm;
						break;
					case CLOCK_SRC_INT_RC32MHZ:
						OSC.DFLLCTRL   |= (Reference << OSC_RC32MCREF_gp);
    3b68:	e0 e5       	ldi	r30, 0x50	; 80
    3b6a:	f0 e0       	ldi	r31, 0x00	; 0
    3b6c:	86 81       	ldd	r24, Z+6	; 0x06
    3b6e:	84 60       	ori	r24, 0x04	; 4
    3b70:	86 83       	std	Z+6, r24	; 0x06
						DFLLRC32M.COMP1 = (DFLLCompare & 0xFF);
    3b72:	a0 e6       	ldi	r26, 0x60	; 96
    3b74:	b0 e0       	ldi	r27, 0x00	; 0
    3b76:	8b e1       	ldi	r24, 0x1B	; 27
    3b78:	15 96       	adiw	r26, 0x05	; 5
    3b7a:	8c 93       	st	X, r24
    3b7c:	15 97       	sbiw	r26, 0x05	; 5
						DFLLRC32M.COMP2 = (DFLLCompare >> 8);
    3b7e:	87 eb       	ldi	r24, 0xB7	; 183
    3b80:	16 96       	adiw	r26, 0x06	; 6
    3b82:	8c 93       	st	X, r24
    3b84:	16 97       	sbiw	r26, 0x06	; 6

						if (Reference == DFLL_REF_INT_USBSOF)
						{
							NVM.CMD        = NVM_CMD_READ_CALIB_ROW_gc;
    3b86:	c0 ec       	ldi	r28, 0xC0	; 192
    3b88:	d1 e0       	ldi	r29, 0x01	; 1
    3b8a:	82 e0       	ldi	r24, 0x02	; 2
    3b8c:	8a 87       	std	Y+10, r24	; 0x0a
							DFLLRC32M.CALA = pgm_read_byte(offsetof(NVM_PROD_SIGNATURES_t, USBRCOSCA));
    3b8e:	ed e1       	ldi	r30, 0x1D	; 29
    3b90:	f0 e0       	ldi	r31, 0x00	; 0
    3b92:	e4 91       	lpm	r30, Z
    3b94:	12 96       	adiw	r26, 0x02	; 2
    3b96:	ec 93       	st	X, r30
    3b98:	12 97       	sbiw	r26, 0x02	; 2
							DFLLRC32M.CALB = pgm_read_byte(offsetof(NVM_PROD_SIGNATURES_t, USBRCOSC));
    3b9a:	ec e1       	ldi	r30, 0x1C	; 28
    3b9c:	f0 e0       	ldi	r31, 0x00	; 0
    3b9e:	e4 91       	lpm	r30, Z
    3ba0:	13 96       	adiw	r26, 0x03	; 3
    3ba2:	ec 93       	st	X, r30
    3ba4:	13 97       	sbiw	r26, 0x03	; 3
							NVM.CMD        = 0;
    3ba6:	1a 86       	std	Y+10, r1	; 0x0a
						}

						DFLLRC32M.CTRL  = DFLL_ENABLE_bm;
    3ba8:	81 e0       	ldi	r24, 0x01	; 1
    3baa:	8c 93       	st	X, r24

	/* Start the 32MHz internal RC oscillator and start the DFLL to increase it to 48MHz using the USB SOF as a reference */
	XMEGACLK_StartInternalOscillator(CLOCK_SRC_INT_RC32MHZ);
	XMEGACLK_StartDFLL(CLOCK_SRC_INT_RC32MHZ, DFLL_REF_INT_USBSOF, F_USB);

	PMIC.CTRL = PMIC_LOLVLEN_bm | PMIC_MEDLVLEN_bm | PMIC_HILVLEN_bm;
    3bac:	87 e0       	ldi	r24, 0x07	; 7
    3bae:	80 93 a2 00 	sts	0x00A2, r24	; 0x8000a2 <__TEXT_REGION_LENGTH__+0x7000a2>

		/* Inline Functions: */
		#if !defined(__DOXYGEN__)
			static inline void LEDs_Init(void)
			{
				PORTR.DIRSET    = LEDS_PORTR_LEDS;
    3bb2:	e0 ee       	ldi	r30, 0xE0	; 224
    3bb4:	f7 e0       	ldi	r31, 0x07	; 7
    3bb6:	83 e0       	ldi	r24, 0x03	; 3
    3bb8:	81 83       	std	Z+1, r24	; 0x01
				PORTR.OUTCLR    = LEDS_PORTR_LEDS;
    3bba:	86 83       	std	Z+6, r24	; 0x06

				PORTCFG.MPCMASK = LEDS_PORTR_LEDS;
    3bbc:	80 93 b0 00 	sts	0x00B0, r24	; 0x8000b0 <__TEXT_REGION_LENGTH__+0x7000b0>
				PORTR.PIN0CTRL  = PORT_INVEN_bm;
    3bc0:	80 e4       	ldi	r24, 0x40	; 64
    3bc2:	80 8b       	std	Z+16, r24	; 0x10

				PORTD.DIRSET    = LEDS_PORTD_LEDS;
    3bc4:	e0 e6       	ldi	r30, 0x60	; 96
    3bc6:	f6 e0       	ldi	r31, 0x06	; 6
    3bc8:	90 e3       	ldi	r25, 0x30	; 48
    3bca:	91 83       	std	Z+1, r25	; 0x01
				PORTD.OUTCLR    = LEDS_PORTD_LEDS;
    3bcc:	96 83       	std	Z+6, r25	; 0x06

				PORTD.PIN4CTRL  = PORT_INVEN_bm;
    3bce:	84 8b       	std	Z+20, r24	; 0x14
#endif

	/* Hardware Initialization */
	LEDs_Init();
	USB_Init();
    3bd0:	0e 94 5b 16 	call	0x2cb6	; 0x2cb6 <USB_Init>
}
    3bd4:	df 91       	pop	r29
    3bd6:	cf 91       	pop	r28
    3bd8:	08 95       	ret

00003bda <main>:

/** Main program entry point. This routine contains the overall program flow, including initial
 *  setup of all components and the main program loop.
 */
int main(void)
{
    3bda:	cf 93       	push	r28
    3bdc:	df 93       	push	r29
    3bde:	00 d0       	rcall	.+0      	; 0x3be0 <main+0x6>
    3be0:	1f 92       	push	r1
    3be2:	cd b7       	in	r28, 0x3d	; 61
    3be4:	de b7       	in	r29, 0x3e	; 62
	volatile time_t mytime = atol("1471006630");
    3be6:	8d e4       	ldi	r24, 0x4D	; 77
    3be8:	93 e2       	ldi	r25, 0x23	; 35
    3bea:	0e 94 23 24 	call	0x4846	; 0x4846 <atol>
    3bee:	69 83       	std	Y+1, r22	; 0x01
    3bf0:	7a 83       	std	Y+2, r23	; 0x02
    3bf2:	8b 83       	std	Y+3, r24	; 0x03
    3bf4:	9c 83       	std	Y+4, r25	; 0x04
	//volatile time_t mytime = 1471006630 ;
	asm("nop");
    3bf6:	00 00       	nop


	DigitalPin_SetDir(&led,1);
    3bf8:	61 e0       	ldi	r22, 0x01	; 1
    3bfa:	8d ec       	ldi	r24, 0xCD	; 205
    3bfc:	92 e2       	ldi	r25, 0x22	; 34
    3bfe:	0e 94 df 1e 	call	0x3dbe	; 0x3dbe <DigitalPin_SetDir>
	DigitalPin_SetDir(&led2,1);
    3c02:	61 e0       	ldi	r22, 0x01	; 1
    3c04:	8a ec       	ldi	r24, 0xCA	; 202
    3c06:	92 e2       	ldi	r25, 0x22	; 34
    3c08:	0e 94 df 1e 	call	0x3dbe	; 0x3dbe <DigitalPin_SetDir>
	
	SetupHardware();
    3c0c:	0e 94 8d 1d 	call	0x3b1a	; 0x3b1a <SetupHardware>
	gfx_mono_set_framebuffer(framebuffer);
\endcode
 */
void gfx_mono_set_framebuffer(uint8_t *framebuffer)
{
	fbpointer = framebuffer;
    3c10:	84 ed       	ldi	r24, 0xD4	; 212
    3c12:	93 e9       	ldi	r25, 0x93	; 147
    3c14:	80 93 d2 93 	sts	0x93D2, r24	; 0x8093d2 <fbpointer>
    3c18:	90 93 d3 93 	sts	0x93D3, r25	; 0x8093d3 <fbpointer+0x1>

	uint8_t page;
	uint8_t column;
	gfx_mono_set_framebuffer(framebuffer);
	ssd1306_init();
    3c1c:	0e 94 82 18 	call	0x3104	; 0x3104 <ssd1306_init>
	ssd1306_clear();
    3c20:	0e 94 27 18 	call	0x304e	; 0x304e <ssd1306_clear>
 */
static inline void ssd1306_set_display_start_line_address(uint8_t address)
{
	// Make sure address is 6 bits
	address &= 0x3F;
	ssd1306_write_command(SSD1306_CMD_SET_START_LINE(address));
    3c24:	80 e4       	ldi	r24, 0x40	; 64
    3c26:	0e 94 da 17 	call	0x2fb4	; 0x2fb4 <ssd1306_write_command>
	ssd1306_set_display_start_line_address(0);
 	for (page = 0; page < GFX_MONO_LCD_PAGES; page++) {
    3c2a:	00 e0       	ldi	r16, 0x00	; 0
    3c2c:	0c c0       	rjmp	.+24     	; 0x3c46 <main+0x6c>
		for (column = 0; column < GFX_MONO_LCD_WIDTH; column++) {
			gfx_mono_ssd1306_put_byte(page, column, 0x00, 1);
    3c2e:	21 e0       	ldi	r18, 0x01	; 1
    3c30:	40 e0       	ldi	r20, 0x00	; 0
    3c32:	61 2f       	mov	r22, r17
    3c34:	80 2f       	mov	r24, r16
    3c36:	0e 94 58 19 	call	0x32b0	; 0x32b0 <gfx_mono_ssd1306_put_byte>
	gfx_mono_set_framebuffer(framebuffer);
	ssd1306_init();
	ssd1306_clear();
	ssd1306_set_display_start_line_address(0);
 	for (page = 0; page < GFX_MONO_LCD_PAGES; page++) {
		for (column = 0; column < GFX_MONO_LCD_WIDTH; column++) {
    3c3a:	1f 5f       	subi	r17, 0xFF	; 255
    3c3c:	10 38       	cpi	r17, 0x80	; 128
    3c3e:	b9 f7       	brne	.-18     	; 0x3c2e <main+0x54>
	uint8_t column;
	gfx_mono_set_framebuffer(framebuffer);
	ssd1306_init();
	ssd1306_clear();
	ssd1306_set_display_start_line_address(0);
 	for (page = 0; page < GFX_MONO_LCD_PAGES; page++) {
    3c40:	0f 5f       	subi	r16, 0xFF	; 255
    3c42:	04 30       	cpi	r16, 0x04	; 4
    3c44:	11 f0       	breq	.+4      	; 0x3c4a <main+0x70>

/** Main program entry point. This routine contains the overall program flow, including initial
 *  setup of all components and the main program loop.
 */
int main(void)
{
    3c46:	10 e0       	ldi	r17, 0x00	; 0
    3c48:	f2 cf       	rjmp	.-28     	; 0x3c2e <main+0x54>
		for (column = 0; column < GFX_MONO_LCD_WIDTH; column++) {
			gfx_mono_ssd1306_put_byte(page, column, 0x00, 1);
		}
	}

	asm("nop");
    3c4a:	00 00       	nop
	ssd1306_clear();
    3c4c:	0e 94 27 18 	call	0x304e	; 0x304e <ssd1306_clear>
	ssd1306_set_page_address(0);
    3c50:	80 e0       	ldi	r24, 0x00	; 0
    3c52:	0e 94 12 18 	call	0x3024	; 0x3024 <ssd1306_set_page_address>
	ssd1306_write_text("EMON");
    3c56:	88 e5       	ldi	r24, 0x58	; 88
    3c58:	93 e2       	ldi	r25, 0x23	; 35
    3c5a:	0e 94 08 19 	call	0x3210	; 0x3210 <ssd1306_write_text>


	DigitalPin_SetDir(&led,1);
    3c5e:	61 e0       	ldi	r22, 0x01	; 1
    3c60:	8d ec       	ldi	r24, 0xCD	; 205
    3c62:	92 e2       	ldi	r25, 0x22	; 34
    3c64:	0e 94 df 1e 	call	0x3dbe	; 0x3dbe <DigitalPin_SetDir>
	DigitalPin_SetDir(&led2,1);
    3c68:	61 e0       	ldi	r22, 0x01	; 1
    3c6a:	8a ec       	ldi	r24, 0xCA	; 202
    3c6c:	92 e2       	ldi	r25, 0x22	; 34
    3c6e:	0e 94 df 1e 	call	0x3dbe	; 0x3dbe <DigitalPin_SetDir>
	//PORT_SetDirection(&PORTR,(1<<0));

	CLKSYS_Enable( OSC_RC32MEN_bm );
    3c72:	e0 e5       	ldi	r30, 0x50	; 80
    3c74:	f0 e0       	ldi	r31, 0x00	; 0
    3c76:	80 81       	ld	r24, Z
    3c78:	82 60       	ori	r24, 0x02	; 2
    3c7a:	80 83       	st	Z, r24
	do {} while ( CLKSYS_IsReady( OSC_RC32MRDY_bm ) == 0 );
    3c7c:	81 81       	ldd	r24, Z+1	; 0x01
    3c7e:	81 ff       	sbrs	r24, 1
    3c80:	fd cf       	rjmp	.-6      	; 0x3c7c <main+0xa2>
	CLKSYS_Main_ClockSource_Select( CLK_SCLKSEL_RC32M_gc );
    3c82:	81 e0       	ldi	r24, 0x01	; 1
    3c84:	0e 94 d9 1f 	call	0x3fb2	; 0x3fb2 <CLKSYS_Main_ClockSource_Select>
	CLKSYS_Disable( OSC_RC2MEN_bm );
    3c88:	81 e0       	ldi	r24, 0x01	; 1
    3c8a:	0e 94 cf 1f 	call	0x3f9e	; 0x3f9e <CLKSYS_Disable>

	char time_string[20];
	uint8_t rxData[33];


	PORTR.DIRSET = (1<<0);
    3c8e:	e0 ee       	ldi	r30, 0xE0	; 224
    3c90:	f7 e0       	ldi	r31, 0x07	; 7
    3c92:	81 e0       	ldi	r24, 0x01	; 1
    3c94:	81 83       	std	Z+1, r24	; 0x01
	PORTR.DIRSET = (1<<1);
    3c96:	82 e0       	ldi	r24, 0x02	; 2
    3c98:	81 83       	std	Z+1, r24	; 0x01
	PORTD.DIRSET = (1<<4);
    3c9a:	80 e1       	ldi	r24, 0x10	; 16
    3c9c:	80 93 61 06 	sts	0x0661, r24	; 0x800661 <__TEXT_REGION_LENGTH__+0x700661>

	CDC_Device_CreateStream(&VirtualSerial_CDC_Interface, &USBSerialStream);
    3ca0:	64 ec       	ldi	r22, 0xC4	; 196
    3ca2:	73 e9       	ldi	r23, 0x93	; 147
    3ca4:	83 e9       	ldi	r24, 0x93	; 147
    3ca6:	92 e2       	ldi	r25, 0x22	; 34
    3ca8:	0e 94 79 10 	call	0x20f2	; 0x20f2 <CDC_Device_CreateStream>
				#if (ARCH == ARCH_AVR8)
				sei();
				#elif (ARCH == ARCH_UC3)
				__builtin_csrf(AVR32_SR_GM_OFFSET);
				#elif (ARCH == ARCH_XMEGA)
				sei();
    3cac:	78 94       	sei
	...


	
	//xTaskCreate(thread_1,(signed portCHAR *) "t1", 100, NULL, tskIDLE_PRIORITY, NULL );
	//xTaskCreate(thread_2,(signed portCHAR *) "t2", 500, NULL, tskIDLE_PRIORITY, NULL );
	xTaskCreate(thread_3,(signed portCHAR *) "t3", 500, NULL, tskIDLE_PRIORITY, NULL );
    3cb6:	a1 2c       	mov	r10, r1
    3cb8:	b1 2c       	mov	r11, r1
    3cba:	c1 2c       	mov	r12, r1
    3cbc:	d1 2c       	mov	r13, r1
    3cbe:	e1 2c       	mov	r14, r1
    3cc0:	f1 2c       	mov	r15, r1
    3cc2:	00 e0       	ldi	r16, 0x00	; 0
    3cc4:	20 e0       	ldi	r18, 0x00	; 0
    3cc6:	30 e0       	ldi	r19, 0x00	; 0
    3cc8:	44 ef       	ldi	r20, 0xF4	; 244
    3cca:	51 e0       	ldi	r21, 0x01	; 1
    3ccc:	6d e5       	ldi	r22, 0x5D	; 93
    3cce:	73 e2       	ldi	r23, 0x23	; 35
    3cd0:	86 e2       	ldi	r24, 0x26	; 38
    3cd2:	9c e1       	ldi	r25, 0x1C	; 28
    3cd4:	0e 94 15 0c 	call	0x182a	; 0x182a <xTaskGenericCreate>
	xTaskCreate(thread_4,(signed portCHAR *) "t4", 500, NULL, tskIDLE_PRIORITY, NULL );
    3cd8:	20 e0       	ldi	r18, 0x00	; 0
    3cda:	30 e0       	ldi	r19, 0x00	; 0
    3cdc:	44 ef       	ldi	r20, 0xF4	; 244
    3cde:	51 e0       	ldi	r21, 0x01	; 1
    3ce0:	60 e6       	ldi	r22, 0x60	; 96
    3ce2:	73 e2       	ldi	r23, 0x23	; 35
    3ce4:	88 e5       	ldi	r24, 0x58	; 88
    3ce6:	9d e1       	ldi	r25, 0x1D	; 29
    3ce8:	0e 94 15 0c 	call	0x182a	; 0x182a <xTaskGenericCreate>
	//xTaskCreate(thread_5,(signed portCHAR *) "t5", 500, NULL, tskIDLE_PRIORITY, NULL );
	xTaskCreate(thread_6,(signed portCHAR *) "t6", 500, NULL, tskIDLE_PRIORITY, NULL );
    3cec:	20 e0       	ldi	r18, 0x00	; 0
    3cee:	30 e0       	ldi	r19, 0x00	; 0
    3cf0:	44 ef       	ldi	r20, 0xF4	; 244
    3cf2:	51 e0       	ldi	r21, 0x01	; 1
    3cf4:	63 e6       	ldi	r22, 0x63	; 99
    3cf6:	73 e2       	ldi	r23, 0x23	; 35
    3cf8:	88 e0       	ldi	r24, 0x08	; 8
    3cfa:	97 e1       	ldi	r25, 0x17	; 23
    3cfc:	0e 94 15 0c 	call	0x182a	; 0x182a <xTaskGenericCreate>
	xTaskCreate(USBThread,(signed portCHAR *) "usb", 200, NULL, tskIDLE_PRIORITY, NULL );
    3d00:	20 e0       	ldi	r18, 0x00	; 0
    3d02:	30 e0       	ldi	r19, 0x00	; 0
    3d04:	48 ec       	ldi	r20, 0xC8	; 200
    3d06:	50 e0       	ldi	r21, 0x00	; 0
    3d08:	66 e6       	ldi	r22, 0x66	; 102
    3d0a:	73 e2       	ldi	r23, 0x23	; 35
    3d0c:	8f eb       	ldi	r24, 0xBF	; 191
    3d0e:	97 e1       	ldi	r25, 0x17	; 23
    3d10:	0e 94 15 0c 	call	0x182a	; 0x182a <xTaskGenericCreate>
	

	//starting the scheduler
	vTaskStartScheduler();
    3d14:	0e 94 1d 0d 	call	0x1a3a	; 0x1a3a <vTaskStartScheduler>


	for (;;)
	{

	}
    3d18:	ff cf       	rjmp	.-2      	; 0x3d18 <main+0x13e>

00003d1a <EVENT_USB_Device_Connect>:
				PORTD_OUTCLR = LEDMask & LEDS_PORTD_LEDS;
			}

			static inline void LEDs_SetAllLEDs(const uint8_t LEDMask)
			{
				PORTR_OUTCLR = LEDS_PORTR_LEDS;
    3d1a:	83 e0       	ldi	r24, 0x03	; 3
    3d1c:	80 93 e6 07 	sts	0x07E6, r24	; 0x8007e6 <__TEXT_REGION_LENGTH__+0x7007e6>
				PORTD_OUTCLR = LEDS_PORTD_LEDS;
    3d20:	80 e3       	ldi	r24, 0x30	; 48
    3d22:	80 93 66 06 	sts	0x0666, r24	; 0x800666 <__TEXT_REGION_LENGTH__+0x700666>

				PORTR_OUTSET = (LEDMask & LEDS_PORTR_LEDS);
    3d26:	82 e0       	ldi	r24, 0x02	; 2
    3d28:	80 93 e5 07 	sts	0x07E5, r24	; 0x8007e5 <__TEXT_REGION_LENGTH__+0x7007e5>
				PORTD_OUTSET = (LEDMask & LEDS_PORTD_LEDS);
    3d2c:	80 e1       	ldi	r24, 0x10	; 16
    3d2e:	80 93 65 06 	sts	0x0665, r24	; 0x800665 <__TEXT_REGION_LENGTH__+0x700665>
    3d32:	08 95       	ret

00003d34 <EVENT_USB_Device_Disconnect>:
				PORTD_OUTCLR = LEDMask & LEDS_PORTD_LEDS;
			}

			static inline void LEDs_SetAllLEDs(const uint8_t LEDMask)
			{
				PORTR_OUTCLR = LEDS_PORTR_LEDS;
    3d34:	83 e0       	ldi	r24, 0x03	; 3
    3d36:	80 93 e6 07 	sts	0x07E6, r24	; 0x8007e6 <__TEXT_REGION_LENGTH__+0x7007e6>
				PORTD_OUTCLR = LEDS_PORTD_LEDS;
    3d3a:	80 e3       	ldi	r24, 0x30	; 48
    3d3c:	80 93 66 06 	sts	0x0666, r24	; 0x800666 <__TEXT_REGION_LENGTH__+0x700666>

				PORTR_OUTSET = (LEDMask & LEDS_PORTR_LEDS);
    3d40:	81 e0       	ldi	r24, 0x01	; 1
    3d42:	80 93 e5 07 	sts	0x07E5, r24	; 0x8007e5 <__TEXT_REGION_LENGTH__+0x7007e5>
				PORTD_OUTSET = (LEDMask & LEDS_PORTD_LEDS);
    3d46:	10 92 65 06 	sts	0x0665, r1	; 0x800665 <__TEXT_REGION_LENGTH__+0x700665>
    3d4a:	08 95       	ret

00003d4c <EVENT_USB_Device_ConfigurationChanged>:
/** Event handler for the library USB Configuration Changed event. */
void EVENT_USB_Device_ConfigurationChanged(void)
{
	bool ConfigSuccess = true;

	ConfigSuccess &= CDC_Device_ConfigureEndpoints(&VirtualSerial_CDC_Interface);
    3d4c:	83 e9       	ldi	r24, 0x93	; 147
    3d4e:	92 e2       	ldi	r25, 0x22	; 34
    3d50:	0e 94 33 0f 	call	0x1e66	; 0x1e66 <CDC_Device_ConfigureEndpoints>

	LEDs_SetAllLEDs(ConfigSuccess ? LEDMASK_USB_READY : LEDMASK_USB_ERROR);
    3d54:	81 11       	cpse	r24, r1
    3d56:	02 c0       	rjmp	.+4      	; 0x3d5c <EVENT_USB_Device_ConfigurationChanged+0x10>
    3d58:	81 e1       	ldi	r24, 0x11	; 17
    3d5a:	01 c0       	rjmp	.+2      	; 0x3d5e <EVENT_USB_Device_ConfigurationChanged+0x12>
    3d5c:	82 e2       	ldi	r24, 0x22	; 34
				PORTD_OUTCLR = LEDMask & LEDS_PORTD_LEDS;
			}

			static inline void LEDs_SetAllLEDs(const uint8_t LEDMask)
			{
				PORTR_OUTCLR = LEDS_PORTR_LEDS;
    3d5e:	93 e0       	ldi	r25, 0x03	; 3
    3d60:	90 93 e6 07 	sts	0x07E6, r25	; 0x8007e6 <__TEXT_REGION_LENGTH__+0x7007e6>
				PORTD_OUTCLR = LEDS_PORTD_LEDS;
    3d64:	90 e3       	ldi	r25, 0x30	; 48
    3d66:	90 93 66 06 	sts	0x0666, r25	; 0x800666 <__TEXT_REGION_LENGTH__+0x700666>

				PORTR_OUTSET = (LEDMask & LEDS_PORTR_LEDS);
    3d6a:	98 2f       	mov	r25, r24
    3d6c:	93 70       	andi	r25, 0x03	; 3
    3d6e:	90 93 e5 07 	sts	0x07E5, r25	; 0x8007e5 <__TEXT_REGION_LENGTH__+0x7007e5>
				PORTD_OUTSET = (LEDMask & LEDS_PORTD_LEDS);
    3d72:	80 73       	andi	r24, 0x30	; 48
    3d74:	80 93 65 06 	sts	0x0665, r24	; 0x800665 <__TEXT_REGION_LENGTH__+0x700665>
    3d78:	08 95       	ret

00003d7a <EVENT_USB_Device_ControlRequest>:
}

/** Event handler for the library USB Control Request reception event. */
void EVENT_USB_Device_ControlRequest(void)
{
	CDC_Device_ProcessControlRequest(&VirtualSerial_CDC_Interface);
    3d7a:	83 e9       	ldi	r24, 0x93	; 147
    3d7c:	92 e2       	ldi	r25, 0x22	; 34
    3d7e:	0e 94 8d 10 	call	0x211a	; 0x211a <CDC_Device_ProcessControlRequest>
    3d82:	08 95       	ret

00003d84 <EVENT_CDC_Device_ControLineStateChanged>:
 *  control lines sent from the host..
 *
 *  \param[in] CDCInterfaceInfo  Pointer to the CDC class interface configuration structure being referenced
 */
void EVENT_CDC_Device_ControLineStateChanged(USB_ClassInfo_CDC_Device_t *const CDCInterfaceInfo)
{
    3d84:	08 95       	ret

00003d86 <DigitalPin_Config>:
 */ 


#include "DIGITALPIN.h"

void DigitalPin_Config(DigitalPin_t *pin ,bool slewRateEnable, bool invertEnable,PORT_OPC_t opc, PORT_ISC_t isc){
    3d86:	0f 93       	push	r16
	uint8_t temp = (uint8_t) opc |isc |(slewRateEnable ? PORT_SRLEN_bm : 0) |(invertEnable ? PORT_INVEN_bm : 0);
    3d88:	20 2b       	or	r18, r16
    3d8a:	61 11       	cpse	r22, r1
    3d8c:	02 c0       	rjmp	.+4      	; 0x3d92 <DigitalPin_Config+0xc>
    3d8e:	00 e0       	ldi	r16, 0x00	; 0
    3d90:	01 c0       	rjmp	.+2      	; 0x3d94 <DigitalPin_Config+0xe>
    3d92:	00 e8       	ldi	r16, 0x80	; 128
    3d94:	20 2b       	or	r18, r16
    3d96:	41 11       	cpse	r20, r1
    3d98:	02 c0       	rjmp	.+4      	; 0x3d9e <DigitalPin_Config+0x18>
    3d9a:	00 e0       	ldi	r16, 0x00	; 0
    3d9c:	01 c0       	rjmp	.+2      	; 0x3da0 <DigitalPin_Config+0x1a>
    3d9e:	00 e4       	ldi	r16, 0x40	; 64
    3da0:	20 2b       	or	r18, r16
	
	/* Save status register. */
	uint8_t sreg = SREG;
    3da2:	3f b7       	in	r19, 0x3f	; 63
	cli();
    3da4:	f8 94       	cli
	PORTCFG.MPCMASK = pin->_pin;
    3da6:	dc 01       	movw	r26, r24
    3da8:	12 96       	adiw	r26, 0x02	; 2
    3daa:	4c 91       	ld	r20, X
    3dac:	12 97       	sbiw	r26, 0x02	; 2
    3dae:	40 93 b0 00 	sts	0x00B0, r20	; 0x8000b0 <__TEXT_REGION_LENGTH__+0x7000b0>
	pin->_port->PIN0CTRL = temp;
    3db2:	ed 91       	ld	r30, X+
    3db4:	fc 91       	ld	r31, X
    3db6:	20 8b       	std	Z+16, r18	; 0x10
	/* Restore status register. */
	SREG = sreg;	
    3db8:	3f bf       	out	0x3f, r19	; 63
}
    3dba:	0f 91       	pop	r16
    3dbc:	08 95       	ret

00003dbe <DigitalPin_SetDir>:


void DigitalPin_SetDir(DigitalPin_t *pin , bool dir){
	if(dir) {
    3dbe:	66 23       	and	r22, r22
    3dc0:	81 f0       	breq	.+32     	; 0x3de2 <DigitalPin_SetDir+0x24>
		pin->_port->DIRSET = (1<< pin->_pin);
    3dc2:	dc 01       	movw	r26, r24
    3dc4:	ed 91       	ld	r30, X+
    3dc6:	fc 91       	ld	r31, X
    3dc8:	11 97       	sbiw	r26, 0x01	; 1
    3dca:	21 e0       	ldi	r18, 0x01	; 1
    3dcc:	30 e0       	ldi	r19, 0x00	; 0
    3dce:	a9 01       	movw	r20, r18
    3dd0:	12 96       	adiw	r26, 0x02	; 2
    3dd2:	0c 90       	ld	r0, X
    3dd4:	02 c0       	rjmp	.+4      	; 0x3dda <DigitalPin_SetDir+0x1c>
    3dd6:	44 0f       	add	r20, r20
    3dd8:	55 1f       	adc	r21, r21
    3dda:	0a 94       	dec	r0
    3ddc:	e2 f7       	brpl	.-8      	; 0x3dd6 <DigitalPin_SetDir+0x18>
    3dde:	41 83       	std	Z+1, r20	; 0x01
    3de0:	08 95       	ret
	}
	else{
		pin->_port->DIRCLR = (1<< pin->_pin);
    3de2:	dc 01       	movw	r26, r24
    3de4:	ed 91       	ld	r30, X+
    3de6:	fc 91       	ld	r31, X
    3de8:	11 97       	sbiw	r26, 0x01	; 1
    3dea:	21 e0       	ldi	r18, 0x01	; 1
    3dec:	30 e0       	ldi	r19, 0x00	; 0
    3dee:	a9 01       	movw	r20, r18
    3df0:	12 96       	adiw	r26, 0x02	; 2
    3df2:	0c 90       	ld	r0, X
    3df4:	02 c0       	rjmp	.+4      	; 0x3dfa <DigitalPin_SetDir+0x3c>
    3df6:	44 0f       	add	r20, r20
    3df8:	55 1f       	adc	r21, r21
    3dfa:	0a 94       	dec	r0
    3dfc:	e2 f7       	brpl	.-8      	; 0x3df6 <DigitalPin_SetDir+0x38>
    3dfe:	42 83       	std	Z+2, r20	; 0x02
    3e00:	08 95       	ret

00003e02 <DigitalPin_SetValue>:
	}
}

void DigitalPin_SetValue(DigitalPin_t *pin){
	pin->_port->OUTSET = (1<< pin->_pin);
    3e02:	dc 01       	movw	r26, r24
    3e04:	ed 91       	ld	r30, X+
    3e06:	fc 91       	ld	r31, X
    3e08:	11 97       	sbiw	r26, 0x01	; 1
    3e0a:	21 e0       	ldi	r18, 0x01	; 1
    3e0c:	30 e0       	ldi	r19, 0x00	; 0
    3e0e:	a9 01       	movw	r20, r18
    3e10:	12 96       	adiw	r26, 0x02	; 2
    3e12:	0c 90       	ld	r0, X
    3e14:	02 c0       	rjmp	.+4      	; 0x3e1a <DigitalPin_SetValue+0x18>
    3e16:	44 0f       	add	r20, r20
    3e18:	55 1f       	adc	r21, r21
    3e1a:	0a 94       	dec	r0
    3e1c:	e2 f7       	brpl	.-8      	; 0x3e16 <DigitalPin_SetValue+0x14>
    3e1e:	45 83       	std	Z+5, r20	; 0x05
    3e20:	08 95       	ret

00003e22 <DigitalPin_ClearValue>:
}

void DigitalPin_ClearValue(DigitalPin_t *pin){
	pin->_port->OUTCLR = (1<< pin->_pin);
    3e22:	dc 01       	movw	r26, r24
    3e24:	ed 91       	ld	r30, X+
    3e26:	fc 91       	ld	r31, X
    3e28:	11 97       	sbiw	r26, 0x01	; 1
    3e2a:	21 e0       	ldi	r18, 0x01	; 1
    3e2c:	30 e0       	ldi	r19, 0x00	; 0
    3e2e:	a9 01       	movw	r20, r18
    3e30:	12 96       	adiw	r26, 0x02	; 2
    3e32:	0c 90       	ld	r0, X
    3e34:	02 c0       	rjmp	.+4      	; 0x3e3a <DigitalPin_ClearValue+0x18>
    3e36:	44 0f       	add	r20, r20
    3e38:	55 1f       	adc	r21, r21
    3e3a:	0a 94       	dec	r0
    3e3c:	e2 f7       	brpl	.-8      	; 0x3e36 <DigitalPin_ClearValue+0x14>
    3e3e:	46 83       	std	Z+6, r20	; 0x06
    3e40:	08 95       	ret

00003e42 <DigitalPin_ToggleValue>:
}

void DigitalPin_ToggleValue(DigitalPin_t *pin){
	pin->_port->OUTTGL = (1<< pin->_pin);
    3e42:	dc 01       	movw	r26, r24
    3e44:	ed 91       	ld	r30, X+
    3e46:	fc 91       	ld	r31, X
    3e48:	11 97       	sbiw	r26, 0x01	; 1
    3e4a:	21 e0       	ldi	r18, 0x01	; 1
    3e4c:	30 e0       	ldi	r19, 0x00	; 0
    3e4e:	a9 01       	movw	r20, r18
    3e50:	12 96       	adiw	r26, 0x02	; 2
    3e52:	0c 90       	ld	r0, X
    3e54:	02 c0       	rjmp	.+4      	; 0x3e5a <DigitalPin_ToggleValue+0x18>
    3e56:	44 0f       	add	r20, r20
    3e58:	55 1f       	adc	r21, r21
    3e5a:	0a 94       	dec	r0
    3e5c:	e2 f7       	brpl	.-8      	; 0x3e56 <DigitalPin_ToggleValue+0x14>
    3e5e:	47 83       	std	Z+7, r20	; 0x07
    3e60:	08 95       	ret

00003e62 <DigitalPin_GetValue>:
}
bool DigitalPin_GetValue(DigitalPin_t *pin){
	bool pinValue;
	if((pin->_port->IN)&(1<<(pin->_pin))) pinValue = 1 ;
    3e62:	dc 01       	movw	r26, r24
    3e64:	ed 91       	ld	r30, X+
    3e66:	fc 91       	ld	r31, X
    3e68:	11 97       	sbiw	r26, 0x01	; 1
    3e6a:	20 85       	ldd	r18, Z+8	; 0x08
    3e6c:	30 e0       	ldi	r19, 0x00	; 0
    3e6e:	f9 01       	movw	r30, r18
    3e70:	12 96       	adiw	r26, 0x02	; 2
    3e72:	0c 90       	ld	r0, X
    3e74:	02 c0       	rjmp	.+4      	; 0x3e7a <DigitalPin_GetValue+0x18>
    3e76:	f5 95       	asr	r31
    3e78:	e7 95       	ror	r30
    3e7a:	0a 94       	dec	r0
    3e7c:	e2 f7       	brpl	.-8      	; 0x3e76 <DigitalPin_GetValue+0x14>
    3e7e:	cf 01       	movw	r24, r30
	else pinValue = 0;
	return pinValue;
    3e80:	81 70       	andi	r24, 0x01	; 1
    3e82:	08 95       	ret

00003e84 <__vector_25>:
    3e84:	1f 92       	push	r1
    3e86:	0f 92       	push	r0
    3e88:	0f b6       	in	r0, 0x3f	; 63
    3e8a:	0f 92       	push	r0
    3e8c:	11 24       	eor	r1, r1
    3e8e:	0f 90       	pop	r0
    3e90:	0f be       	out	0x3f, r0	; 63
    3e92:	0f 90       	pop	r0
    3e94:	1f 90       	pop	r1
    3e96:	18 95       	reti

00003e98 <__vector_27>:
    3e98:	1f 92       	push	r1
    3e9a:	0f 92       	push	r0
    3e9c:	0f b6       	in	r0, 0x3f	; 63
    3e9e:	0f 92       	push	r0
    3ea0:	11 24       	eor	r1, r1
    3ea2:	0f 90       	pop	r0
    3ea4:	0f be       	out	0x3f, r0	; 63
    3ea6:	0f 90       	pop	r0
    3ea8:	1f 90       	pop	r1
    3eaa:	18 95       	reti

00003eac <__vector_26>:
    3eac:	1f 92       	push	r1
    3eae:	0f 92       	push	r0
    3eb0:	0f b6       	in	r0, 0x3f	; 63
    3eb2:	0f 92       	push	r0
    3eb4:	11 24       	eor	r1, r1
    3eb6:	0f 90       	pop	r0
    3eb8:	0f be       	out	0x3f, r0	; 63
    3eba:	0f 90       	pop	r0
    3ebc:	1f 90       	pop	r1
    3ebe:	18 95       	reti

00003ec0 <__vector_28>:
    3ec0:	1f 92       	push	r1
    3ec2:	0f 92       	push	r0
    3ec4:	0f b6       	in	r0, 0x3f	; 63
    3ec6:	0f 92       	push	r0
    3ec8:	11 24       	eor	r1, r1
    3eca:	0f 90       	pop	r0
    3ecc:	0f be       	out	0x3f, r0	; 63
    3ece:	0f 90       	pop	r0
    3ed0:	1f 90       	pop	r1
    3ed2:	18 95       	reti

00003ed4 <__vector_30>:
    3ed4:	1f 92       	push	r1
    3ed6:	0f 92       	push	r0
    3ed8:	0f b6       	in	r0, 0x3f	; 63
    3eda:	0f 92       	push	r0
    3edc:	11 24       	eor	r1, r1
    3ede:	0f 90       	pop	r0
    3ee0:	0f be       	out	0x3f, r0	; 63
    3ee2:	0f 90       	pop	r0
    3ee4:	1f 90       	pop	r1
    3ee6:	18 95       	reti

00003ee8 <__vector_29>:
    3ee8:	1f 92       	push	r1
    3eea:	0f 92       	push	r0
    3eec:	0f b6       	in	r0, 0x3f	; 63
    3eee:	0f 92       	push	r0
    3ef0:	11 24       	eor	r1, r1
    3ef2:	0f 90       	pop	r0
    3ef4:	0f be       	out	0x3f, r0	; 63
    3ef6:	0f 90       	pop	r0
    3ef8:	1f 90       	pop	r1
    3efa:	18 95       	reti

00003efc <__vector_88>:
    3efc:	1f 92       	push	r1
    3efe:	0f 92       	push	r0
    3f00:	0f b6       	in	r0, 0x3f	; 63
    3f02:	0f 92       	push	r0
    3f04:	11 24       	eor	r1, r1
    3f06:	0f 90       	pop	r0
    3f08:	0f be       	out	0x3f, r0	; 63
    3f0a:	0f 90       	pop	r0
    3f0c:	1f 90       	pop	r1
    3f0e:	18 95       	reti

00003f10 <__vector_90>:
    3f10:	1f 92       	push	r1
    3f12:	0f 92       	push	r0
    3f14:	0f b6       	in	r0, 0x3f	; 63
    3f16:	0f 92       	push	r0
    3f18:	11 24       	eor	r1, r1
    3f1a:	0f 90       	pop	r0
    3f1c:	0f be       	out	0x3f, r0	; 63
    3f1e:	0f 90       	pop	r0
    3f20:	1f 90       	pop	r1
    3f22:	18 95       	reti

00003f24 <__vector_89>:
    3f24:	1f 92       	push	r1
    3f26:	0f 92       	push	r0
    3f28:	0f b6       	in	r0, 0x3f	; 63
    3f2a:	0f 92       	push	r0
    3f2c:	11 24       	eor	r1, r1
    3f2e:	0f 90       	pop	r0
    3f30:	0f be       	out	0x3f, r0	; 63
    3f32:	0f 90       	pop	r0
    3f34:	1f 90       	pop	r1
    3f36:	18 95       	reti

00003f38 <__vector_58>:
    3f38:	1f 92       	push	r1
    3f3a:	0f 92       	push	r0
    3f3c:	0f b6       	in	r0, 0x3f	; 63
    3f3e:	0f 92       	push	r0
    3f40:	11 24       	eor	r1, r1
    3f42:	0f 90       	pop	r0
    3f44:	0f be       	out	0x3f, r0	; 63
    3f46:	0f 90       	pop	r0
    3f48:	1f 90       	pop	r1
    3f4a:	18 95       	reti

00003f4c <__vector_60>:
    3f4c:	1f 92       	push	r1
    3f4e:	0f 92       	push	r0
    3f50:	0f b6       	in	r0, 0x3f	; 63
    3f52:	0f 92       	push	r0
    3f54:	11 24       	eor	r1, r1
    3f56:	0f 90       	pop	r0
    3f58:	0f be       	out	0x3f, r0	; 63
    3f5a:	0f 90       	pop	r0
    3f5c:	1f 90       	pop	r1
    3f5e:	18 95       	reti

00003f60 <__vector_59>:
    3f60:	1f 92       	push	r1
    3f62:	0f 92       	push	r0
    3f64:	0f b6       	in	r0, 0x3f	; 63
    3f66:	0f 92       	push	r0
    3f68:	11 24       	eor	r1, r1
    3f6a:	0f 90       	pop	r0
    3f6c:	0f be       	out	0x3f, r0	; 63
    3f6e:	0f 90       	pop	r0
    3f70:	1f 90       	pop	r1
    3f72:	18 95       	reti

00003f74 <CCPWrite>:
    3f74:	0f 93       	push	r16
    3f76:	cf 93       	push	r28
    3f78:	df 93       	push	r29
    3f7a:	1f 92       	push	r1
    3f7c:	cd b7       	in	r28, 0x3d	; 61
    3f7e:	de b7       	in	r29, 0x3e	; 62
    3f80:	2f b7       	in	r18, 0x3f	; 63
    3f82:	29 83       	std	Y+1, r18	; 0x01
    3f84:	f8 94       	cli
    3f86:	1b be       	out	0x3b, r1	; 59
    3f88:	fc 01       	movw	r30, r24
    3f8a:	08 ed       	ldi	r16, 0xD8	; 216
    3f8c:	04 bf       	out	0x34, r16	; 52
    3f8e:	60 83       	st	Z, r22
    3f90:	89 81       	ldd	r24, Y+1	; 0x01
    3f92:	8f bf       	out	0x3f, r24	; 63
    3f94:	0f 90       	pop	r0
    3f96:	df 91       	pop	r29
    3f98:	cf 91       	pop	r28
    3f9a:	0f 91       	pop	r16
    3f9c:	08 95       	ret

00003f9e <CLKSYS_Disable>:
    3f9e:	e0 e5       	ldi	r30, 0x50	; 80
    3fa0:	f0 e0       	ldi	r31, 0x00	; 0
    3fa2:	90 81       	ld	r25, Z
    3fa4:	28 2f       	mov	r18, r24
    3fa6:	20 95       	com	r18
    3fa8:	92 23       	and	r25, r18
    3faa:	90 83       	st	Z, r25
    3fac:	90 81       	ld	r25, Z
    3fae:	89 23       	and	r24, r25
    3fb0:	08 95       	ret

00003fb2 <CLKSYS_Main_ClockSource_Select>:
    3fb2:	0f 93       	push	r16
    3fb4:	1f 93       	push	r17
    3fb6:	cf 93       	push	r28
    3fb8:	c8 2f       	mov	r28, r24
    3fba:	00 e4       	ldi	r16, 0x40	; 64
    3fbc:	10 e0       	ldi	r17, 0x00	; 0
    3fbe:	f8 01       	movw	r30, r16
    3fc0:	60 81       	ld	r22, Z
    3fc2:	68 7f       	andi	r22, 0xF8	; 248
    3fc4:	68 2b       	or	r22, r24
    3fc6:	80 e4       	ldi	r24, 0x40	; 64
    3fc8:	90 e0       	ldi	r25, 0x00	; 0
    3fca:	0e 94 ba 1f 	call	0x3f74	; 0x3f74 <CCPWrite>
    3fce:	f8 01       	movw	r30, r16
    3fd0:	80 81       	ld	r24, Z
    3fd2:	8c 23       	and	r24, r28
    3fd4:	cf 91       	pop	r28
    3fd6:	1f 91       	pop	r17
    3fd8:	0f 91       	pop	r16
    3fda:	08 95       	ret

00003fdc <TC0_ConfigClockSource>:
    3fdc:	fc 01       	movw	r30, r24
    3fde:	90 81       	ld	r25, Z
    3fe0:	90 7f       	andi	r25, 0xF0	; 240
    3fe2:	69 2b       	or	r22, r25
    3fe4:	60 83       	st	Z, r22
    3fe6:	08 95       	ret

00003fe8 <TC0_SetOverflowIntLevel>:
    3fe8:	fc 01       	movw	r30, r24
    3fea:	96 81       	ldd	r25, Z+6	; 0x06
    3fec:	9c 7f       	andi	r25, 0xFC	; 252
    3fee:	69 2b       	or	r22, r25
    3ff0:	66 83       	std	Z+6, r22	; 0x06
    3ff2:	08 95       	ret

00003ff4 <vfprintf>:
    3ff4:	2f 92       	push	r2
    3ff6:	3f 92       	push	r3
    3ff8:	4f 92       	push	r4
    3ffa:	5f 92       	push	r5
    3ffc:	6f 92       	push	r6
    3ffe:	7f 92       	push	r7
    4000:	8f 92       	push	r8
    4002:	9f 92       	push	r9
    4004:	af 92       	push	r10
    4006:	bf 92       	push	r11
    4008:	cf 92       	push	r12
    400a:	df 92       	push	r13
    400c:	ef 92       	push	r14
    400e:	ff 92       	push	r15
    4010:	0f 93       	push	r16
    4012:	1f 93       	push	r17
    4014:	cf 93       	push	r28
    4016:	df 93       	push	r29
    4018:	cd b7       	in	r28, 0x3d	; 61
    401a:	de b7       	in	r29, 0x3e	; 62
    401c:	63 97       	sbiw	r28, 0x13	; 19
    401e:	cd bf       	out	0x3d, r28	; 61
    4020:	de bf       	out	0x3e, r29	; 62
    4022:	6c 01       	movw	r12, r24
    4024:	4b 01       	movw	r8, r22
    4026:	2a 01       	movw	r4, r20
    4028:	fc 01       	movw	r30, r24
    402a:	16 82       	std	Z+6, r1	; 0x06
    402c:	17 82       	std	Z+7, r1	; 0x07
    402e:	83 81       	ldd	r24, Z+3	; 0x03
    4030:	81 ff       	sbrs	r24, 1
    4032:	43 c3       	rjmp	.+1670   	; 0x46ba <vfprintf+0x6c6>
    4034:	ae 01       	movw	r20, r28
    4036:	4f 5f       	subi	r20, 0xFF	; 255
    4038:	5f 4f       	sbci	r21, 0xFF	; 255
    403a:	3a 01       	movw	r6, r20
    403c:	f6 01       	movw	r30, r12
    403e:	93 81       	ldd	r25, Z+3	; 0x03
    4040:	f4 01       	movw	r30, r8
    4042:	93 fd       	sbrc	r25, 3
    4044:	85 91       	lpm	r24, Z+
    4046:	93 ff       	sbrs	r25, 3
    4048:	81 91       	ld	r24, Z+
    404a:	4f 01       	movw	r8, r30
    404c:	88 23       	and	r24, r24
    404e:	09 f4       	brne	.+2      	; 0x4052 <vfprintf+0x5e>
    4050:	30 c3       	rjmp	.+1632   	; 0x46b2 <vfprintf+0x6be>
    4052:	85 32       	cpi	r24, 0x25	; 37
    4054:	39 f4       	brne	.+14     	; 0x4064 <vfprintf+0x70>
    4056:	93 fd       	sbrc	r25, 3
    4058:	85 91       	lpm	r24, Z+
    405a:	93 ff       	sbrs	r25, 3
    405c:	81 91       	ld	r24, Z+
    405e:	4f 01       	movw	r8, r30
    4060:	85 32       	cpi	r24, 0x25	; 37
    4062:	39 f4       	brne	.+14     	; 0x4072 <vfprintf+0x7e>
    4064:	b6 01       	movw	r22, r12
    4066:	90 e0       	ldi	r25, 0x00	; 0
    4068:	0e 94 98 25 	call	0x4b30	; 0x4b30 <fputc>
    406c:	52 01       	movw	r10, r4
    406e:	25 01       	movw	r4, r10
    4070:	e5 cf       	rjmp	.-54     	; 0x403c <vfprintf+0x48>
    4072:	10 e0       	ldi	r17, 0x00	; 0
    4074:	f1 2c       	mov	r15, r1
    4076:	20 e0       	ldi	r18, 0x00	; 0
    4078:	20 32       	cpi	r18, 0x20	; 32
    407a:	a0 f4       	brcc	.+40     	; 0x40a4 <vfprintf+0xb0>
    407c:	8b 32       	cpi	r24, 0x2B	; 43
    407e:	69 f0       	breq	.+26     	; 0x409a <vfprintf+0xa6>
    4080:	30 f4       	brcc	.+12     	; 0x408e <vfprintf+0x9a>
    4082:	80 32       	cpi	r24, 0x20	; 32
    4084:	59 f0       	breq	.+22     	; 0x409c <vfprintf+0xa8>
    4086:	83 32       	cpi	r24, 0x23	; 35
    4088:	69 f4       	brne	.+26     	; 0x40a4 <vfprintf+0xb0>
    408a:	20 61       	ori	r18, 0x10	; 16
    408c:	2c c0       	rjmp	.+88     	; 0x40e6 <vfprintf+0xf2>
    408e:	8d 32       	cpi	r24, 0x2D	; 45
    4090:	39 f0       	breq	.+14     	; 0x40a0 <vfprintf+0xac>
    4092:	80 33       	cpi	r24, 0x30	; 48
    4094:	39 f4       	brne	.+14     	; 0x40a4 <vfprintf+0xb0>
    4096:	21 60       	ori	r18, 0x01	; 1
    4098:	26 c0       	rjmp	.+76     	; 0x40e6 <vfprintf+0xf2>
    409a:	22 60       	ori	r18, 0x02	; 2
    409c:	24 60       	ori	r18, 0x04	; 4
    409e:	23 c0       	rjmp	.+70     	; 0x40e6 <vfprintf+0xf2>
    40a0:	28 60       	ori	r18, 0x08	; 8
    40a2:	21 c0       	rjmp	.+66     	; 0x40e6 <vfprintf+0xf2>
    40a4:	27 fd       	sbrc	r18, 7
    40a6:	27 c0       	rjmp	.+78     	; 0x40f6 <vfprintf+0x102>
    40a8:	30 ed       	ldi	r19, 0xD0	; 208
    40aa:	38 0f       	add	r19, r24
    40ac:	3a 30       	cpi	r19, 0x0A	; 10
    40ae:	78 f4       	brcc	.+30     	; 0x40ce <vfprintf+0xda>
    40b0:	26 ff       	sbrs	r18, 6
    40b2:	06 c0       	rjmp	.+12     	; 0x40c0 <vfprintf+0xcc>
    40b4:	fa e0       	ldi	r31, 0x0A	; 10
    40b6:	1f 9f       	mul	r17, r31
    40b8:	30 0d       	add	r19, r0
    40ba:	11 24       	eor	r1, r1
    40bc:	13 2f       	mov	r17, r19
    40be:	13 c0       	rjmp	.+38     	; 0x40e6 <vfprintf+0xf2>
    40c0:	4a e0       	ldi	r20, 0x0A	; 10
    40c2:	f4 9e       	mul	r15, r20
    40c4:	30 0d       	add	r19, r0
    40c6:	11 24       	eor	r1, r1
    40c8:	f3 2e       	mov	r15, r19
    40ca:	20 62       	ori	r18, 0x20	; 32
    40cc:	0c c0       	rjmp	.+24     	; 0x40e6 <vfprintf+0xf2>
    40ce:	8e 32       	cpi	r24, 0x2E	; 46
    40d0:	21 f4       	brne	.+8      	; 0x40da <vfprintf+0xe6>
    40d2:	26 fd       	sbrc	r18, 6
    40d4:	ee c2       	rjmp	.+1500   	; 0x46b2 <vfprintf+0x6be>
    40d6:	20 64       	ori	r18, 0x40	; 64
    40d8:	06 c0       	rjmp	.+12     	; 0x40e6 <vfprintf+0xf2>
    40da:	8c 36       	cpi	r24, 0x6C	; 108
    40dc:	11 f4       	brne	.+4      	; 0x40e2 <vfprintf+0xee>
    40de:	20 68       	ori	r18, 0x80	; 128
    40e0:	02 c0       	rjmp	.+4      	; 0x40e6 <vfprintf+0xf2>
    40e2:	88 36       	cpi	r24, 0x68	; 104
    40e4:	41 f4       	brne	.+16     	; 0x40f6 <vfprintf+0x102>
    40e6:	f4 01       	movw	r30, r8
    40e8:	93 fd       	sbrc	r25, 3
    40ea:	85 91       	lpm	r24, Z+
    40ec:	93 ff       	sbrs	r25, 3
    40ee:	81 91       	ld	r24, Z+
    40f0:	4f 01       	movw	r8, r30
    40f2:	81 11       	cpse	r24, r1
    40f4:	c1 cf       	rjmp	.-126    	; 0x4078 <vfprintf+0x84>
    40f6:	9b eb       	ldi	r25, 0xBB	; 187
    40f8:	98 0f       	add	r25, r24
    40fa:	93 30       	cpi	r25, 0x03	; 3
    40fc:	18 f4       	brcc	.+6      	; 0x4104 <vfprintf+0x110>
    40fe:	20 61       	ori	r18, 0x10	; 16
    4100:	80 5e       	subi	r24, 0xE0	; 224
    4102:	06 c0       	rjmp	.+12     	; 0x4110 <vfprintf+0x11c>
    4104:	9b e9       	ldi	r25, 0x9B	; 155
    4106:	98 0f       	add	r25, r24
    4108:	93 30       	cpi	r25, 0x03	; 3
    410a:	08 f0       	brcs	.+2      	; 0x410e <vfprintf+0x11a>
    410c:	71 c1       	rjmp	.+738    	; 0x43f0 <vfprintf+0x3fc>
    410e:	2f 7e       	andi	r18, 0xEF	; 239
    4110:	26 ff       	sbrs	r18, 6
    4112:	16 e0       	ldi	r17, 0x06	; 6
    4114:	2f 73       	andi	r18, 0x3F	; 63
    4116:	32 2e       	mov	r3, r18
    4118:	85 36       	cpi	r24, 0x65	; 101
    411a:	19 f4       	brne	.+6      	; 0x4122 <vfprintf+0x12e>
    411c:	20 64       	ori	r18, 0x40	; 64
    411e:	32 2e       	mov	r3, r18
    4120:	08 c0       	rjmp	.+16     	; 0x4132 <vfprintf+0x13e>
    4122:	86 36       	cpi	r24, 0x66	; 102
    4124:	21 f4       	brne	.+8      	; 0x412e <vfprintf+0x13a>
    4126:	f2 2f       	mov	r31, r18
    4128:	f0 68       	ori	r31, 0x80	; 128
    412a:	3f 2e       	mov	r3, r31
    412c:	02 c0       	rjmp	.+4      	; 0x4132 <vfprintf+0x13e>
    412e:	11 11       	cpse	r17, r1
    4130:	11 50       	subi	r17, 0x01	; 1
    4132:	37 fe       	sbrs	r3, 7
    4134:	07 c0       	rjmp	.+14     	; 0x4144 <vfprintf+0x150>
    4136:	1c 33       	cpi	r17, 0x3C	; 60
    4138:	50 f4       	brcc	.+20     	; 0x414e <vfprintf+0x15a>
    413a:	ee 24       	eor	r14, r14
    413c:	e3 94       	inc	r14
    413e:	e1 0e       	add	r14, r17
    4140:	27 e0       	ldi	r18, 0x07	; 7
    4142:	0b c0       	rjmp	.+22     	; 0x415a <vfprintf+0x166>
    4144:	18 30       	cpi	r17, 0x08	; 8
    4146:	38 f0       	brcs	.+14     	; 0x4156 <vfprintf+0x162>
    4148:	27 e0       	ldi	r18, 0x07	; 7
    414a:	17 e0       	ldi	r17, 0x07	; 7
    414c:	05 c0       	rjmp	.+10     	; 0x4158 <vfprintf+0x164>
    414e:	27 e0       	ldi	r18, 0x07	; 7
    4150:	4c e3       	ldi	r20, 0x3C	; 60
    4152:	e4 2e       	mov	r14, r20
    4154:	02 c0       	rjmp	.+4      	; 0x415a <vfprintf+0x166>
    4156:	21 2f       	mov	r18, r17
    4158:	e1 2c       	mov	r14, r1
    415a:	52 01       	movw	r10, r4
    415c:	44 e0       	ldi	r20, 0x04	; 4
    415e:	a4 0e       	add	r10, r20
    4160:	b1 1c       	adc	r11, r1
    4162:	f2 01       	movw	r30, r4
    4164:	60 81       	ld	r22, Z
    4166:	71 81       	ldd	r23, Z+1	; 0x01
    4168:	82 81       	ldd	r24, Z+2	; 0x02
    416a:	93 81       	ldd	r25, Z+3	; 0x03
    416c:	0e 2d       	mov	r16, r14
    416e:	a3 01       	movw	r20, r6
    4170:	0e 94 4a 24 	call	0x4894	; 0x4894 <__ftoa_engine>
    4174:	2c 01       	movw	r4, r24
    4176:	09 81       	ldd	r16, Y+1	; 0x01
    4178:	00 ff       	sbrs	r16, 0
    417a:	02 c0       	rjmp	.+4      	; 0x4180 <vfprintf+0x18c>
    417c:	03 ff       	sbrs	r16, 3
    417e:	07 c0       	rjmp	.+14     	; 0x418e <vfprintf+0x19a>
    4180:	31 fc       	sbrc	r3, 1
    4182:	08 c0       	rjmp	.+16     	; 0x4194 <vfprintf+0x1a0>
    4184:	32 fe       	sbrs	r3, 2
    4186:	09 c0       	rjmp	.+18     	; 0x419a <vfprintf+0x1a6>
    4188:	30 e2       	ldi	r19, 0x20	; 32
    418a:	23 2e       	mov	r2, r19
    418c:	07 c0       	rjmp	.+14     	; 0x419c <vfprintf+0x1a8>
    418e:	2d e2       	ldi	r18, 0x2D	; 45
    4190:	22 2e       	mov	r2, r18
    4192:	04 c0       	rjmp	.+8      	; 0x419c <vfprintf+0x1a8>
    4194:	9b e2       	ldi	r25, 0x2B	; 43
    4196:	29 2e       	mov	r2, r25
    4198:	01 c0       	rjmp	.+2      	; 0x419c <vfprintf+0x1a8>
    419a:	21 2c       	mov	r2, r1
    419c:	80 2f       	mov	r24, r16
    419e:	8c 70       	andi	r24, 0x0C	; 12
    41a0:	19 f0       	breq	.+6      	; 0x41a8 <vfprintf+0x1b4>
    41a2:	21 10       	cpse	r2, r1
    41a4:	68 c2       	rjmp	.+1232   	; 0x4676 <vfprintf+0x682>
    41a6:	a8 c2       	rjmp	.+1360   	; 0x46f8 <vfprintf+0x704>
    41a8:	37 fe       	sbrs	r3, 7
    41aa:	0f c0       	rjmp	.+30     	; 0x41ca <vfprintf+0x1d6>
    41ac:	e4 0c       	add	r14, r4
    41ae:	04 ff       	sbrs	r16, 4
    41b0:	04 c0       	rjmp	.+8      	; 0x41ba <vfprintf+0x1c6>
    41b2:	8a 81       	ldd	r24, Y+2	; 0x02
    41b4:	81 33       	cpi	r24, 0x31	; 49
    41b6:	09 f4       	brne	.+2      	; 0x41ba <vfprintf+0x1c6>
    41b8:	ea 94       	dec	r14
    41ba:	1e 14       	cp	r1, r14
    41bc:	74 f5       	brge	.+92     	; 0x421a <vfprintf+0x226>
    41be:	f8 e0       	ldi	r31, 0x08	; 8
    41c0:	fe 15       	cp	r31, r14
    41c2:	78 f5       	brcc	.+94     	; 0x4222 <vfprintf+0x22e>
    41c4:	88 e0       	ldi	r24, 0x08	; 8
    41c6:	e8 2e       	mov	r14, r24
    41c8:	2c c0       	rjmp	.+88     	; 0x4222 <vfprintf+0x22e>
    41ca:	36 fc       	sbrc	r3, 6
    41cc:	2a c0       	rjmp	.+84     	; 0x4222 <vfprintf+0x22e>
    41ce:	81 2f       	mov	r24, r17
    41d0:	90 e0       	ldi	r25, 0x00	; 0
    41d2:	84 15       	cp	r24, r4
    41d4:	95 05       	cpc	r25, r5
    41d6:	9c f0       	brlt	.+38     	; 0x41fe <vfprintf+0x20a>
    41d8:	2c ef       	ldi	r18, 0xFC	; 252
    41da:	42 16       	cp	r4, r18
    41dc:	2f ef       	ldi	r18, 0xFF	; 255
    41de:	52 06       	cpc	r5, r18
    41e0:	74 f0       	brlt	.+28     	; 0x41fe <vfprintf+0x20a>
    41e2:	43 2d       	mov	r20, r3
    41e4:	40 68       	ori	r20, 0x80	; 128
    41e6:	34 2e       	mov	r3, r20
    41e8:	0a c0       	rjmp	.+20     	; 0x41fe <vfprintf+0x20a>
    41ea:	e2 e0       	ldi	r30, 0x02	; 2
    41ec:	f0 e0       	ldi	r31, 0x00	; 0
    41ee:	ec 0f       	add	r30, r28
    41f0:	fd 1f       	adc	r31, r29
    41f2:	e1 0f       	add	r30, r17
    41f4:	f1 1d       	adc	r31, r1
    41f6:	80 81       	ld	r24, Z
    41f8:	80 33       	cpi	r24, 0x30	; 48
    41fa:	19 f4       	brne	.+6      	; 0x4202 <vfprintf+0x20e>
    41fc:	11 50       	subi	r17, 0x01	; 1
    41fe:	11 11       	cpse	r17, r1
    4200:	f4 cf       	rjmp	.-24     	; 0x41ea <vfprintf+0x1f6>
    4202:	37 fe       	sbrs	r3, 7
    4204:	0e c0       	rjmp	.+28     	; 0x4222 <vfprintf+0x22e>
    4206:	ee 24       	eor	r14, r14
    4208:	e3 94       	inc	r14
    420a:	e1 0e       	add	r14, r17
    420c:	81 2f       	mov	r24, r17
    420e:	90 e0       	ldi	r25, 0x00	; 0
    4210:	48 16       	cp	r4, r24
    4212:	59 06       	cpc	r5, r25
    4214:	2c f4       	brge	.+10     	; 0x4220 <vfprintf+0x22c>
    4216:	14 19       	sub	r17, r4
    4218:	04 c0       	rjmp	.+8      	; 0x4222 <vfprintf+0x22e>
    421a:	ee 24       	eor	r14, r14
    421c:	e3 94       	inc	r14
    421e:	01 c0       	rjmp	.+2      	; 0x4222 <vfprintf+0x22e>
    4220:	10 e0       	ldi	r17, 0x00	; 0
    4222:	37 fe       	sbrs	r3, 7
    4224:	06 c0       	rjmp	.+12     	; 0x4232 <vfprintf+0x23e>
    4226:	14 14       	cp	r1, r4
    4228:	15 04       	cpc	r1, r5
    422a:	34 f4       	brge	.+12     	; 0x4238 <vfprintf+0x244>
    422c:	c2 01       	movw	r24, r4
    422e:	01 96       	adiw	r24, 0x01	; 1
    4230:	05 c0       	rjmp	.+10     	; 0x423c <vfprintf+0x248>
    4232:	85 e0       	ldi	r24, 0x05	; 5
    4234:	90 e0       	ldi	r25, 0x00	; 0
    4236:	02 c0       	rjmp	.+4      	; 0x423c <vfprintf+0x248>
    4238:	81 e0       	ldi	r24, 0x01	; 1
    423a:	90 e0       	ldi	r25, 0x00	; 0
    423c:	21 10       	cpse	r2, r1
    423e:	01 96       	adiw	r24, 0x01	; 1
    4240:	11 23       	and	r17, r17
    4242:	31 f0       	breq	.+12     	; 0x4250 <vfprintf+0x25c>
    4244:	21 2f       	mov	r18, r17
    4246:	30 e0       	ldi	r19, 0x00	; 0
    4248:	2f 5f       	subi	r18, 0xFF	; 255
    424a:	3f 4f       	sbci	r19, 0xFF	; 255
    424c:	82 0f       	add	r24, r18
    424e:	93 1f       	adc	r25, r19
    4250:	2f 2d       	mov	r18, r15
    4252:	30 e0       	ldi	r19, 0x00	; 0
    4254:	82 17       	cp	r24, r18
    4256:	93 07       	cpc	r25, r19
    4258:	14 f4       	brge	.+4      	; 0x425e <vfprintf+0x26a>
    425a:	f8 1a       	sub	r15, r24
    425c:	01 c0       	rjmp	.+2      	; 0x4260 <vfprintf+0x26c>
    425e:	f1 2c       	mov	r15, r1
    4260:	83 2d       	mov	r24, r3
    4262:	89 70       	andi	r24, 0x09	; 9
    4264:	49 f4       	brne	.+18     	; 0x4278 <vfprintf+0x284>
    4266:	ff 20       	and	r15, r15
    4268:	39 f0       	breq	.+14     	; 0x4278 <vfprintf+0x284>
    426a:	b6 01       	movw	r22, r12
    426c:	80 e2       	ldi	r24, 0x20	; 32
    426e:	90 e0       	ldi	r25, 0x00	; 0
    4270:	0e 94 98 25 	call	0x4b30	; 0x4b30 <fputc>
    4274:	fa 94       	dec	r15
    4276:	f7 cf       	rjmp	.-18     	; 0x4266 <vfprintf+0x272>
    4278:	22 20       	and	r2, r2
    427a:	29 f0       	breq	.+10     	; 0x4286 <vfprintf+0x292>
    427c:	b6 01       	movw	r22, r12
    427e:	82 2d       	mov	r24, r2
    4280:	90 e0       	ldi	r25, 0x00	; 0
    4282:	0e 94 98 25 	call	0x4b30	; 0x4b30 <fputc>
    4286:	33 fc       	sbrc	r3, 3
    4288:	09 c0       	rjmp	.+18     	; 0x429c <vfprintf+0x2a8>
    428a:	ff 20       	and	r15, r15
    428c:	39 f0       	breq	.+14     	; 0x429c <vfprintf+0x2a8>
    428e:	b6 01       	movw	r22, r12
    4290:	80 e3       	ldi	r24, 0x30	; 48
    4292:	90 e0       	ldi	r25, 0x00	; 0
    4294:	0e 94 98 25 	call	0x4b30	; 0x4b30 <fputc>
    4298:	fa 94       	dec	r15
    429a:	f7 cf       	rjmp	.-18     	; 0x428a <vfprintf+0x296>
    429c:	37 fe       	sbrs	r3, 7
    429e:	5a c0       	rjmp	.+180    	; 0x4354 <vfprintf+0x360>
    42a0:	94 2d       	mov	r25, r4
    42a2:	85 2d       	mov	r24, r5
    42a4:	57 fe       	sbrs	r5, 7
    42a6:	02 c0       	rjmp	.+4      	; 0x42ac <vfprintf+0x2b8>
    42a8:	90 e0       	ldi	r25, 0x00	; 0
    42aa:	80 e0       	ldi	r24, 0x00	; 0
    42ac:	29 2e       	mov	r2, r25
    42ae:	38 2e       	mov	r3, r24
    42b0:	20 e0       	ldi	r18, 0x00	; 0
    42b2:	30 e0       	ldi	r19, 0x00	; 0
    42b4:	a2 01       	movw	r20, r4
    42b6:	4e 19       	sub	r20, r14
    42b8:	51 09       	sbc	r21, r1
    42ba:	4c 87       	std	Y+12, r20	; 0x0c
    42bc:	5d 87       	std	Y+13, r21	; 0x0d
    42be:	a2 01       	movw	r20, r4
    42c0:	42 19       	sub	r20, r2
    42c2:	53 09       	sbc	r21, r3
    42c4:	4e 87       	std	Y+14, r20	; 0x0e
    42c6:	5f 87       	std	Y+15, r21	; 0x0f
    42c8:	61 2f       	mov	r22, r17
    42ca:	70 e0       	ldi	r23, 0x00	; 0
    42cc:	44 27       	eor	r20, r20
    42ce:	55 27       	eor	r21, r21
    42d0:	46 1b       	sub	r20, r22
    42d2:	57 0b       	sbc	r21, r23
    42d4:	48 8b       	std	Y+16, r20	; 0x10
    42d6:	59 8b       	std	Y+17, r21	; 0x11
    42d8:	5f ef       	ldi	r21, 0xFF	; 255
    42da:	25 16       	cp	r2, r21
    42dc:	35 06       	cpc	r3, r21
    42de:	49 f4       	brne	.+18     	; 0x42f2 <vfprintf+0x2fe>
    42e0:	b6 01       	movw	r22, r12
    42e2:	8e e2       	ldi	r24, 0x2E	; 46
    42e4:	90 e0       	ldi	r25, 0x00	; 0
    42e6:	2a 8b       	std	Y+18, r18	; 0x12
    42e8:	3b 8b       	std	Y+19, r19	; 0x13
    42ea:	0e 94 98 25 	call	0x4b30	; 0x4b30 <fputc>
    42ee:	3b 89       	ldd	r19, Y+19	; 0x13
    42f0:	2a 89       	ldd	r18, Y+18	; 0x12
    42f2:	42 14       	cp	r4, r2
    42f4:	53 04       	cpc	r5, r3
    42f6:	6c f0       	brlt	.+26     	; 0x4312 <vfprintf+0x31e>
    42f8:	4c 85       	ldd	r20, Y+12	; 0x0c
    42fa:	5d 85       	ldd	r21, Y+13	; 0x0d
    42fc:	42 15       	cp	r20, r2
    42fe:	53 05       	cpc	r21, r3
    4300:	44 f4       	brge	.+16     	; 0x4312 <vfprintf+0x31e>
    4302:	ee 85       	ldd	r30, Y+14	; 0x0e
    4304:	ff 85       	ldd	r31, Y+15	; 0x0f
    4306:	e2 0f       	add	r30, r18
    4308:	f3 1f       	adc	r31, r19
    430a:	e6 0d       	add	r30, r6
    430c:	f7 1d       	adc	r31, r7
    430e:	81 81       	ldd	r24, Z+1	; 0x01
    4310:	01 c0       	rjmp	.+2      	; 0x4314 <vfprintf+0x320>
    4312:	80 e3       	ldi	r24, 0x30	; 48
    4314:	51 e0       	ldi	r21, 0x01	; 1
    4316:	25 1a       	sub	r2, r21
    4318:	31 08       	sbc	r3, r1
    431a:	2f 5f       	subi	r18, 0xFF	; 255
    431c:	3f 4f       	sbci	r19, 0xFF	; 255
    431e:	48 89       	ldd	r20, Y+16	; 0x10
    4320:	59 89       	ldd	r21, Y+17	; 0x11
    4322:	24 16       	cp	r2, r20
    4324:	35 06       	cpc	r3, r21
    4326:	4c f0       	brlt	.+18     	; 0x433a <vfprintf+0x346>
    4328:	b6 01       	movw	r22, r12
    432a:	90 e0       	ldi	r25, 0x00	; 0
    432c:	2a 8b       	std	Y+18, r18	; 0x12
    432e:	3b 8b       	std	Y+19, r19	; 0x13
    4330:	0e 94 98 25 	call	0x4b30	; 0x4b30 <fputc>
    4334:	2a 89       	ldd	r18, Y+18	; 0x12
    4336:	3b 89       	ldd	r19, Y+19	; 0x13
    4338:	cf cf       	rjmp	.-98     	; 0x42d8 <vfprintf+0x2e4>
    433a:	24 14       	cp	r2, r4
    433c:	35 04       	cpc	r3, r5
    433e:	39 f4       	brne	.+14     	; 0x434e <vfprintf+0x35a>
    4340:	9a 81       	ldd	r25, Y+2	; 0x02
    4342:	96 33       	cpi	r25, 0x36	; 54
    4344:	18 f4       	brcc	.+6      	; 0x434c <vfprintf+0x358>
    4346:	95 33       	cpi	r25, 0x35	; 53
    4348:	11 f4       	brne	.+4      	; 0x434e <vfprintf+0x35a>
    434a:	04 ff       	sbrs	r16, 4
    434c:	81 e3       	ldi	r24, 0x31	; 49
    434e:	b6 01       	movw	r22, r12
    4350:	90 e0       	ldi	r25, 0x00	; 0
    4352:	4b c0       	rjmp	.+150    	; 0x43ea <vfprintf+0x3f6>
    4354:	8a 81       	ldd	r24, Y+2	; 0x02
    4356:	81 33       	cpi	r24, 0x31	; 49
    4358:	09 f0       	breq	.+2      	; 0x435c <vfprintf+0x368>
    435a:	0f 7e       	andi	r16, 0xEF	; 239
    435c:	b6 01       	movw	r22, r12
    435e:	90 e0       	ldi	r25, 0x00	; 0
    4360:	0e 94 98 25 	call	0x4b30	; 0x4b30 <fputc>
    4364:	11 11       	cpse	r17, r1
    4366:	05 c0       	rjmp	.+10     	; 0x4372 <vfprintf+0x37e>
    4368:	34 fc       	sbrc	r3, 4
    436a:	18 c0       	rjmp	.+48     	; 0x439c <vfprintf+0x3a8>
    436c:	85 e6       	ldi	r24, 0x65	; 101
    436e:	90 e0       	ldi	r25, 0x00	; 0
    4370:	17 c0       	rjmp	.+46     	; 0x43a0 <vfprintf+0x3ac>
    4372:	b6 01       	movw	r22, r12
    4374:	8e e2       	ldi	r24, 0x2E	; 46
    4376:	90 e0       	ldi	r25, 0x00	; 0
    4378:	0e 94 98 25 	call	0x4b30	; 0x4b30 <fputc>
    437c:	82 e0       	ldi	r24, 0x02	; 2
    437e:	ee 24       	eor	r14, r14
    4380:	e3 94       	inc	r14
    4382:	e8 0e       	add	r14, r24
    4384:	f3 01       	movw	r30, r6
    4386:	e8 0f       	add	r30, r24
    4388:	f1 1d       	adc	r31, r1
    438a:	80 81       	ld	r24, Z
    438c:	b6 01       	movw	r22, r12
    438e:	90 e0       	ldi	r25, 0x00	; 0
    4390:	0e 94 98 25 	call	0x4b30	; 0x4b30 <fputc>
    4394:	11 50       	subi	r17, 0x01	; 1
    4396:	8e 2d       	mov	r24, r14
    4398:	91 f7       	brne	.-28     	; 0x437e <vfprintf+0x38a>
    439a:	e6 cf       	rjmp	.-52     	; 0x4368 <vfprintf+0x374>
    439c:	85 e4       	ldi	r24, 0x45	; 69
    439e:	90 e0       	ldi	r25, 0x00	; 0
    43a0:	b6 01       	movw	r22, r12
    43a2:	0e 94 98 25 	call	0x4b30	; 0x4b30 <fputc>
    43a6:	57 fc       	sbrc	r5, 7
    43a8:	05 c0       	rjmp	.+10     	; 0x43b4 <vfprintf+0x3c0>
    43aa:	41 14       	cp	r4, r1
    43ac:	51 04       	cpc	r5, r1
    43ae:	39 f4       	brne	.+14     	; 0x43be <vfprintf+0x3ca>
    43b0:	04 ff       	sbrs	r16, 4
    43b2:	05 c0       	rjmp	.+10     	; 0x43be <vfprintf+0x3ca>
    43b4:	51 94       	neg	r5
    43b6:	41 94       	neg	r4
    43b8:	51 08       	sbc	r5, r1
    43ba:	8d e2       	ldi	r24, 0x2D	; 45
    43bc:	01 c0       	rjmp	.+2      	; 0x43c0 <vfprintf+0x3cc>
    43be:	8b e2       	ldi	r24, 0x2B	; 43
    43c0:	b6 01       	movw	r22, r12
    43c2:	90 e0       	ldi	r25, 0x00	; 0
    43c4:	0e 94 98 25 	call	0x4b30	; 0x4b30 <fputc>
    43c8:	80 e3       	ldi	r24, 0x30	; 48
    43ca:	9a e0       	ldi	r25, 0x0A	; 10
    43cc:	49 16       	cp	r4, r25
    43ce:	51 04       	cpc	r5, r1
    43d0:	2c f0       	brlt	.+10     	; 0x43dc <vfprintf+0x3e8>
    43d2:	8f 5f       	subi	r24, 0xFF	; 255
    43d4:	5a e0       	ldi	r21, 0x0A	; 10
    43d6:	45 1a       	sub	r4, r21
    43d8:	51 08       	sbc	r5, r1
    43da:	f7 cf       	rjmp	.-18     	; 0x43ca <vfprintf+0x3d6>
    43dc:	b6 01       	movw	r22, r12
    43de:	90 e0       	ldi	r25, 0x00	; 0
    43e0:	0e 94 98 25 	call	0x4b30	; 0x4b30 <fputc>
    43e4:	b6 01       	movw	r22, r12
    43e6:	c2 01       	movw	r24, r4
    43e8:	c0 96       	adiw	r24, 0x30	; 48
    43ea:	0e 94 98 25 	call	0x4b30	; 0x4b30 <fputc>
    43ee:	57 c1       	rjmp	.+686    	; 0x469e <vfprintf+0x6aa>
    43f0:	83 36       	cpi	r24, 0x63	; 99
    43f2:	31 f0       	breq	.+12     	; 0x4400 <vfprintf+0x40c>
    43f4:	83 37       	cpi	r24, 0x73	; 115
    43f6:	79 f0       	breq	.+30     	; 0x4416 <vfprintf+0x422>
    43f8:	83 35       	cpi	r24, 0x53	; 83
    43fa:	09 f0       	breq	.+2      	; 0x43fe <vfprintf+0x40a>
    43fc:	58 c0       	rjmp	.+176    	; 0x44ae <vfprintf+0x4ba>
    43fe:	21 c0       	rjmp	.+66     	; 0x4442 <vfprintf+0x44e>
    4400:	52 01       	movw	r10, r4
    4402:	e2 e0       	ldi	r30, 0x02	; 2
    4404:	ae 0e       	add	r10, r30
    4406:	b1 1c       	adc	r11, r1
    4408:	f2 01       	movw	r30, r4
    440a:	80 81       	ld	r24, Z
    440c:	89 83       	std	Y+1, r24	; 0x01
    440e:	01 e0       	ldi	r16, 0x01	; 1
    4410:	10 e0       	ldi	r17, 0x00	; 0
    4412:	23 01       	movw	r4, r6
    4414:	14 c0       	rjmp	.+40     	; 0x443e <vfprintf+0x44a>
    4416:	52 01       	movw	r10, r4
    4418:	f2 e0       	ldi	r31, 0x02	; 2
    441a:	af 0e       	add	r10, r31
    441c:	b1 1c       	adc	r11, r1
    441e:	f2 01       	movw	r30, r4
    4420:	40 80       	ld	r4, Z
    4422:	51 80       	ldd	r5, Z+1	; 0x01
    4424:	26 ff       	sbrs	r18, 6
    4426:	03 c0       	rjmp	.+6      	; 0x442e <vfprintf+0x43a>
    4428:	61 2f       	mov	r22, r17
    442a:	70 e0       	ldi	r23, 0x00	; 0
    442c:	02 c0       	rjmp	.+4      	; 0x4432 <vfprintf+0x43e>
    442e:	6f ef       	ldi	r22, 0xFF	; 255
    4430:	7f ef       	ldi	r23, 0xFF	; 255
    4432:	c2 01       	movw	r24, r4
    4434:	2a 8b       	std	Y+18, r18	; 0x12
    4436:	0e 94 41 25 	call	0x4a82	; 0x4a82 <strnlen>
    443a:	8c 01       	movw	r16, r24
    443c:	2a 89       	ldd	r18, Y+18	; 0x12
    443e:	2f 77       	andi	r18, 0x7F	; 127
    4440:	15 c0       	rjmp	.+42     	; 0x446c <vfprintf+0x478>
    4442:	52 01       	movw	r10, r4
    4444:	f2 e0       	ldi	r31, 0x02	; 2
    4446:	af 0e       	add	r10, r31
    4448:	b1 1c       	adc	r11, r1
    444a:	f2 01       	movw	r30, r4
    444c:	40 80       	ld	r4, Z
    444e:	51 80       	ldd	r5, Z+1	; 0x01
    4450:	26 ff       	sbrs	r18, 6
    4452:	03 c0       	rjmp	.+6      	; 0x445a <vfprintf+0x466>
    4454:	61 2f       	mov	r22, r17
    4456:	70 e0       	ldi	r23, 0x00	; 0
    4458:	02 c0       	rjmp	.+4      	; 0x445e <vfprintf+0x46a>
    445a:	6f ef       	ldi	r22, 0xFF	; 255
    445c:	7f ef       	ldi	r23, 0xFF	; 255
    445e:	c2 01       	movw	r24, r4
    4460:	2a 8b       	std	Y+18, r18	; 0x12
    4462:	0e 94 22 25 	call	0x4a44	; 0x4a44 <strnlen_P>
    4466:	8c 01       	movw	r16, r24
    4468:	2a 89       	ldd	r18, Y+18	; 0x12
    446a:	20 68       	ori	r18, 0x80	; 128
    446c:	32 2e       	mov	r3, r18
    446e:	23 fd       	sbrc	r18, 3
    4470:	1a c0       	rjmp	.+52     	; 0x44a6 <vfprintf+0x4b2>
    4472:	8f 2d       	mov	r24, r15
    4474:	90 e0       	ldi	r25, 0x00	; 0
    4476:	08 17       	cp	r16, r24
    4478:	19 07       	cpc	r17, r25
    447a:	a8 f4       	brcc	.+42     	; 0x44a6 <vfprintf+0x4b2>
    447c:	b6 01       	movw	r22, r12
    447e:	80 e2       	ldi	r24, 0x20	; 32
    4480:	90 e0       	ldi	r25, 0x00	; 0
    4482:	0e 94 98 25 	call	0x4b30	; 0x4b30 <fputc>
    4486:	fa 94       	dec	r15
    4488:	f4 cf       	rjmp	.-24     	; 0x4472 <vfprintf+0x47e>
    448a:	f2 01       	movw	r30, r4
    448c:	37 fc       	sbrc	r3, 7
    448e:	85 91       	lpm	r24, Z+
    4490:	37 fe       	sbrs	r3, 7
    4492:	81 91       	ld	r24, Z+
    4494:	2f 01       	movw	r4, r30
    4496:	b6 01       	movw	r22, r12
    4498:	90 e0       	ldi	r25, 0x00	; 0
    449a:	0e 94 98 25 	call	0x4b30	; 0x4b30 <fputc>
    449e:	f1 10       	cpse	r15, r1
    44a0:	fa 94       	dec	r15
    44a2:	01 50       	subi	r16, 0x01	; 1
    44a4:	11 09       	sbc	r17, r1
    44a6:	01 15       	cp	r16, r1
    44a8:	11 05       	cpc	r17, r1
    44aa:	79 f7       	brne	.-34     	; 0x448a <vfprintf+0x496>
    44ac:	f8 c0       	rjmp	.+496    	; 0x469e <vfprintf+0x6aa>
    44ae:	84 36       	cpi	r24, 0x64	; 100
    44b0:	11 f0       	breq	.+4      	; 0x44b6 <vfprintf+0x4c2>
    44b2:	89 36       	cpi	r24, 0x69	; 105
    44b4:	59 f5       	brne	.+86     	; 0x450c <vfprintf+0x518>
    44b6:	52 01       	movw	r10, r4
    44b8:	27 ff       	sbrs	r18, 7
    44ba:	09 c0       	rjmp	.+18     	; 0x44ce <vfprintf+0x4da>
    44bc:	f4 e0       	ldi	r31, 0x04	; 4
    44be:	af 0e       	add	r10, r31
    44c0:	b1 1c       	adc	r11, r1
    44c2:	f2 01       	movw	r30, r4
    44c4:	60 81       	ld	r22, Z
    44c6:	71 81       	ldd	r23, Z+1	; 0x01
    44c8:	82 81       	ldd	r24, Z+2	; 0x02
    44ca:	93 81       	ldd	r25, Z+3	; 0x03
    44cc:	0a c0       	rjmp	.+20     	; 0x44e2 <vfprintf+0x4ee>
    44ce:	f2 e0       	ldi	r31, 0x02	; 2
    44d0:	af 0e       	add	r10, r31
    44d2:	b1 1c       	adc	r11, r1
    44d4:	f2 01       	movw	r30, r4
    44d6:	60 81       	ld	r22, Z
    44d8:	71 81       	ldd	r23, Z+1	; 0x01
    44da:	07 2e       	mov	r0, r23
    44dc:	00 0c       	add	r0, r0
    44de:	88 0b       	sbc	r24, r24
    44e0:	99 0b       	sbc	r25, r25
    44e2:	2f 76       	andi	r18, 0x6F	; 111
    44e4:	32 2e       	mov	r3, r18
    44e6:	97 ff       	sbrs	r25, 7
    44e8:	09 c0       	rjmp	.+18     	; 0x44fc <vfprintf+0x508>
    44ea:	90 95       	com	r25
    44ec:	80 95       	com	r24
    44ee:	70 95       	com	r23
    44f0:	61 95       	neg	r22
    44f2:	7f 4f       	sbci	r23, 0xFF	; 255
    44f4:	8f 4f       	sbci	r24, 0xFF	; 255
    44f6:	9f 4f       	sbci	r25, 0xFF	; 255
    44f8:	20 68       	ori	r18, 0x80	; 128
    44fa:	32 2e       	mov	r3, r18
    44fc:	2a e0       	ldi	r18, 0x0A	; 10
    44fe:	30 e0       	ldi	r19, 0x00	; 0
    4500:	a3 01       	movw	r20, r6
    4502:	0e 94 2a 26 	call	0x4c54	; 0x4c54 <__ultoa_invert>
    4506:	e8 2e       	mov	r14, r24
    4508:	e6 18       	sub	r14, r6
    450a:	3f c0       	rjmp	.+126    	; 0x458a <vfprintf+0x596>
    450c:	02 2f       	mov	r16, r18
    450e:	85 37       	cpi	r24, 0x75	; 117
    4510:	21 f4       	brne	.+8      	; 0x451a <vfprintf+0x526>
    4512:	0f 7e       	andi	r16, 0xEF	; 239
    4514:	2a e0       	ldi	r18, 0x0A	; 10
    4516:	30 e0       	ldi	r19, 0x00	; 0
    4518:	1d c0       	rjmp	.+58     	; 0x4554 <vfprintf+0x560>
    451a:	09 7f       	andi	r16, 0xF9	; 249
    451c:	8f 36       	cpi	r24, 0x6F	; 111
    451e:	91 f0       	breq	.+36     	; 0x4544 <vfprintf+0x550>
    4520:	18 f4       	brcc	.+6      	; 0x4528 <vfprintf+0x534>
    4522:	88 35       	cpi	r24, 0x58	; 88
    4524:	59 f0       	breq	.+22     	; 0x453c <vfprintf+0x548>
    4526:	c5 c0       	rjmp	.+394    	; 0x46b2 <vfprintf+0x6be>
    4528:	80 37       	cpi	r24, 0x70	; 112
    452a:	19 f0       	breq	.+6      	; 0x4532 <vfprintf+0x53e>
    452c:	88 37       	cpi	r24, 0x78	; 120
    452e:	11 f0       	breq	.+4      	; 0x4534 <vfprintf+0x540>
    4530:	c0 c0       	rjmp	.+384    	; 0x46b2 <vfprintf+0x6be>
    4532:	00 61       	ori	r16, 0x10	; 16
    4534:	04 ff       	sbrs	r16, 4
    4536:	09 c0       	rjmp	.+18     	; 0x454a <vfprintf+0x556>
    4538:	04 60       	ori	r16, 0x04	; 4
    453a:	07 c0       	rjmp	.+14     	; 0x454a <vfprintf+0x556>
    453c:	24 ff       	sbrs	r18, 4
    453e:	08 c0       	rjmp	.+16     	; 0x4550 <vfprintf+0x55c>
    4540:	06 60       	ori	r16, 0x06	; 6
    4542:	06 c0       	rjmp	.+12     	; 0x4550 <vfprintf+0x55c>
    4544:	28 e0       	ldi	r18, 0x08	; 8
    4546:	30 e0       	ldi	r19, 0x00	; 0
    4548:	05 c0       	rjmp	.+10     	; 0x4554 <vfprintf+0x560>
    454a:	20 e1       	ldi	r18, 0x10	; 16
    454c:	30 e0       	ldi	r19, 0x00	; 0
    454e:	02 c0       	rjmp	.+4      	; 0x4554 <vfprintf+0x560>
    4550:	20 e1       	ldi	r18, 0x10	; 16
    4552:	32 e0       	ldi	r19, 0x02	; 2
    4554:	52 01       	movw	r10, r4
    4556:	07 ff       	sbrs	r16, 7
    4558:	09 c0       	rjmp	.+18     	; 0x456c <vfprintf+0x578>
    455a:	f4 e0       	ldi	r31, 0x04	; 4
    455c:	af 0e       	add	r10, r31
    455e:	b1 1c       	adc	r11, r1
    4560:	f2 01       	movw	r30, r4
    4562:	60 81       	ld	r22, Z
    4564:	71 81       	ldd	r23, Z+1	; 0x01
    4566:	82 81       	ldd	r24, Z+2	; 0x02
    4568:	93 81       	ldd	r25, Z+3	; 0x03
    456a:	08 c0       	rjmp	.+16     	; 0x457c <vfprintf+0x588>
    456c:	f2 e0       	ldi	r31, 0x02	; 2
    456e:	af 0e       	add	r10, r31
    4570:	b1 1c       	adc	r11, r1
    4572:	f2 01       	movw	r30, r4
    4574:	60 81       	ld	r22, Z
    4576:	71 81       	ldd	r23, Z+1	; 0x01
    4578:	80 e0       	ldi	r24, 0x00	; 0
    457a:	90 e0       	ldi	r25, 0x00	; 0
    457c:	a3 01       	movw	r20, r6
    457e:	0e 94 2a 26 	call	0x4c54	; 0x4c54 <__ultoa_invert>
    4582:	e8 2e       	mov	r14, r24
    4584:	e6 18       	sub	r14, r6
    4586:	0f 77       	andi	r16, 0x7F	; 127
    4588:	30 2e       	mov	r3, r16
    458a:	36 fe       	sbrs	r3, 6
    458c:	0b c0       	rjmp	.+22     	; 0x45a4 <vfprintf+0x5b0>
    458e:	33 2d       	mov	r19, r3
    4590:	3e 7f       	andi	r19, 0xFE	; 254
    4592:	e1 16       	cp	r14, r17
    4594:	50 f4       	brcc	.+20     	; 0x45aa <vfprintf+0x5b6>
    4596:	34 fe       	sbrs	r3, 4
    4598:	0a c0       	rjmp	.+20     	; 0x45ae <vfprintf+0x5ba>
    459a:	32 fc       	sbrc	r3, 2
    459c:	08 c0       	rjmp	.+16     	; 0x45ae <vfprintf+0x5ba>
    459e:	33 2d       	mov	r19, r3
    45a0:	3e 7e       	andi	r19, 0xEE	; 238
    45a2:	05 c0       	rjmp	.+10     	; 0x45ae <vfprintf+0x5ba>
    45a4:	0e 2d       	mov	r16, r14
    45a6:	33 2d       	mov	r19, r3
    45a8:	03 c0       	rjmp	.+6      	; 0x45b0 <vfprintf+0x5bc>
    45aa:	0e 2d       	mov	r16, r14
    45ac:	01 c0       	rjmp	.+2      	; 0x45b0 <vfprintf+0x5bc>
    45ae:	01 2f       	mov	r16, r17
    45b0:	34 ff       	sbrs	r19, 4
    45b2:	0c c0       	rjmp	.+24     	; 0x45cc <vfprintf+0x5d8>
    45b4:	fe 01       	movw	r30, r28
    45b6:	ee 0d       	add	r30, r14
    45b8:	f1 1d       	adc	r31, r1
    45ba:	80 81       	ld	r24, Z
    45bc:	80 33       	cpi	r24, 0x30	; 48
    45be:	11 f4       	brne	.+4      	; 0x45c4 <vfprintf+0x5d0>
    45c0:	39 7e       	andi	r19, 0xE9	; 233
    45c2:	08 c0       	rjmp	.+16     	; 0x45d4 <vfprintf+0x5e0>
    45c4:	32 ff       	sbrs	r19, 2
    45c6:	05 c0       	rjmp	.+10     	; 0x45d2 <vfprintf+0x5de>
    45c8:	0e 5f       	subi	r16, 0xFE	; 254
    45ca:	04 c0       	rjmp	.+8      	; 0x45d4 <vfprintf+0x5e0>
    45cc:	83 2f       	mov	r24, r19
    45ce:	86 78       	andi	r24, 0x86	; 134
    45d0:	09 f0       	breq	.+2      	; 0x45d4 <vfprintf+0x5e0>
    45d2:	0f 5f       	subi	r16, 0xFF	; 255
    45d4:	33 fd       	sbrc	r19, 3
    45d6:	13 c0       	rjmp	.+38     	; 0x45fe <vfprintf+0x60a>
    45d8:	30 ff       	sbrs	r19, 0
    45da:	06 c0       	rjmp	.+12     	; 0x45e8 <vfprintf+0x5f4>
    45dc:	1e 2d       	mov	r17, r14
    45de:	0f 15       	cp	r16, r15
    45e0:	18 f4       	brcc	.+6      	; 0x45e8 <vfprintf+0x5f4>
    45e2:	1f 0d       	add	r17, r15
    45e4:	10 1b       	sub	r17, r16
    45e6:	0f 2d       	mov	r16, r15
    45e8:	0f 15       	cp	r16, r15
    45ea:	68 f4       	brcc	.+26     	; 0x4606 <vfprintf+0x612>
    45ec:	b6 01       	movw	r22, r12
    45ee:	80 e2       	ldi	r24, 0x20	; 32
    45f0:	90 e0       	ldi	r25, 0x00	; 0
    45f2:	3b 8b       	std	Y+19, r19	; 0x13
    45f4:	0e 94 98 25 	call	0x4b30	; 0x4b30 <fputc>
    45f8:	0f 5f       	subi	r16, 0xFF	; 255
    45fa:	3b 89       	ldd	r19, Y+19	; 0x13
    45fc:	f5 cf       	rjmp	.-22     	; 0x45e8 <vfprintf+0x5f4>
    45fe:	0f 15       	cp	r16, r15
    4600:	10 f4       	brcc	.+4      	; 0x4606 <vfprintf+0x612>
    4602:	f0 1a       	sub	r15, r16
    4604:	01 c0       	rjmp	.+2      	; 0x4608 <vfprintf+0x614>
    4606:	f1 2c       	mov	r15, r1
    4608:	34 ff       	sbrs	r19, 4
    460a:	12 c0       	rjmp	.+36     	; 0x4630 <vfprintf+0x63c>
    460c:	b6 01       	movw	r22, r12
    460e:	80 e3       	ldi	r24, 0x30	; 48
    4610:	90 e0       	ldi	r25, 0x00	; 0
    4612:	3b 8b       	std	Y+19, r19	; 0x13
    4614:	0e 94 98 25 	call	0x4b30	; 0x4b30 <fputc>
    4618:	3b 89       	ldd	r19, Y+19	; 0x13
    461a:	32 ff       	sbrs	r19, 2
    461c:	17 c0       	rjmp	.+46     	; 0x464c <vfprintf+0x658>
    461e:	31 fd       	sbrc	r19, 1
    4620:	03 c0       	rjmp	.+6      	; 0x4628 <vfprintf+0x634>
    4622:	88 e7       	ldi	r24, 0x78	; 120
    4624:	90 e0       	ldi	r25, 0x00	; 0
    4626:	02 c0       	rjmp	.+4      	; 0x462c <vfprintf+0x638>
    4628:	88 e5       	ldi	r24, 0x58	; 88
    462a:	90 e0       	ldi	r25, 0x00	; 0
    462c:	b6 01       	movw	r22, r12
    462e:	0c c0       	rjmp	.+24     	; 0x4648 <vfprintf+0x654>
    4630:	83 2f       	mov	r24, r19
    4632:	86 78       	andi	r24, 0x86	; 134
    4634:	59 f0       	breq	.+22     	; 0x464c <vfprintf+0x658>
    4636:	31 ff       	sbrs	r19, 1
    4638:	02 c0       	rjmp	.+4      	; 0x463e <vfprintf+0x64a>
    463a:	8b e2       	ldi	r24, 0x2B	; 43
    463c:	01 c0       	rjmp	.+2      	; 0x4640 <vfprintf+0x64c>
    463e:	80 e2       	ldi	r24, 0x20	; 32
    4640:	37 fd       	sbrc	r19, 7
    4642:	8d e2       	ldi	r24, 0x2D	; 45
    4644:	b6 01       	movw	r22, r12
    4646:	90 e0       	ldi	r25, 0x00	; 0
    4648:	0e 94 98 25 	call	0x4b30	; 0x4b30 <fputc>
    464c:	e1 16       	cp	r14, r17
    464e:	38 f4       	brcc	.+14     	; 0x465e <vfprintf+0x66a>
    4650:	b6 01       	movw	r22, r12
    4652:	80 e3       	ldi	r24, 0x30	; 48
    4654:	90 e0       	ldi	r25, 0x00	; 0
    4656:	0e 94 98 25 	call	0x4b30	; 0x4b30 <fputc>
    465a:	11 50       	subi	r17, 0x01	; 1
    465c:	f7 cf       	rjmp	.-18     	; 0x464c <vfprintf+0x658>
    465e:	ea 94       	dec	r14
    4660:	f3 01       	movw	r30, r6
    4662:	ee 0d       	add	r30, r14
    4664:	f1 1d       	adc	r31, r1
    4666:	80 81       	ld	r24, Z
    4668:	b6 01       	movw	r22, r12
    466a:	90 e0       	ldi	r25, 0x00	; 0
    466c:	0e 94 98 25 	call	0x4b30	; 0x4b30 <fputc>
    4670:	e1 10       	cpse	r14, r1
    4672:	f5 cf       	rjmp	.-22     	; 0x465e <vfprintf+0x66a>
    4674:	14 c0       	rjmp	.+40     	; 0x469e <vfprintf+0x6aa>
    4676:	f4 e0       	ldi	r31, 0x04	; 4
    4678:	ff 15       	cp	r31, r15
    467a:	58 f5       	brcc	.+86     	; 0x46d2 <vfprintf+0x6de>
    467c:	84 e0       	ldi	r24, 0x04	; 4
    467e:	f8 1a       	sub	r15, r24
    4680:	33 fe       	sbrs	r3, 3
    4682:	1e c0       	rjmp	.+60     	; 0x46c0 <vfprintf+0x6cc>
    4684:	21 10       	cpse	r2, r1
    4686:	26 c0       	rjmp	.+76     	; 0x46d4 <vfprintf+0x6e0>
    4688:	03 ff       	sbrs	r16, 3
    468a:	2a c0       	rjmp	.+84     	; 0x46e0 <vfprintf+0x6ec>
    468c:	08 e4       	ldi	r16, 0x48	; 72
    468e:	12 e0       	ldi	r17, 0x02	; 2
    4690:	f3 2d       	mov	r31, r3
    4692:	f0 71       	andi	r31, 0x10	; 16
    4694:	3f 2e       	mov	r3, r31
    4696:	f8 01       	movw	r30, r16
    4698:	84 91       	lpm	r24, Z
    469a:	81 11       	cpse	r24, r1
    469c:	24 c0       	rjmp	.+72     	; 0x46e6 <vfprintf+0x6f2>
    469e:	ff 20       	and	r15, r15
    46a0:	09 f4       	brne	.+2      	; 0x46a4 <vfprintf+0x6b0>
    46a2:	e5 cc       	rjmp	.-1590   	; 0x406e <vfprintf+0x7a>
    46a4:	b6 01       	movw	r22, r12
    46a6:	80 e2       	ldi	r24, 0x20	; 32
    46a8:	90 e0       	ldi	r25, 0x00	; 0
    46aa:	0e 94 98 25 	call	0x4b30	; 0x4b30 <fputc>
    46ae:	fa 94       	dec	r15
    46b0:	f6 cf       	rjmp	.-20     	; 0x469e <vfprintf+0x6aa>
    46b2:	f6 01       	movw	r30, r12
    46b4:	86 81       	ldd	r24, Z+6	; 0x06
    46b6:	97 81       	ldd	r25, Z+7	; 0x07
    46b8:	26 c0       	rjmp	.+76     	; 0x4706 <vfprintf+0x712>
    46ba:	8f ef       	ldi	r24, 0xFF	; 255
    46bc:	9f ef       	ldi	r25, 0xFF	; 255
    46be:	23 c0       	rjmp	.+70     	; 0x4706 <vfprintf+0x712>
    46c0:	b6 01       	movw	r22, r12
    46c2:	80 e2       	ldi	r24, 0x20	; 32
    46c4:	90 e0       	ldi	r25, 0x00	; 0
    46c6:	0e 94 98 25 	call	0x4b30	; 0x4b30 <fputc>
    46ca:	fa 94       	dec	r15
    46cc:	f1 10       	cpse	r15, r1
    46ce:	f8 cf       	rjmp	.-16     	; 0x46c0 <vfprintf+0x6cc>
    46d0:	d9 cf       	rjmp	.-78     	; 0x4684 <vfprintf+0x690>
    46d2:	f1 2c       	mov	r15, r1
    46d4:	b6 01       	movw	r22, r12
    46d6:	82 2d       	mov	r24, r2
    46d8:	90 e0       	ldi	r25, 0x00	; 0
    46da:	0e 94 98 25 	call	0x4b30	; 0x4b30 <fputc>
    46de:	d4 cf       	rjmp	.-88     	; 0x4688 <vfprintf+0x694>
    46e0:	0c e4       	ldi	r16, 0x4C	; 76
    46e2:	12 e0       	ldi	r17, 0x02	; 2
    46e4:	d5 cf       	rjmp	.-86     	; 0x4690 <vfprintf+0x69c>
    46e6:	31 10       	cpse	r3, r1
    46e8:	80 52       	subi	r24, 0x20	; 32
    46ea:	b6 01       	movw	r22, r12
    46ec:	90 e0       	ldi	r25, 0x00	; 0
    46ee:	0e 94 98 25 	call	0x4b30	; 0x4b30 <fputc>
    46f2:	0f 5f       	subi	r16, 0xFF	; 255
    46f4:	1f 4f       	sbci	r17, 0xFF	; 255
    46f6:	cf cf       	rjmp	.-98     	; 0x4696 <vfprintf+0x6a2>
    46f8:	23 e0       	ldi	r18, 0x03	; 3
    46fa:	2f 15       	cp	r18, r15
    46fc:	10 f4       	brcc	.+4      	; 0x4702 <vfprintf+0x70e>
    46fe:	83 e0       	ldi	r24, 0x03	; 3
    4700:	be cf       	rjmp	.-132    	; 0x467e <vfprintf+0x68a>
    4702:	f1 2c       	mov	r15, r1
    4704:	c1 cf       	rjmp	.-126    	; 0x4688 <vfprintf+0x694>
    4706:	63 96       	adiw	r28, 0x13	; 19
    4708:	cd bf       	out	0x3d, r28	; 61
    470a:	de bf       	out	0x3e, r29	; 62
    470c:	df 91       	pop	r29
    470e:	cf 91       	pop	r28
    4710:	1f 91       	pop	r17
    4712:	0f 91       	pop	r16
    4714:	ff 90       	pop	r15
    4716:	ef 90       	pop	r14
    4718:	df 90       	pop	r13
    471a:	cf 90       	pop	r12
    471c:	bf 90       	pop	r11
    471e:	af 90       	pop	r10
    4720:	9f 90       	pop	r9
    4722:	8f 90       	pop	r8
    4724:	7f 90       	pop	r7
    4726:	6f 90       	pop	r6
    4728:	5f 90       	pop	r5
    472a:	4f 90       	pop	r4
    472c:	3f 90       	pop	r3
    472e:	2f 90       	pop	r2
    4730:	08 95       	ret

00004732 <__divmodhi4>:
    4732:	97 fb       	bst	r25, 7
    4734:	07 2e       	mov	r0, r23
    4736:	16 f4       	brtc	.+4      	; 0x473c <__divmodhi4+0xa>
    4738:	00 94       	com	r0
    473a:	07 d0       	rcall	.+14     	; 0x474a <__divmodhi4_neg1>
    473c:	77 fd       	sbrc	r23, 7
    473e:	09 d0       	rcall	.+18     	; 0x4752 <__divmodhi4_neg2>
    4740:	0e 94 f5 23 	call	0x47ea	; 0x47ea <__udivmodhi4>
    4744:	07 fc       	sbrc	r0, 7
    4746:	05 d0       	rcall	.+10     	; 0x4752 <__divmodhi4_neg2>
    4748:	3e f4       	brtc	.+14     	; 0x4758 <__divmodhi4_exit>

0000474a <__divmodhi4_neg1>:
    474a:	90 95       	com	r25
    474c:	81 95       	neg	r24
    474e:	9f 4f       	sbci	r25, 0xFF	; 255
    4750:	08 95       	ret

00004752 <__divmodhi4_neg2>:
    4752:	70 95       	com	r23
    4754:	61 95       	neg	r22
    4756:	7f 4f       	sbci	r23, 0xFF	; 255

00004758 <__divmodhi4_exit>:
    4758:	08 95       	ret

0000475a <__udivmodsi4>:
    475a:	a1 e2       	ldi	r26, 0x21	; 33
    475c:	1a 2e       	mov	r1, r26
    475e:	aa 1b       	sub	r26, r26
    4760:	bb 1b       	sub	r27, r27
    4762:	fd 01       	movw	r30, r26
    4764:	0d c0       	rjmp	.+26     	; 0x4780 <__udivmodsi4_ep>

00004766 <__udivmodsi4_loop>:
    4766:	aa 1f       	adc	r26, r26
    4768:	bb 1f       	adc	r27, r27
    476a:	ee 1f       	adc	r30, r30
    476c:	ff 1f       	adc	r31, r31
    476e:	a2 17       	cp	r26, r18
    4770:	b3 07       	cpc	r27, r19
    4772:	e4 07       	cpc	r30, r20
    4774:	f5 07       	cpc	r31, r21
    4776:	20 f0       	brcs	.+8      	; 0x4780 <__udivmodsi4_ep>
    4778:	a2 1b       	sub	r26, r18
    477a:	b3 0b       	sbc	r27, r19
    477c:	e4 0b       	sbc	r30, r20
    477e:	f5 0b       	sbc	r31, r21

00004780 <__udivmodsi4_ep>:
    4780:	66 1f       	adc	r22, r22
    4782:	77 1f       	adc	r23, r23
    4784:	88 1f       	adc	r24, r24
    4786:	99 1f       	adc	r25, r25
    4788:	1a 94       	dec	r1
    478a:	69 f7       	brne	.-38     	; 0x4766 <__udivmodsi4_loop>
    478c:	60 95       	com	r22
    478e:	70 95       	com	r23
    4790:	80 95       	com	r24
    4792:	90 95       	com	r25
    4794:	9b 01       	movw	r18, r22
    4796:	ac 01       	movw	r20, r24
    4798:	bd 01       	movw	r22, r26
    479a:	cf 01       	movw	r24, r30
    479c:	08 95       	ret

0000479e <__tablejump2__>:
    479e:	ee 0f       	add	r30, r30
    47a0:	ff 1f       	adc	r31, r31
    47a2:	88 1f       	adc	r24, r24
    47a4:	8b bf       	out	0x3b, r24	; 59
    47a6:	07 90       	elpm	r0, Z+
    47a8:	f6 91       	elpm	r31, Z
    47aa:	e0 2d       	mov	r30, r0
    47ac:	19 94       	eijmp

000047ae <__ashrdi3>:
    47ae:	97 fb       	bst	r25, 7
    47b0:	10 f8       	bld	r1, 0

000047b2 <__lshrdi3>:
    47b2:	16 94       	lsr	r1
    47b4:	00 08       	sbc	r0, r0
    47b6:	0f 93       	push	r16
    47b8:	08 30       	cpi	r16, 0x08	; 8
    47ba:	98 f0       	brcs	.+38     	; 0x47e2 <__lshrdi3+0x30>
    47bc:	08 50       	subi	r16, 0x08	; 8
    47be:	23 2f       	mov	r18, r19
    47c0:	34 2f       	mov	r19, r20
    47c2:	45 2f       	mov	r20, r21
    47c4:	56 2f       	mov	r21, r22
    47c6:	67 2f       	mov	r22, r23
    47c8:	78 2f       	mov	r23, r24
    47ca:	89 2f       	mov	r24, r25
    47cc:	90 2d       	mov	r25, r0
    47ce:	f4 cf       	rjmp	.-24     	; 0x47b8 <__lshrdi3+0x6>
    47d0:	05 94       	asr	r0
    47d2:	97 95       	ror	r25
    47d4:	87 95       	ror	r24
    47d6:	77 95       	ror	r23
    47d8:	67 95       	ror	r22
    47da:	57 95       	ror	r21
    47dc:	47 95       	ror	r20
    47de:	37 95       	ror	r19
    47e0:	27 95       	ror	r18
    47e2:	0a 95       	dec	r16
    47e4:	aa f7       	brpl	.-22     	; 0x47d0 <__lshrdi3+0x1e>
    47e6:	0f 91       	pop	r16
    47e8:	08 95       	ret

000047ea <__udivmodhi4>:
    47ea:	aa 1b       	sub	r26, r26
    47ec:	bb 1b       	sub	r27, r27
    47ee:	51 e1       	ldi	r21, 0x11	; 17
    47f0:	07 c0       	rjmp	.+14     	; 0x4800 <__udivmodhi4_ep>

000047f2 <__udivmodhi4_loop>:
    47f2:	aa 1f       	adc	r26, r26
    47f4:	bb 1f       	adc	r27, r27
    47f6:	a6 17       	cp	r26, r22
    47f8:	b7 07       	cpc	r27, r23
    47fa:	10 f0       	brcs	.+4      	; 0x4800 <__udivmodhi4_ep>
    47fc:	a6 1b       	sub	r26, r22
    47fe:	b7 0b       	sbc	r27, r23

00004800 <__udivmodhi4_ep>:
    4800:	88 1f       	adc	r24, r24
    4802:	99 1f       	adc	r25, r25
    4804:	5a 95       	dec	r21
    4806:	a9 f7       	brne	.-22     	; 0x47f2 <__udivmodhi4_loop>
    4808:	80 95       	com	r24
    480a:	90 95       	com	r25
    480c:	bc 01       	movw	r22, r24
    480e:	cd 01       	movw	r24, r26
    4810:	08 95       	ret

00004812 <__muluhisi3>:
    4812:	0e 94 14 24 	call	0x4828	; 0x4828 <__umulhisi3>
    4816:	a5 9f       	mul	r26, r21
    4818:	90 0d       	add	r25, r0
    481a:	b4 9f       	mul	r27, r20
    481c:	90 0d       	add	r25, r0
    481e:	a4 9f       	mul	r26, r20
    4820:	80 0d       	add	r24, r0
    4822:	91 1d       	adc	r25, r1
    4824:	11 24       	eor	r1, r1
    4826:	08 95       	ret

00004828 <__umulhisi3>:
    4828:	a2 9f       	mul	r26, r18
    482a:	b0 01       	movw	r22, r0
    482c:	b3 9f       	mul	r27, r19
    482e:	c0 01       	movw	r24, r0
    4830:	a3 9f       	mul	r26, r19
    4832:	70 0d       	add	r23, r0
    4834:	81 1d       	adc	r24, r1
    4836:	11 24       	eor	r1, r1
    4838:	91 1d       	adc	r25, r1
    483a:	b2 9f       	mul	r27, r18
    483c:	70 0d       	add	r23, r0
    483e:	81 1d       	adc	r24, r1
    4840:	11 24       	eor	r1, r1
    4842:	91 1d       	adc	r25, r1
    4844:	08 95       	ret

00004846 <atol>:
    4846:	1f 93       	push	r17
    4848:	fc 01       	movw	r30, r24
    484a:	99 27       	eor	r25, r25
    484c:	88 27       	eor	r24, r24
    484e:	bc 01       	movw	r22, r24
    4850:	e8 94       	clt
    4852:	11 91       	ld	r17, Z+
    4854:	10 32       	cpi	r17, 0x20	; 32
    4856:	e9 f3       	breq	.-6      	; 0x4852 <atol+0xc>
    4858:	19 30       	cpi	r17, 0x09	; 9
    485a:	10 f0       	brcs	.+4      	; 0x4860 <atol+0x1a>
    485c:	1e 30       	cpi	r17, 0x0E	; 14
    485e:	c8 f3       	brcs	.-14     	; 0x4852 <atol+0xc>
    4860:	1b 32       	cpi	r17, 0x2B	; 43
    4862:	51 f0       	breq	.+20     	; 0x4878 <atol+0x32>
    4864:	1d 32       	cpi	r17, 0x2D	; 45
    4866:	49 f4       	brne	.+18     	; 0x487a <atol+0x34>
    4868:	68 94       	set
    486a:	06 c0       	rjmp	.+12     	; 0x4878 <atol+0x32>
    486c:	0e 94 73 25 	call	0x4ae6	; 0x4ae6 <__mulsi_const_10>
    4870:	61 0f       	add	r22, r17
    4872:	71 1d       	adc	r23, r1
    4874:	81 1d       	adc	r24, r1
    4876:	91 1d       	adc	r25, r1
    4878:	11 91       	ld	r17, Z+
    487a:	10 53       	subi	r17, 0x30	; 48
    487c:	1a 30       	cpi	r17, 0x0A	; 10
    487e:	b0 f3       	brcs	.-20     	; 0x486c <atol+0x26>
    4880:	3e f4       	brtc	.+14     	; 0x4890 <atol+0x4a>
    4882:	90 95       	com	r25
    4884:	80 95       	com	r24
    4886:	70 95       	com	r23
    4888:	61 95       	neg	r22
    488a:	7f 4f       	sbci	r23, 0xFF	; 255
    488c:	8f 4f       	sbci	r24, 0xFF	; 255
    488e:	9f 4f       	sbci	r25, 0xFF	; 255
    4890:	1f 91       	pop	r17
    4892:	08 95       	ret

00004894 <__ftoa_engine>:
    4894:	28 30       	cpi	r18, 0x08	; 8
    4896:	08 f0       	brcs	.+2      	; 0x489a <__ftoa_engine+0x6>
    4898:	27 e0       	ldi	r18, 0x07	; 7
    489a:	33 27       	eor	r19, r19
    489c:	da 01       	movw	r26, r20
    489e:	99 0f       	add	r25, r25
    48a0:	31 1d       	adc	r19, r1
    48a2:	87 fd       	sbrc	r24, 7
    48a4:	91 60       	ori	r25, 0x01	; 1
    48a6:	00 96       	adiw	r24, 0x00	; 0
    48a8:	61 05       	cpc	r22, r1
    48aa:	71 05       	cpc	r23, r1
    48ac:	39 f4       	brne	.+14     	; 0x48bc <__ftoa_engine+0x28>
    48ae:	32 60       	ori	r19, 0x02	; 2
    48b0:	2e 5f       	subi	r18, 0xFE	; 254
    48b2:	3d 93       	st	X+, r19
    48b4:	30 e3       	ldi	r19, 0x30	; 48
    48b6:	2a 95       	dec	r18
    48b8:	e1 f7       	brne	.-8      	; 0x48b2 <__ftoa_engine+0x1e>
    48ba:	08 95       	ret
    48bc:	9f 3f       	cpi	r25, 0xFF	; 255
    48be:	30 f0       	brcs	.+12     	; 0x48cc <__ftoa_engine+0x38>
    48c0:	80 38       	cpi	r24, 0x80	; 128
    48c2:	71 05       	cpc	r23, r1
    48c4:	61 05       	cpc	r22, r1
    48c6:	09 f0       	breq	.+2      	; 0x48ca <__ftoa_engine+0x36>
    48c8:	3c 5f       	subi	r19, 0xFC	; 252
    48ca:	3c 5f       	subi	r19, 0xFC	; 252
    48cc:	3d 93       	st	X+, r19
    48ce:	91 30       	cpi	r25, 0x01	; 1
    48d0:	08 f0       	brcs	.+2      	; 0x48d4 <__ftoa_engine+0x40>
    48d2:	80 68       	ori	r24, 0x80	; 128
    48d4:	91 1d       	adc	r25, r1
    48d6:	df 93       	push	r29
    48d8:	cf 93       	push	r28
    48da:	1f 93       	push	r17
    48dc:	0f 93       	push	r16
    48de:	ff 92       	push	r15
    48e0:	ef 92       	push	r14
    48e2:	19 2f       	mov	r17, r25
    48e4:	98 7f       	andi	r25, 0xF8	; 248
    48e6:	96 95       	lsr	r25
    48e8:	e9 2f       	mov	r30, r25
    48ea:	96 95       	lsr	r25
    48ec:	96 95       	lsr	r25
    48ee:	e9 0f       	add	r30, r25
    48f0:	ff 27       	eor	r31, r31
    48f2:	e6 55       	subi	r30, 0x56	; 86
    48f4:	fd 4f       	sbci	r31, 0xFD	; 253
    48f6:	99 27       	eor	r25, r25
    48f8:	33 27       	eor	r19, r19
    48fa:	ee 24       	eor	r14, r14
    48fc:	ff 24       	eor	r15, r15
    48fe:	a7 01       	movw	r20, r14
    4900:	e7 01       	movw	r28, r14
    4902:	05 90       	lpm	r0, Z+
    4904:	08 94       	sec
    4906:	07 94       	ror	r0
    4908:	28 f4       	brcc	.+10     	; 0x4914 <__ftoa_engine+0x80>
    490a:	36 0f       	add	r19, r22
    490c:	e7 1e       	adc	r14, r23
    490e:	f8 1e       	adc	r15, r24
    4910:	49 1f       	adc	r20, r25
    4912:	51 1d       	adc	r21, r1
    4914:	66 0f       	add	r22, r22
    4916:	77 1f       	adc	r23, r23
    4918:	88 1f       	adc	r24, r24
    491a:	99 1f       	adc	r25, r25
    491c:	06 94       	lsr	r0
    491e:	a1 f7       	brne	.-24     	; 0x4908 <__ftoa_engine+0x74>
    4920:	05 90       	lpm	r0, Z+
    4922:	07 94       	ror	r0
    4924:	28 f4       	brcc	.+10     	; 0x4930 <__ftoa_engine+0x9c>
    4926:	e7 0e       	add	r14, r23
    4928:	f8 1e       	adc	r15, r24
    492a:	49 1f       	adc	r20, r25
    492c:	56 1f       	adc	r21, r22
    492e:	c1 1d       	adc	r28, r1
    4930:	77 0f       	add	r23, r23
    4932:	88 1f       	adc	r24, r24
    4934:	99 1f       	adc	r25, r25
    4936:	66 1f       	adc	r22, r22
    4938:	06 94       	lsr	r0
    493a:	a1 f7       	brne	.-24     	; 0x4924 <__ftoa_engine+0x90>
    493c:	05 90       	lpm	r0, Z+
    493e:	07 94       	ror	r0
    4940:	28 f4       	brcc	.+10     	; 0x494c <__ftoa_engine+0xb8>
    4942:	f8 0e       	add	r15, r24
    4944:	49 1f       	adc	r20, r25
    4946:	56 1f       	adc	r21, r22
    4948:	c7 1f       	adc	r28, r23
    494a:	d1 1d       	adc	r29, r1
    494c:	88 0f       	add	r24, r24
    494e:	99 1f       	adc	r25, r25
    4950:	66 1f       	adc	r22, r22
    4952:	77 1f       	adc	r23, r23
    4954:	06 94       	lsr	r0
    4956:	a1 f7       	brne	.-24     	; 0x4940 <__ftoa_engine+0xac>
    4958:	05 90       	lpm	r0, Z+
    495a:	07 94       	ror	r0
    495c:	20 f4       	brcc	.+8      	; 0x4966 <__ftoa_engine+0xd2>
    495e:	49 0f       	add	r20, r25
    4960:	56 1f       	adc	r21, r22
    4962:	c7 1f       	adc	r28, r23
    4964:	d8 1f       	adc	r29, r24
    4966:	99 0f       	add	r25, r25
    4968:	66 1f       	adc	r22, r22
    496a:	77 1f       	adc	r23, r23
    496c:	88 1f       	adc	r24, r24
    496e:	06 94       	lsr	r0
    4970:	a9 f7       	brne	.-22     	; 0x495c <__ftoa_engine+0xc8>
    4972:	84 91       	lpm	r24, Z
    4974:	10 95       	com	r17
    4976:	17 70       	andi	r17, 0x07	; 7
    4978:	41 f0       	breq	.+16     	; 0x498a <__ftoa_engine+0xf6>
    497a:	d6 95       	lsr	r29
    497c:	c7 95       	ror	r28
    497e:	57 95       	ror	r21
    4980:	47 95       	ror	r20
    4982:	f7 94       	ror	r15
    4984:	e7 94       	ror	r14
    4986:	1a 95       	dec	r17
    4988:	c1 f7       	brne	.-16     	; 0x497a <__ftoa_engine+0xe6>
    498a:	e0 e5       	ldi	r30, 0x50	; 80
    498c:	f2 e0       	ldi	r31, 0x02	; 2
    498e:	68 94       	set
    4990:	15 90       	lpm	r1, Z+
    4992:	15 91       	lpm	r17, Z+
    4994:	35 91       	lpm	r19, Z+
    4996:	65 91       	lpm	r22, Z+
    4998:	95 91       	lpm	r25, Z+
    499a:	05 90       	lpm	r0, Z+
    499c:	7f e2       	ldi	r23, 0x2F	; 47
    499e:	73 95       	inc	r23
    49a0:	e1 18       	sub	r14, r1
    49a2:	f1 0a       	sbc	r15, r17
    49a4:	43 0b       	sbc	r20, r19
    49a6:	56 0b       	sbc	r21, r22
    49a8:	c9 0b       	sbc	r28, r25
    49aa:	d0 09       	sbc	r29, r0
    49ac:	c0 f7       	brcc	.-16     	; 0x499e <__ftoa_engine+0x10a>
    49ae:	e1 0c       	add	r14, r1
    49b0:	f1 1e       	adc	r15, r17
    49b2:	43 1f       	adc	r20, r19
    49b4:	56 1f       	adc	r21, r22
    49b6:	c9 1f       	adc	r28, r25
    49b8:	d0 1d       	adc	r29, r0
    49ba:	7e f4       	brtc	.+30     	; 0x49da <__ftoa_engine+0x146>
    49bc:	70 33       	cpi	r23, 0x30	; 48
    49be:	11 f4       	brne	.+4      	; 0x49c4 <__ftoa_engine+0x130>
    49c0:	8a 95       	dec	r24
    49c2:	e6 cf       	rjmp	.-52     	; 0x4990 <__ftoa_engine+0xfc>
    49c4:	e8 94       	clt
    49c6:	01 50       	subi	r16, 0x01	; 1
    49c8:	30 f0       	brcs	.+12     	; 0x49d6 <__ftoa_engine+0x142>
    49ca:	08 0f       	add	r16, r24
    49cc:	0a f4       	brpl	.+2      	; 0x49d0 <__ftoa_engine+0x13c>
    49ce:	00 27       	eor	r16, r16
    49d0:	02 17       	cp	r16, r18
    49d2:	08 f4       	brcc	.+2      	; 0x49d6 <__ftoa_engine+0x142>
    49d4:	20 2f       	mov	r18, r16
    49d6:	23 95       	inc	r18
    49d8:	02 2f       	mov	r16, r18
    49da:	7a 33       	cpi	r23, 0x3A	; 58
    49dc:	28 f0       	brcs	.+10     	; 0x49e8 <__ftoa_engine+0x154>
    49de:	79 e3       	ldi	r23, 0x39	; 57
    49e0:	7d 93       	st	X+, r23
    49e2:	2a 95       	dec	r18
    49e4:	e9 f7       	brne	.-6      	; 0x49e0 <__ftoa_engine+0x14c>
    49e6:	10 c0       	rjmp	.+32     	; 0x4a08 <__ftoa_engine+0x174>
    49e8:	7d 93       	st	X+, r23
    49ea:	2a 95       	dec	r18
    49ec:	89 f6       	brne	.-94     	; 0x4990 <__ftoa_engine+0xfc>
    49ee:	06 94       	lsr	r0
    49f0:	97 95       	ror	r25
    49f2:	67 95       	ror	r22
    49f4:	37 95       	ror	r19
    49f6:	17 95       	ror	r17
    49f8:	17 94       	ror	r1
    49fa:	e1 18       	sub	r14, r1
    49fc:	f1 0a       	sbc	r15, r17
    49fe:	43 0b       	sbc	r20, r19
    4a00:	56 0b       	sbc	r21, r22
    4a02:	c9 0b       	sbc	r28, r25
    4a04:	d0 09       	sbc	r29, r0
    4a06:	98 f0       	brcs	.+38     	; 0x4a2e <__ftoa_engine+0x19a>
    4a08:	23 95       	inc	r18
    4a0a:	7e 91       	ld	r23, -X
    4a0c:	73 95       	inc	r23
    4a0e:	7a 33       	cpi	r23, 0x3A	; 58
    4a10:	08 f0       	brcs	.+2      	; 0x4a14 <__ftoa_engine+0x180>
    4a12:	70 e3       	ldi	r23, 0x30	; 48
    4a14:	7c 93       	st	X, r23
    4a16:	20 13       	cpse	r18, r16
    4a18:	b8 f7       	brcc	.-18     	; 0x4a08 <__ftoa_engine+0x174>
    4a1a:	7e 91       	ld	r23, -X
    4a1c:	70 61       	ori	r23, 0x10	; 16
    4a1e:	7d 93       	st	X+, r23
    4a20:	30 f0       	brcs	.+12     	; 0x4a2e <__ftoa_engine+0x19a>
    4a22:	83 95       	inc	r24
    4a24:	71 e3       	ldi	r23, 0x31	; 49
    4a26:	7d 93       	st	X+, r23
    4a28:	70 e3       	ldi	r23, 0x30	; 48
    4a2a:	2a 95       	dec	r18
    4a2c:	e1 f7       	brne	.-8      	; 0x4a26 <__ftoa_engine+0x192>
    4a2e:	11 24       	eor	r1, r1
    4a30:	ef 90       	pop	r14
    4a32:	ff 90       	pop	r15
    4a34:	0f 91       	pop	r16
    4a36:	1f 91       	pop	r17
    4a38:	cf 91       	pop	r28
    4a3a:	df 91       	pop	r29
    4a3c:	99 27       	eor	r25, r25
    4a3e:	87 fd       	sbrc	r24, 7
    4a40:	90 95       	com	r25
    4a42:	08 95       	ret

00004a44 <strnlen_P>:
    4a44:	fc 01       	movw	r30, r24
    4a46:	05 90       	lpm	r0, Z+
    4a48:	61 50       	subi	r22, 0x01	; 1
    4a4a:	70 40       	sbci	r23, 0x00	; 0
    4a4c:	01 10       	cpse	r0, r1
    4a4e:	d8 f7       	brcc	.-10     	; 0x4a46 <strnlen_P+0x2>
    4a50:	80 95       	com	r24
    4a52:	90 95       	com	r25
    4a54:	8e 0f       	add	r24, r30
    4a56:	9f 1f       	adc	r25, r31
    4a58:	08 95       	ret

00004a5a <strtok>:
    4a5a:	4a e6       	ldi	r20, 0x6A	; 106
    4a5c:	53 e2       	ldi	r21, 0x23	; 35
    4a5e:	0c 94 4c 25 	jmp	0x4a98	; 0x4a98 <strtok_r>

00004a62 <strcmp>:
    4a62:	fb 01       	movw	r30, r22
    4a64:	dc 01       	movw	r26, r24
    4a66:	8d 91       	ld	r24, X+
    4a68:	01 90       	ld	r0, Z+
    4a6a:	80 19       	sub	r24, r0
    4a6c:	01 10       	cpse	r0, r1
    4a6e:	d9 f3       	breq	.-10     	; 0x4a66 <strcmp+0x4>
    4a70:	99 0b       	sbc	r25, r25
    4a72:	08 95       	ret

00004a74 <strcpy>:
    4a74:	fb 01       	movw	r30, r22
    4a76:	dc 01       	movw	r26, r24
    4a78:	01 90       	ld	r0, Z+
    4a7a:	0d 92       	st	X+, r0
    4a7c:	00 20       	and	r0, r0
    4a7e:	e1 f7       	brne	.-8      	; 0x4a78 <strcpy+0x4>
    4a80:	08 95       	ret

00004a82 <strnlen>:
    4a82:	fc 01       	movw	r30, r24
    4a84:	61 50       	subi	r22, 0x01	; 1
    4a86:	70 40       	sbci	r23, 0x00	; 0
    4a88:	01 90       	ld	r0, Z+
    4a8a:	01 10       	cpse	r0, r1
    4a8c:	d8 f7       	brcc	.-10     	; 0x4a84 <strnlen+0x2>
    4a8e:	80 95       	com	r24
    4a90:	90 95       	com	r25
    4a92:	8e 0f       	add	r24, r30
    4a94:	9f 1f       	adc	r25, r31
    4a96:	08 95       	ret

00004a98 <strtok_r>:
    4a98:	fa 01       	movw	r30, r20
    4a9a:	a1 91       	ld	r26, Z+
    4a9c:	b0 81       	ld	r27, Z
    4a9e:	00 97       	sbiw	r24, 0x00	; 0
    4aa0:	19 f4       	brne	.+6      	; 0x4aa8 <strtok_r+0x10>
    4aa2:	10 97       	sbiw	r26, 0x00	; 0
    4aa4:	e1 f0       	breq	.+56     	; 0x4ade <strtok_r+0x46>
    4aa6:	cd 01       	movw	r24, r26
    4aa8:	dc 01       	movw	r26, r24
    4aaa:	cd 01       	movw	r24, r26
    4aac:	0d 90       	ld	r0, X+
    4aae:	00 20       	and	r0, r0
    4ab0:	11 f4       	brne	.+4      	; 0x4ab6 <strtok_r+0x1e>
    4ab2:	c0 01       	movw	r24, r0
    4ab4:	13 c0       	rjmp	.+38     	; 0x4adc <strtok_r+0x44>
    4ab6:	fb 01       	movw	r30, r22
    4ab8:	21 91       	ld	r18, Z+
    4aba:	22 23       	and	r18, r18
    4abc:	19 f0       	breq	.+6      	; 0x4ac4 <strtok_r+0x2c>
    4abe:	20 15       	cp	r18, r0
    4ac0:	d9 f7       	brne	.-10     	; 0x4ab8 <strtok_r+0x20>
    4ac2:	f3 cf       	rjmp	.-26     	; 0x4aaa <strtok_r+0x12>
    4ac4:	fb 01       	movw	r30, r22
    4ac6:	21 91       	ld	r18, Z+
    4ac8:	20 15       	cp	r18, r0
    4aca:	19 f4       	brne	.+6      	; 0x4ad2 <strtok_r+0x3a>
    4acc:	1e 92       	st	-X, r1
    4ace:	11 96       	adiw	r26, 0x01	; 1
    4ad0:	06 c0       	rjmp	.+12     	; 0x4ade <strtok_r+0x46>
    4ad2:	22 23       	and	r18, r18
    4ad4:	c1 f7       	brne	.-16     	; 0x4ac6 <strtok_r+0x2e>
    4ad6:	0d 90       	ld	r0, X+
    4ad8:	00 20       	and	r0, r0
    4ada:	a1 f7       	brne	.-24     	; 0x4ac4 <strtok_r+0x2c>
    4adc:	d0 01       	movw	r26, r0
    4ade:	fa 01       	movw	r30, r20
    4ae0:	a1 93       	st	Z+, r26
    4ae2:	b0 83       	st	Z, r27
    4ae4:	08 95       	ret

00004ae6 <__mulsi_const_10>:
    4ae6:	59 2f       	mov	r21, r25
    4ae8:	48 2f       	mov	r20, r24
    4aea:	37 2f       	mov	r19, r23
    4aec:	26 2f       	mov	r18, r22
    4aee:	66 0f       	add	r22, r22
    4af0:	77 1f       	adc	r23, r23
    4af2:	88 1f       	adc	r24, r24
    4af4:	99 1f       	adc	r25, r25
    4af6:	66 0f       	add	r22, r22
    4af8:	77 1f       	adc	r23, r23
    4afa:	88 1f       	adc	r24, r24
    4afc:	99 1f       	adc	r25, r25
    4afe:	62 0f       	add	r22, r18
    4b00:	73 1f       	adc	r23, r19
    4b02:	84 1f       	adc	r24, r20
    4b04:	95 1f       	adc	r25, r21
    4b06:	66 0f       	add	r22, r22
    4b08:	77 1f       	adc	r23, r23
    4b0a:	88 1f       	adc	r24, r24
    4b0c:	99 1f       	adc	r25, r25
    4b0e:	08 95       	ret

00004b10 <fprintf>:
    4b10:	cf 93       	push	r28
    4b12:	df 93       	push	r29
    4b14:	cd b7       	in	r28, 0x3d	; 61
    4b16:	de b7       	in	r29, 0x3e	; 62
    4b18:	ae 01       	movw	r20, r28
    4b1a:	46 5f       	subi	r20, 0xF6	; 246
    4b1c:	5f 4f       	sbci	r21, 0xFF	; 255
    4b1e:	68 85       	ldd	r22, Y+8	; 0x08
    4b20:	79 85       	ldd	r23, Y+9	; 0x09
    4b22:	8e 81       	ldd	r24, Y+6	; 0x06
    4b24:	9f 81       	ldd	r25, Y+7	; 0x07
    4b26:	0e 94 fa 1f 	call	0x3ff4	; 0x3ff4 <vfprintf>
    4b2a:	df 91       	pop	r29
    4b2c:	cf 91       	pop	r28
    4b2e:	08 95       	ret

00004b30 <fputc>:
    4b30:	0f 93       	push	r16
    4b32:	1f 93       	push	r17
    4b34:	cf 93       	push	r28
    4b36:	df 93       	push	r29
    4b38:	fb 01       	movw	r30, r22
    4b3a:	23 81       	ldd	r18, Z+3	; 0x03
    4b3c:	21 fd       	sbrc	r18, 1
    4b3e:	03 c0       	rjmp	.+6      	; 0x4b46 <fputc+0x16>
    4b40:	8f ef       	ldi	r24, 0xFF	; 255
    4b42:	9f ef       	ldi	r25, 0xFF	; 255
    4b44:	28 c0       	rjmp	.+80     	; 0x4b96 <fputc+0x66>
    4b46:	22 ff       	sbrs	r18, 2
    4b48:	16 c0       	rjmp	.+44     	; 0x4b76 <fputc+0x46>
    4b4a:	46 81       	ldd	r20, Z+6	; 0x06
    4b4c:	57 81       	ldd	r21, Z+7	; 0x07
    4b4e:	24 81       	ldd	r18, Z+4	; 0x04
    4b50:	35 81       	ldd	r19, Z+5	; 0x05
    4b52:	42 17       	cp	r20, r18
    4b54:	53 07       	cpc	r21, r19
    4b56:	44 f4       	brge	.+16     	; 0x4b68 <fputc+0x38>
    4b58:	a0 81       	ld	r26, Z
    4b5a:	b1 81       	ldd	r27, Z+1	; 0x01
    4b5c:	9d 01       	movw	r18, r26
    4b5e:	2f 5f       	subi	r18, 0xFF	; 255
    4b60:	3f 4f       	sbci	r19, 0xFF	; 255
    4b62:	20 83       	st	Z, r18
    4b64:	31 83       	std	Z+1, r19	; 0x01
    4b66:	8c 93       	st	X, r24
    4b68:	26 81       	ldd	r18, Z+6	; 0x06
    4b6a:	37 81       	ldd	r19, Z+7	; 0x07
    4b6c:	2f 5f       	subi	r18, 0xFF	; 255
    4b6e:	3f 4f       	sbci	r19, 0xFF	; 255
    4b70:	26 83       	std	Z+6, r18	; 0x06
    4b72:	37 83       	std	Z+7, r19	; 0x07
    4b74:	10 c0       	rjmp	.+32     	; 0x4b96 <fputc+0x66>
    4b76:	eb 01       	movw	r28, r22
    4b78:	09 2f       	mov	r16, r25
    4b7a:	18 2f       	mov	r17, r24
    4b7c:	00 84       	ldd	r0, Z+8	; 0x08
    4b7e:	f1 85       	ldd	r31, Z+9	; 0x09
    4b80:	e0 2d       	mov	r30, r0
    4b82:	19 95       	eicall
    4b84:	89 2b       	or	r24, r25
    4b86:	e1 f6       	brne	.-72     	; 0x4b40 <fputc+0x10>
    4b88:	8e 81       	ldd	r24, Y+6	; 0x06
    4b8a:	9f 81       	ldd	r25, Y+7	; 0x07
    4b8c:	01 96       	adiw	r24, 0x01	; 1
    4b8e:	8e 83       	std	Y+6, r24	; 0x06
    4b90:	9f 83       	std	Y+7, r25	; 0x07
    4b92:	81 2f       	mov	r24, r17
    4b94:	90 2f       	mov	r25, r16
    4b96:	df 91       	pop	r29
    4b98:	cf 91       	pop	r28
    4b9a:	1f 91       	pop	r17
    4b9c:	0f 91       	pop	r16
    4b9e:	08 95       	ret

00004ba0 <puts>:
    4ba0:	0f 93       	push	r16
    4ba2:	1f 93       	push	r17
    4ba4:	cf 93       	push	r28
    4ba6:	df 93       	push	r29
    4ba8:	e0 91 15 99 	lds	r30, 0x9915	; 0x809915 <__iob+0x2>
    4bac:	f0 91 16 99 	lds	r31, 0x9916	; 0x809916 <__iob+0x3>
    4bb0:	23 81       	ldd	r18, Z+3	; 0x03
    4bb2:	21 ff       	sbrs	r18, 1
    4bb4:	1b c0       	rjmp	.+54     	; 0x4bec <puts+0x4c>
    4bb6:	8c 01       	movw	r16, r24
    4bb8:	d0 e0       	ldi	r29, 0x00	; 0
    4bba:	c0 e0       	ldi	r28, 0x00	; 0
    4bbc:	f8 01       	movw	r30, r16
    4bbe:	81 91       	ld	r24, Z+
    4bc0:	8f 01       	movw	r16, r30
    4bc2:	60 91 15 99 	lds	r22, 0x9915	; 0x809915 <__iob+0x2>
    4bc6:	70 91 16 99 	lds	r23, 0x9916	; 0x809916 <__iob+0x3>
    4bca:	db 01       	movw	r26, r22
    4bcc:	18 96       	adiw	r26, 0x08	; 8
    4bce:	ed 91       	ld	r30, X+
    4bd0:	fc 91       	ld	r31, X
    4bd2:	19 97       	sbiw	r26, 0x09	; 9
    4bd4:	88 23       	and	r24, r24
    4bd6:	31 f0       	breq	.+12     	; 0x4be4 <puts+0x44>
    4bd8:	19 95       	eicall
    4bda:	89 2b       	or	r24, r25
    4bdc:	79 f3       	breq	.-34     	; 0x4bbc <puts+0x1c>
    4bde:	df ef       	ldi	r29, 0xFF	; 255
    4be0:	cf ef       	ldi	r28, 0xFF	; 255
    4be2:	ec cf       	rjmp	.-40     	; 0x4bbc <puts+0x1c>
    4be4:	8a e0       	ldi	r24, 0x0A	; 10
    4be6:	19 95       	eicall
    4be8:	89 2b       	or	r24, r25
    4bea:	19 f0       	breq	.+6      	; 0x4bf2 <puts+0x52>
    4bec:	8f ef       	ldi	r24, 0xFF	; 255
    4bee:	9f ef       	ldi	r25, 0xFF	; 255
    4bf0:	02 c0       	rjmp	.+4      	; 0x4bf6 <puts+0x56>
    4bf2:	8d 2f       	mov	r24, r29
    4bf4:	9c 2f       	mov	r25, r28
    4bf6:	df 91       	pop	r29
    4bf8:	cf 91       	pop	r28
    4bfa:	1f 91       	pop	r17
    4bfc:	0f 91       	pop	r16
    4bfe:	08 95       	ret

00004c00 <sprintf>:
    4c00:	0f 93       	push	r16
    4c02:	1f 93       	push	r17
    4c04:	cf 93       	push	r28
    4c06:	df 93       	push	r29
    4c08:	cd b7       	in	r28, 0x3d	; 61
    4c0a:	de b7       	in	r29, 0x3e	; 62
    4c0c:	2e 97       	sbiw	r28, 0x0e	; 14
    4c0e:	cd bf       	out	0x3d, r28	; 61
    4c10:	de bf       	out	0x3e, r29	; 62
    4c12:	0e 89       	ldd	r16, Y+22	; 0x16
    4c14:	1f 89       	ldd	r17, Y+23	; 0x17
    4c16:	86 e0       	ldi	r24, 0x06	; 6
    4c18:	8c 83       	std	Y+4, r24	; 0x04
    4c1a:	09 83       	std	Y+1, r16	; 0x01
    4c1c:	1a 83       	std	Y+2, r17	; 0x02
    4c1e:	8f ef       	ldi	r24, 0xFF	; 255
    4c20:	9f e7       	ldi	r25, 0x7F	; 127
    4c22:	8d 83       	std	Y+5, r24	; 0x05
    4c24:	9e 83       	std	Y+6, r25	; 0x06
    4c26:	ae 01       	movw	r20, r28
    4c28:	46 5e       	subi	r20, 0xE6	; 230
    4c2a:	5f 4f       	sbci	r21, 0xFF	; 255
    4c2c:	68 8d       	ldd	r22, Y+24	; 0x18
    4c2e:	79 8d       	ldd	r23, Y+25	; 0x19
    4c30:	ce 01       	movw	r24, r28
    4c32:	01 96       	adiw	r24, 0x01	; 1
    4c34:	0e 94 fa 1f 	call	0x3ff4	; 0x3ff4 <vfprintf>
    4c38:	2f 81       	ldd	r18, Y+7	; 0x07
    4c3a:	38 85       	ldd	r19, Y+8	; 0x08
    4c3c:	f8 01       	movw	r30, r16
    4c3e:	e2 0f       	add	r30, r18
    4c40:	f3 1f       	adc	r31, r19
    4c42:	10 82       	st	Z, r1
    4c44:	2e 96       	adiw	r28, 0x0e	; 14
    4c46:	cd bf       	out	0x3d, r28	; 61
    4c48:	de bf       	out	0x3e, r29	; 62
    4c4a:	df 91       	pop	r29
    4c4c:	cf 91       	pop	r28
    4c4e:	1f 91       	pop	r17
    4c50:	0f 91       	pop	r16
    4c52:	08 95       	ret

00004c54 <__ultoa_invert>:
    4c54:	fa 01       	movw	r30, r20
    4c56:	aa 27       	eor	r26, r26
    4c58:	28 30       	cpi	r18, 0x08	; 8
    4c5a:	51 f1       	breq	.+84     	; 0x4cb0 <__ultoa_invert+0x5c>
    4c5c:	20 31       	cpi	r18, 0x10	; 16
    4c5e:	81 f1       	breq	.+96     	; 0x4cc0 <__ultoa_invert+0x6c>
    4c60:	e8 94       	clt
    4c62:	6f 93       	push	r22
    4c64:	6e 7f       	andi	r22, 0xFE	; 254
    4c66:	6e 5f       	subi	r22, 0xFE	; 254
    4c68:	7f 4f       	sbci	r23, 0xFF	; 255
    4c6a:	8f 4f       	sbci	r24, 0xFF	; 255
    4c6c:	9f 4f       	sbci	r25, 0xFF	; 255
    4c6e:	af 4f       	sbci	r26, 0xFF	; 255
    4c70:	b1 e0       	ldi	r27, 0x01	; 1
    4c72:	3e d0       	rcall	.+124    	; 0x4cf0 <__ultoa_invert+0x9c>
    4c74:	b4 e0       	ldi	r27, 0x04	; 4
    4c76:	3c d0       	rcall	.+120    	; 0x4cf0 <__ultoa_invert+0x9c>
    4c78:	67 0f       	add	r22, r23
    4c7a:	78 1f       	adc	r23, r24
    4c7c:	89 1f       	adc	r24, r25
    4c7e:	9a 1f       	adc	r25, r26
    4c80:	a1 1d       	adc	r26, r1
    4c82:	68 0f       	add	r22, r24
    4c84:	79 1f       	adc	r23, r25
    4c86:	8a 1f       	adc	r24, r26
    4c88:	91 1d       	adc	r25, r1
    4c8a:	a1 1d       	adc	r26, r1
    4c8c:	6a 0f       	add	r22, r26
    4c8e:	71 1d       	adc	r23, r1
    4c90:	81 1d       	adc	r24, r1
    4c92:	91 1d       	adc	r25, r1
    4c94:	a1 1d       	adc	r26, r1
    4c96:	20 d0       	rcall	.+64     	; 0x4cd8 <__ultoa_invert+0x84>
    4c98:	09 f4       	brne	.+2      	; 0x4c9c <__ultoa_invert+0x48>
    4c9a:	68 94       	set
    4c9c:	3f 91       	pop	r19
    4c9e:	2a e0       	ldi	r18, 0x0A	; 10
    4ca0:	26 9f       	mul	r18, r22
    4ca2:	11 24       	eor	r1, r1
    4ca4:	30 19       	sub	r19, r0
    4ca6:	30 5d       	subi	r19, 0xD0	; 208
    4ca8:	31 93       	st	Z+, r19
    4caa:	de f6       	brtc	.-74     	; 0x4c62 <__ultoa_invert+0xe>
    4cac:	cf 01       	movw	r24, r30
    4cae:	08 95       	ret
    4cb0:	46 2f       	mov	r20, r22
    4cb2:	47 70       	andi	r20, 0x07	; 7
    4cb4:	40 5d       	subi	r20, 0xD0	; 208
    4cb6:	41 93       	st	Z+, r20
    4cb8:	b3 e0       	ldi	r27, 0x03	; 3
    4cba:	0f d0       	rcall	.+30     	; 0x4cda <__ultoa_invert+0x86>
    4cbc:	c9 f7       	brne	.-14     	; 0x4cb0 <__ultoa_invert+0x5c>
    4cbe:	f6 cf       	rjmp	.-20     	; 0x4cac <__ultoa_invert+0x58>
    4cc0:	46 2f       	mov	r20, r22
    4cc2:	4f 70       	andi	r20, 0x0F	; 15
    4cc4:	40 5d       	subi	r20, 0xD0	; 208
    4cc6:	4a 33       	cpi	r20, 0x3A	; 58
    4cc8:	18 f0       	brcs	.+6      	; 0x4cd0 <__ultoa_invert+0x7c>
    4cca:	49 5d       	subi	r20, 0xD9	; 217
    4ccc:	31 fd       	sbrc	r19, 1
    4cce:	40 52       	subi	r20, 0x20	; 32
    4cd0:	41 93       	st	Z+, r20
    4cd2:	02 d0       	rcall	.+4      	; 0x4cd8 <__ultoa_invert+0x84>
    4cd4:	a9 f7       	brne	.-22     	; 0x4cc0 <__ultoa_invert+0x6c>
    4cd6:	ea cf       	rjmp	.-44     	; 0x4cac <__ultoa_invert+0x58>
    4cd8:	b4 e0       	ldi	r27, 0x04	; 4
    4cda:	a6 95       	lsr	r26
    4cdc:	97 95       	ror	r25
    4cde:	87 95       	ror	r24
    4ce0:	77 95       	ror	r23
    4ce2:	67 95       	ror	r22
    4ce4:	ba 95       	dec	r27
    4ce6:	c9 f7       	brne	.-14     	; 0x4cda <__ultoa_invert+0x86>
    4ce8:	00 97       	sbiw	r24, 0x00	; 0
    4cea:	61 05       	cpc	r22, r1
    4cec:	71 05       	cpc	r23, r1
    4cee:	08 95       	ret
    4cf0:	9b 01       	movw	r18, r22
    4cf2:	ac 01       	movw	r20, r24
    4cf4:	0a 2e       	mov	r0, r26
    4cf6:	06 94       	lsr	r0
    4cf8:	57 95       	ror	r21
    4cfa:	47 95       	ror	r20
    4cfc:	37 95       	ror	r19
    4cfe:	27 95       	ror	r18
    4d00:	ba 95       	dec	r27
    4d02:	c9 f7       	brne	.-14     	; 0x4cf6 <__ultoa_invert+0xa2>
    4d04:	62 0f       	add	r22, r18
    4d06:	73 1f       	adc	r23, r19
    4d08:	84 1f       	adc	r24, r20
    4d0a:	95 1f       	adc	r25, r21
    4d0c:	a0 1d       	adc	r26, r0
    4d0e:	08 95       	ret

00004d10 <__mulsi3>:
    4d10:	db 01       	movw	r26, r22
    4d12:	8f 93       	push	r24
    4d14:	9f 93       	push	r25
    4d16:	0e 94 09 24 	call	0x4812	; 0x4812 <__muluhisi3>
    4d1a:	bf 91       	pop	r27
    4d1c:	af 91       	pop	r26
    4d1e:	a2 9f       	mul	r26, r18
    4d20:	80 0d       	add	r24, r0
    4d22:	91 1d       	adc	r25, r1
    4d24:	a3 9f       	mul	r26, r19
    4d26:	90 0d       	add	r25, r0
    4d28:	b2 9f       	mul	r27, r18
    4d2a:	90 0d       	add	r25, r0
    4d2c:	11 24       	eor	r1, r1
    4d2e:	08 95       	ret

00004d30 <__divmodsi4>:
    4d30:	05 2e       	mov	r0, r21
    4d32:	97 fb       	bst	r25, 7
    4d34:	1e f4       	brtc	.+6      	; 0x4d3c <__divmodsi4+0xc>
    4d36:	00 94       	com	r0
    4d38:	0e 94 af 26 	call	0x4d5e	; 0x4d5e <__negsi2>
    4d3c:	57 fd       	sbrc	r21, 7
    4d3e:	07 d0       	rcall	.+14     	; 0x4d4e <__divmodsi4_neg2>
    4d40:	0e 94 ad 23 	call	0x475a	; 0x475a <__udivmodsi4>
    4d44:	07 fc       	sbrc	r0, 7
    4d46:	03 d0       	rcall	.+6      	; 0x4d4e <__divmodsi4_neg2>
    4d48:	4e f4       	brtc	.+18     	; 0x4d5c <__divmodsi4_exit>
    4d4a:	0c 94 af 26 	jmp	0x4d5e	; 0x4d5e <__negsi2>

00004d4e <__divmodsi4_neg2>:
    4d4e:	50 95       	com	r21
    4d50:	40 95       	com	r20
    4d52:	30 95       	com	r19
    4d54:	21 95       	neg	r18
    4d56:	3f 4f       	sbci	r19, 0xFF	; 255
    4d58:	4f 4f       	sbci	r20, 0xFF	; 255
    4d5a:	5f 4f       	sbci	r21, 0xFF	; 255

00004d5c <__divmodsi4_exit>:
    4d5c:	08 95       	ret

00004d5e <__negsi2>:
    4d5e:	90 95       	com	r25
    4d60:	80 95       	com	r24
    4d62:	70 95       	com	r23
    4d64:	61 95       	neg	r22
    4d66:	7f 4f       	sbci	r23, 0xFF	; 255
    4d68:	8f 4f       	sbci	r24, 0xFF	; 255
    4d6a:	9f 4f       	sbci	r25, 0xFF	; 255
    4d6c:	08 95       	ret

00004d6e <__usmulhisi3>:
    4d6e:	0e 94 14 24 	call	0x4828	; 0x4828 <__umulhisi3>

00004d72 <__usmulhisi3_tail>:
    4d72:	b7 ff       	sbrs	r27, 7
    4d74:	08 95       	ret
    4d76:	82 1b       	sub	r24, r18
    4d78:	93 0b       	sbc	r25, r19
    4d7a:	08 95       	ret

00004d7c <__xload_1>:
    4d7c:	57 fd       	sbrc	r21, 7
    4d7e:	03 c0       	rjmp	.+6      	; 0x4d86 <__xload_1+0xa>
    4d80:	5b bf       	out	0x3b, r21	; 59
    4d82:	67 91       	elpm	r22, Z+
    4d84:	08 95       	ret
    4d86:	60 81       	ld	r22, Z
    4d88:	08 95       	ret

00004d8a <_exit>:
    4d8a:	f8 94       	cli

00004d8c <__stop_program>:
    4d8c:	ff cf       	rjmp	.-2      	; 0x4d8c <__stop_program>
